
/decoder/build/max78000.elf:     file format elf32-littlearm


Disassembly of section .text:

1000e000 <__isr_vector>:
1000e000:	20020000 	.word	0x20020000
1000e004:	1000ec2d 	.word	0x1000ec2d
1000e008:	1000eab1 	.word	0x1000eab1
1000e00c:	1000ec6b 	.word	0x1000ec6b
1000e010:	1000ec6d 	.word	0x1000ec6d
1000e014:	1000ec6f 	.word	0x1000ec6f
1000e018:	1000ec71 	.word	0x1000ec71
	...
1000e02c:	1000ec73 	.word	0x1000ec73
1000e030:	1000ec75 	.word	0x1000ec75
1000e034:	00000000 	.word	0x00000000
1000e038:	1000ec77 	.word	0x1000ec77
1000e03c:	1000ec79 	.word	0x1000ec79
1000e040:	1000ec7d 	.word	0x1000ec7d
1000e044:	1000ec7f 	.word	0x1000ec7f
1000e048:	1000ec81 	.word	0x1000ec81
1000e04c:	1000ec83 	.word	0x1000ec83
1000e050:	1000ec85 	.word	0x1000ec85
1000e054:	1000ec87 	.word	0x1000ec87
1000e058:	1000ec89 	.word	0x1000ec89
1000e05c:	1000ec8b 	.word	0x1000ec8b
1000e060:	1000ec8d 	.word	0x1000ec8d
1000e064:	1000ec8f 	.word	0x1000ec8f
1000e068:	1000ec91 	.word	0x1000ec91
1000e06c:	1000ec93 	.word	0x1000ec93
1000e070:	1000ec95 	.word	0x1000ec95
1000e074:	1000ec97 	.word	0x1000ec97
1000e078:	1000ec99 	.word	0x1000ec99
1000e07c:	1000ec9b 	.word	0x1000ec9b
1000e080:	1000ec9d 	.word	0x1000ec9d
1000e084:	1000ec9f 	.word	0x1000ec9f
1000e088:	1000eca1 	.word	0x1000eca1
1000e08c:	1000eca3 	.word	0x1000eca3
1000e090:	1000eca5 	.word	0x1000eca5
1000e094:	1000eca7 	.word	0x1000eca7
1000e098:	1000eca9 	.word	0x1000eca9
1000e09c:	1000ecab 	.word	0x1000ecab
1000e0a0:	1000ea49 	.word	0x1000ea49
1000e0a4:	1000ea51 	.word	0x1000ea51
1000e0a8:	1000ecb1 	.word	0x1000ecb1
1000e0ac:	1000ecb3 	.word	0x1000ecb3
1000e0b0:	1000ecb5 	.word	0x1000ecb5
1000e0b4:	1000ecb7 	.word	0x1000ecb7
1000e0b8:	1000ecb9 	.word	0x1000ecb9
1000e0bc:	1000ecbb 	.word	0x1000ecbb
1000e0c0:	1000ecbd 	.word	0x1000ecbd
1000e0c4:	1000ecbf 	.word	0x1000ecbf
1000e0c8:	1000ecc1 	.word	0x1000ecc1
1000e0cc:	1000ecc3 	.word	0x1000ecc3
1000e0d0:	1000ecc5 	.word	0x1000ecc5
1000e0d4:	1000ecc7 	.word	0x1000ecc7
1000e0d8:	1000ecc9 	.word	0x1000ecc9
1000e0dc:	1000eccb 	.word	0x1000eccb
1000e0e0:	1000eccd 	.word	0x1000eccd
1000e0e4:	1000eccf 	.word	0x1000eccf
1000e0e8:	1000ecd1 	.word	0x1000ecd1
1000e0ec:	1000ecd3 	.word	0x1000ecd3
1000e0f0:	1000ecd5 	.word	0x1000ecd5
1000e0f4:	1000ecd7 	.word	0x1000ecd7
1000e0f8:	1000ecd9 	.word	0x1000ecd9
1000e0fc:	1000ecdb 	.word	0x1000ecdb
1000e100:	1000ecdd 	.word	0x1000ecdd
1000e104:	1000ecdf 	.word	0x1000ecdf
1000e108:	1000ece1 	.word	0x1000ece1
1000e10c:	1000ece3 	.word	0x1000ece3
1000e110:	1000ece5 	.word	0x1000ece5
1000e114:	1000ece7 	.word	0x1000ece7
1000e118:	1000ece9 	.word	0x1000ece9
1000e11c:	1000eceb 	.word	0x1000eceb
1000e120:	1000eced 	.word	0x1000eced
1000e124:	1000ecef 	.word	0x1000ecef
1000e128:	1000ecf1 	.word	0x1000ecf1
1000e12c:	1000ecf3 	.word	0x1000ecf3
1000e130:	1000ecf5 	.word	0x1000ecf5
1000e134:	1000ecf7 	.word	0x1000ecf7
1000e138:	1000ecf9 	.word	0x1000ecf9
1000e13c:	1000ecfb 	.word	0x1000ecfb
1000e140:	1000ecfd 	.word	0x1000ecfd
1000e144:	1000ecff 	.word	0x1000ecff
1000e148:	1000ed01 	.word	0x1000ed01
1000e14c:	1000ed03 	.word	0x1000ed03
1000e150:	1000ed05 	.word	0x1000ed05
1000e154:	1000ed07 	.word	0x1000ed07
1000e158:	1000ed09 	.word	0x1000ed09
1000e15c:	1000ed0b 	.word	0x1000ed0b
1000e160:	1000ed0d 	.word	0x1000ed0d
1000e164:	1000ed0f 	.word	0x1000ed0f
1000e168:	1000ed11 	.word	0x1000ed11
1000e16c:	1000ed13 	.word	0x1000ed13
1000e170:	1000ed15 	.word	0x1000ed15
1000e174:	1000ed17 	.word	0x1000ed17
1000e178:	1000ed19 	.word	0x1000ed19
1000e17c:	1000ed1b 	.word	0x1000ed1b
1000e180:	1000ed1d 	.word	0x1000ed1d
1000e184:	1000ed1f 	.word	0x1000ed1f
1000e188:	1000ed21 	.word	0x1000ed21
1000e18c:	1000ed23 	.word	0x1000ed23
1000e190:	1000ed25 	.word	0x1000ed25
1000e194:	1000ed27 	.word	0x1000ed27
1000e198:	1000ed29 	.word	0x1000ed29
1000e19c:	1000ed2b 	.word	0x1000ed2b
1000e1a0:	1000ed2d 	.word	0x1000ed2d
1000e1a4:	1000ed2f 	.word	0x1000ed2f
1000e1a8:	1000ed31 	.word	0x1000ed31
1000e1ac:	1000ed33 	.word	0x1000ed33
1000e1b0:	1000ed35 	.word	0x1000ed35
1000e1b4:	1000ed37 	.word	0x1000ed37
1000e1b8:	1000ed39 	.word	0x1000ed39
1000e1bc:	1000ed3b 	.word	0x1000ed3b
1000e1c0:	1000ed3d 	.word	0x1000ed3d
1000e1c4:	1000ed3f 	.word	0x1000ed3f
1000e1c8:	1000ed41 	.word	0x1000ed41
1000e1cc:	1000ed43 	.word	0x1000ed43
1000e1d0:	1000ed45 	.word	0x1000ed45
1000e1d4:	1000ed47 	.word	0x1000ed47
1000e1d8:	1000ed49 	.word	0x1000ed49
1000e1dc:	1000ed4b 	.word	0x1000ed4b
	...

1000e200 <firmware_startup>:
1000e200:	4800      	ldr	r0, [pc, #0]	@ (1000e204 <firmware_startup+0x4>)
1000e202:	4780      	blx	r0
1000e204:	1000ec2d 	.word	0x1000ec2d

1000e208 <deregister_tm_clones>:
1000e208:	4803      	ldr	r0, [pc, #12]	@ (1000e218 <deregister_tm_clones+0x10>)
1000e20a:	4b04      	ldr	r3, [pc, #16]	@ (1000e21c <deregister_tm_clones+0x14>)
1000e20c:	4283      	cmp	r3, r0
1000e20e:	d002      	beq.n	1000e216 <deregister_tm_clones+0xe>
1000e210:	4b03      	ldr	r3, [pc, #12]	@ (1000e220 <deregister_tm_clones+0x18>)
1000e212:	b103      	cbz	r3, 1000e216 <deregister_tm_clones+0xe>
1000e214:	4718      	bx	r3
1000e216:	4770      	bx	lr
1000e218:	20000bc4 	.word	0x20000bc4
1000e21c:	20000bc4 	.word	0x20000bc4
1000e220:	00000000 	.word	0x00000000

1000e224 <register_tm_clones>:
1000e224:	4805      	ldr	r0, [pc, #20]	@ (1000e23c <register_tm_clones+0x18>)
1000e226:	4b06      	ldr	r3, [pc, #24]	@ (1000e240 <register_tm_clones+0x1c>)
1000e228:	1a1b      	subs	r3, r3, r0
1000e22a:	0fd9      	lsrs	r1, r3, #31
1000e22c:	eb01 01a3 	add.w	r1, r1, r3, asr #2
1000e230:	1049      	asrs	r1, r1, #1
1000e232:	d002      	beq.n	1000e23a <register_tm_clones+0x16>
1000e234:	4b03      	ldr	r3, [pc, #12]	@ (1000e244 <register_tm_clones+0x20>)
1000e236:	b103      	cbz	r3, 1000e23a <register_tm_clones+0x16>
1000e238:	4718      	bx	r3
1000e23a:	4770      	bx	lr
1000e23c:	20000bc4 	.word	0x20000bc4
1000e240:	20000bc4 	.word	0x20000bc4
1000e244:	00000000 	.word	0x00000000

1000e248 <__do_global_dtors_aux>:
1000e248:	b510      	push	{r4, lr}
1000e24a:	4c06      	ldr	r4, [pc, #24]	@ (1000e264 <__do_global_dtors_aux+0x1c>)
1000e24c:	7823      	ldrb	r3, [r4, #0]
1000e24e:	b943      	cbnz	r3, 1000e262 <__do_global_dtors_aux+0x1a>
1000e250:	f7ff ffda 	bl	1000e208 <deregister_tm_clones>
1000e254:	4b04      	ldr	r3, [pc, #16]	@ (1000e268 <__do_global_dtors_aux+0x20>)
1000e256:	b113      	cbz	r3, 1000e25e <__do_global_dtors_aux+0x16>
1000e258:	4804      	ldr	r0, [pc, #16]	@ (1000e26c <__do_global_dtors_aux+0x24>)
1000e25a:	f3af 8000 	nop.w
1000e25e:	2301      	movs	r3, #1
1000e260:	7023      	strb	r3, [r4, #0]
1000e262:	bd10      	pop	{r4, pc}
1000e264:	20000c00 	.word	0x20000c00
1000e268:	00000000 	.word	0x00000000
1000e26c:	10018128 	.word	0x10018128

1000e270 <frame_dummy>:
1000e270:	b508      	push	{r3, lr}
1000e272:	4b04      	ldr	r3, [pc, #16]	@ (1000e284 <frame_dummy+0x14>)
1000e274:	b11b      	cbz	r3, 1000e27e <frame_dummy+0xe>
1000e276:	4904      	ldr	r1, [pc, #16]	@ (1000e288 <frame_dummy+0x18>)
1000e278:	4804      	ldr	r0, [pc, #16]	@ (1000e28c <frame_dummy+0x1c>)
1000e27a:	f3af 8000 	nop.w
1000e27e:	e8bd 4008 	ldmia.w	sp!, {r3, lr}
1000e282:	e7cf      	b.n	1000e224 <register_tm_clones>
1000e284:	00000000 	.word	0x00000000
1000e288:	20000c04 	.word	0x20000c04
1000e28c:	10018128 	.word	0x10018128

1000e290 <deobfuscate>:
1000e290:	e92d 43f0 	stmdb	sp!, {r4, r5, r6, r7, r8, r9, lr}
1000e294:	4a29      	ldr	r2, [pc, #164]	@ (1000e33c <deobfuscate+0xac>)
1000e296:	4e2a      	ldr	r6, [pc, #168]	@ (1000e340 <deobfuscate+0xb0>)
1000e298:	4f2a      	ldr	r7, [pc, #168]	@ (1000e344 <deobfuscate+0xb4>)
1000e29a:	4d2b      	ldr	r5, [pc, #172]	@ (1000e348 <deobfuscate+0xb8>)
1000e29c:	4c2b      	ldr	r4, [pc, #172]	@ (1000e34c <deobfuscate+0xbc>)
1000e29e:	f04f 0c04 	mov.w	ip, #4
1000e2a2:	eb00 0e06 	add.w	lr, r0, r6
1000e2a6:	fb87 380e 	smull	r3, r8, r7, lr
1000e2aa:	ea4f 73ee 	mov.w	r3, lr, asr #31
1000e2ae:	ebc3 53e8 	rsb	r3, r3, r8, asr #23
1000e2b2:	fb02 e313 	mls	r3, r2, r3, lr
1000e2b6:	f04f 0804 	mov.w	r8, #4
1000e2ba:	eb03 0e43 	add.w	lr, r3, r3, lsl #1
1000e2be:	eb03 038e 	add.w	r3, r3, lr, lsl #2
1000e2c2:	442b      	add	r3, r5
1000e2c4:	ea4f 2e93 	mov.w	lr, r3, lsr #10
1000e2c8:	fba4 9e0e 	umull	r9, lr, r4, lr
1000e2cc:	ea4f 1e5e 	mov.w	lr, lr, lsr #5
1000e2d0:	f1b8 0801 	subs.w	r8, r8, #1
1000e2d4:	fb02 331e 	mls	r3, r2, lr, r3
1000e2d8:	d1ef      	bne.n	1000e2ba <deobfuscate+0x2a>
1000e2da:	1acb      	subs	r3, r1, r3
1000e2dc:	0a99      	lsrs	r1, r3, #10
1000e2de:	fba4 e101 	umull	lr, r1, r4, r1
1000e2e2:	0949      	lsrs	r1, r1, #5
1000e2e4:	fb02 3111 	mls	r1, r2, r1, r3
1000e2e8:	eb01 0e06 	add.w	lr, r1, r6
1000e2ec:	ea4f 239e 	mov.w	r3, lr, lsr #10
1000e2f0:	fba4 8303 	umull	r8, r3, r4, r3
1000e2f4:	095b      	lsrs	r3, r3, #5
1000e2f6:	fb02 e313 	mls	r3, r2, r3, lr
1000e2fa:	f04f 0804 	mov.w	r8, #4
1000e2fe:	eb03 0e43 	add.w	lr, r3, r3, lsl #1
1000e302:	eb03 038e 	add.w	r3, r3, lr, lsl #2
1000e306:	442b      	add	r3, r5
1000e308:	ea4f 2e93 	mov.w	lr, r3, lsr #10
1000e30c:	fba4 9e0e 	umull	r9, lr, r4, lr
1000e310:	ea4f 1e5e 	mov.w	lr, lr, lsr #5
1000e314:	f1b8 0801 	subs.w	r8, r8, #1
1000e318:	fb02 331e 	mls	r3, r2, lr, r3
1000e31c:	d1ef      	bne.n	1000e2fe <deobfuscate+0x6e>
1000e31e:	1ac3      	subs	r3, r0, r3
1000e320:	0a98      	lsrs	r0, r3, #10
1000e322:	fba4 e000 	umull	lr, r0, r4, r0
1000e326:	0940      	lsrs	r0, r0, #5
1000e328:	f1bc 0c01 	subs.w	ip, ip, #1
1000e32c:	fb02 3010 	mls	r0, r2, r0, r3
1000e330:	d1b7      	bne.n	1000e2a2 <deobfuscate+0x12>
1000e332:	4807      	ldr	r0, [pc, #28]	@ (1000e350 <deobfuscate+0xc0>)
1000e334:	4408      	add	r0, r1
1000e336:	b2c0      	uxtb	r0, r0
1000e338:	e8bd 83f0 	ldmia.w	sp!, {r4, r5, r6, r7, r8, r9, pc}
1000e33c:	039aa400 	.word	0x039aa400
1000e340:	12345678 	.word	0x12345678
1000e344:	2383f4bf 	.word	0x2383f4bf
1000e348:	5125abc7 	.word	0x5125abc7
1000e34c:	002383f5 	.word	0x002383f5
1000e350:	039aa3a7 	.word	0x039aa3a7

1000e354 <boot_flag>:
1000e354:	b5f0      	push	{r4, r5, r6, r7, lr}
1000e356:	b0a9      	sub	sp, #164	@ 0xa4
1000e358:	2280      	movs	r2, #128	@ 0x80
1000e35a:	2100      	movs	r1, #0
1000e35c:	a808      	add	r0, sp, #32
1000e35e:	f001 fd5b 	bl	1000fe18 <memset>
1000e362:	4e10      	ldr	r6, [pc, #64]	@ (1000e3a4 <boot_flag+0x50>)
1000e364:	4d10      	ldr	r5, [pc, #64]	@ (1000e3a8 <boot_flag+0x54>)
1000e366:	4b11      	ldr	r3, [pc, #68]	@ (1000e3ac <boot_flag+0x58>)
1000e368:	ac01      	add	r4, sp, #4
1000e36a:	2700      	movs	r7, #0
1000e36c:	4618      	mov	r0, r3
1000e36e:	f856 1b04 	ldr.w	r1, [r6], #4
1000e372:	f7ff ff8d 	bl	1000e290 <deobfuscate>
1000e376:	f855 3f04 	ldr.w	r3, [r5, #4]!
1000e37a:	7020      	strb	r0, [r4, #0]
1000e37c:	f804 7f01 	strb.w	r7, [r4, #1]!
1000e380:	2b00      	cmp	r3, #0
1000e382:	d1f3      	bne.n	1000e36c <boot_flag+0x18>
1000e384:	aa01      	add	r2, sp, #4
1000e386:	490a      	ldr	r1, [pc, #40]	@ (1000e3b0 <boot_flag+0x5c>)
1000e388:	a808      	add	r0, sp, #32
1000e38a:	f002 fb87 	bl	10010a9c <sprintf>
1000e38e:	a808      	add	r0, sp, #32
1000e390:	f001 fcd6 	bl	1000fd40 <strlen>
1000e394:	a908      	add	r1, sp, #32
1000e396:	b282      	uxth	r2, r0
1000e398:	2047      	movs	r0, #71	@ 0x47
1000e39a:	f000 fa65 	bl	1000e868 <write_packet>
1000e39e:	b029      	add	sp, #164	@ 0xa4
1000e3a0:	bdf0      	pop	{r4, r5, r6, r7, pc}
1000e3a2:	bf00      	nop
1000e3a4:	10017cf0 	.word	0x10017cf0
1000e3a8:	10017d60 	.word	0x10017d60
1000e3ac:	01ffe4b6 	.word	0x01ffe4b6
1000e3b0:	10017a20 	.word	0x10017a20

1000e3b4 <list_channels>:
1000e3b4:	b530      	push	{r4, r5, lr}
1000e3b6:	4b1b      	ldr	r3, [pc, #108]	@ (1000e424 <list_channels+0x70>)
1000e3b8:	b0ab      	sub	sp, #172	@ 0xac
1000e3ba:	2200      	movs	r2, #0
1000e3bc:	4615      	mov	r5, r2
1000e3be:	9201      	str	r2, [sp, #4]
1000e3c0:	f103 04c0 	add.w	r4, r3, #192	@ 0xc0
1000e3c4:	4611      	mov	r1, r2
1000e3c6:	7a18      	ldrb	r0, [r3, #8]
1000e3c8:	eb01 0281 	add.w	r2, r1, r1, lsl #2
1000e3cc:	f10d 0ca8 	add.w	ip, sp, #168	@ 0xa8
1000e3d0:	eb0c 0282 	add.w	r2, ip, r2, lsl #2
1000e3d4:	b190      	cbz	r0, 1000e3fc <list_channels+0x48>
1000e3d6:	f1a2 0ea4 	sub.w	lr, r2, #164	@ 0xa4
1000e3da:	68dd      	ldr	r5, [r3, #12]
1000e3dc:	f842 5ca0 	str.w	r5, [r2, #-160]
1000e3e0:	f1a2 0c9c 	sub.w	ip, r2, #156	@ 0x9c
1000e3e4:	695d      	ldr	r5, [r3, #20]
1000e3e6:	691a      	ldr	r2, [r3, #16]
1000e3e8:	f8ce 2008 	str.w	r2, [lr, #8]
1000e3ec:	f8ce 500c 	str.w	r5, [lr, #12]
1000e3f0:	69da      	ldr	r2, [r3, #28]
1000e3f2:	699d      	ldr	r5, [r3, #24]
1000e3f4:	3101      	adds	r1, #1
1000e3f6:	e9cc 5202 	strd	r5, r2, [ip, #8]
1000e3fa:	4605      	mov	r5, r0
1000e3fc:	3318      	adds	r3, #24
1000e3fe:	429c      	cmp	r4, r3
1000e400:	d1e1      	bne.n	1000e3c6 <list_channels+0x12>
1000e402:	b165      	cbz	r5, 1000e41e <list_channels+0x6a>
1000e404:	eb01 0281 	add.w	r2, r1, r1, lsl #2
1000e408:	0092      	lsls	r2, r2, #2
1000e40a:	3204      	adds	r2, #4
1000e40c:	9101      	str	r1, [sp, #4]
1000e40e:	b292      	uxth	r2, r2
1000e410:	a901      	add	r1, sp, #4
1000e412:	204c      	movs	r0, #76	@ 0x4c
1000e414:	f000 fa28 	bl	1000e868 <write_packet>
1000e418:	2000      	movs	r0, #0
1000e41a:	b02b      	add	sp, #172	@ 0xac
1000e41c:	bd30      	pop	{r4, r5, pc}
1000e41e:	2204      	movs	r2, #4
1000e420:	e7f6      	b.n	1000e410 <list_channels+0x5c>
1000e422:	bf00      	nop
1000e424:	20000c20 	.word	0x20000c20

1000e428 <update_subscription>:
1000e428:	b538      	push	{r3, r4, r5, lr}
1000e42a:	694c      	ldr	r4, [r1, #20]
1000e42c:	2c00      	cmp	r4, #0
1000e42e:	d043      	beq.n	1000e4b8 <update_subscription+0x90>
1000e430:	4d2a      	ldr	r5, [pc, #168]	@ (1000e4dc <update_subscription+0xb4>)
1000e432:	2300      	movs	r3, #0
1000e434:	462a      	mov	r2, r5
1000e436:	68d0      	ldr	r0, [r2, #12]
1000e438:	4284      	cmp	r4, r0
1000e43a:	d019      	beq.n	1000e470 <update_subscription+0x48>
1000e43c:	7a10      	ldrb	r0, [r2, #8]
1000e43e:	3218      	adds	r2, #24
1000e440:	b1b0      	cbz	r0, 1000e470 <update_subscription+0x48>
1000e442:	3301      	adds	r3, #1
1000e444:	2b08      	cmp	r3, #8
1000e446:	d1f6      	bne.n	1000e436 <update_subscription+0xe>
1000e448:	2000      	movs	r0, #0
1000e44a:	f000 fbc7 	bl	1000ebdc <LED_Off>
1000e44e:	2001      	movs	r0, #1
1000e450:	f000 fbc4 	bl	1000ebdc <LED_Off>
1000e454:	2002      	movs	r0, #2
1000e456:	f000 fbc1 	bl	1000ebdc <LED_Off>
1000e45a:	2000      	movs	r0, #0
1000e45c:	f000 fbb2 	bl	1000ebc4 <LED_On>
1000e460:	491f      	ldr	r1, [pc, #124]	@ (1000e4e0 <update_subscription+0xb8>)
1000e462:	223c      	movs	r2, #60	@ 0x3c
1000e464:	2045      	movs	r0, #69	@ 0x45
1000e466:	f000 f9ff 	bl	1000e868 <write_packet>
1000e46a:	f04f 30ff 	mov.w	r0, #4294967295	@ 0xffffffff
1000e46e:	bd38      	pop	{r3, r4, r5, pc}
1000e470:	eb03 0243 	add.w	r2, r3, r3, lsl #1
1000e474:	eb05 02c2 	add.w	r2, r5, r2, lsl #3
1000e478:	6848      	ldr	r0, [r1, #4]
1000e47a:	60d4      	str	r4, [r2, #12]
1000e47c:	2401      	movs	r4, #1
1000e47e:	7214      	strb	r4, [r2, #8]
1000e480:	688c      	ldr	r4, [r1, #8]
1000e482:	e9c2 0404 	strd	r0, r4, [r2, #16]
1000e486:	3301      	adds	r3, #1
1000e488:	eb03 0343 	add.w	r3, r3, r3, lsl #1
1000e48c:	eb05 02c3 	add.w	r2, r5, r3, lsl #3
1000e490:	68c8      	ldr	r0, [r1, #12]
1000e492:	6909      	ldr	r1, [r1, #16]
1000e494:	f845 0033 	str.w	r0, [r5, r3, lsl #3]
1000e498:	4812      	ldr	r0, [pc, #72]	@ (1000e4e4 <update_subscription+0xbc>)
1000e49a:	6051      	str	r1, [r2, #4]
1000e49c:	f000 faa6 	bl	1000e9ec <flash_simple_erase_page>
1000e4a0:	490e      	ldr	r1, [pc, #56]	@ (1000e4dc <update_subscription+0xb4>)
1000e4a2:	4810      	ldr	r0, [pc, #64]	@ (1000e4e4 <update_subscription+0xbc>)
1000e4a4:	22c8      	movs	r2, #200	@ 0xc8
1000e4a6:	f000 faa5 	bl	1000e9f4 <flash_simple_write>
1000e4aa:	2200      	movs	r2, #0
1000e4ac:	4611      	mov	r1, r2
1000e4ae:	2053      	movs	r0, #83	@ 0x53
1000e4b0:	f000 f9da 	bl	1000e868 <write_packet>
1000e4b4:	2000      	movs	r0, #0
1000e4b6:	bd38      	pop	{r3, r4, r5, pc}
1000e4b8:	4620      	mov	r0, r4
1000e4ba:	f000 fb8f 	bl	1000ebdc <LED_Off>
1000e4be:	2001      	movs	r0, #1
1000e4c0:	f000 fb8c 	bl	1000ebdc <LED_Off>
1000e4c4:	2002      	movs	r0, #2
1000e4c6:	f000 fb89 	bl	1000ebdc <LED_Off>
1000e4ca:	4620      	mov	r0, r4
1000e4cc:	f000 fb7a 	bl	1000ebc4 <LED_On>
1000e4d0:	4905      	ldr	r1, [pc, #20]	@ (1000e4e8 <update_subscription+0xc0>)
1000e4d2:	2246      	movs	r2, #70	@ 0x46
1000e4d4:	2045      	movs	r0, #69	@ 0x45
1000e4d6:	f000 f9c7 	bl	1000e868 <write_packet>
1000e4da:	e7c6      	b.n	1000e46a <update_subscription+0x42>
1000e4dc:	20000c20 	.word	0x20000c20
1000e4e0:	10017a84 	.word	0x10017a84
1000e4e4:	1007c000 	.word	0x1007c000
1000e4e8:	10017a3c 	.word	0x10017a3c

1000e4ec <decode>:
1000e4ec:	b570      	push	{r4, r5, r6, lr}
1000e4ee:	460e      	mov	r6, r1
1000e4f0:	b0a0      	sub	sp, #128	@ 0x80
1000e4f2:	2280      	movs	r2, #128	@ 0x80
1000e4f4:	2100      	movs	r1, #0
1000e4f6:	4604      	mov	r4, r0
1000e4f8:	4668      	mov	r0, sp
1000e4fa:	f001 fc8d 	bl	1000fe18 <memset>
1000e4fe:	6835      	ldr	r5, [r6, #0]
1000e500:	491f      	ldr	r1, [pc, #124]	@ (1000e580 <decode+0x94>)
1000e502:	3c0c      	subs	r4, #12
1000e504:	2216      	movs	r2, #22
1000e506:	2047      	movs	r0, #71	@ 0x47
1000e508:	b2a4      	uxth	r4, r4
1000e50a:	f000 f9ad 	bl	1000e868 <write_packet>
1000e50e:	b165      	cbz	r5, 1000e52a <decode+0x3e>
1000e510:	4b1c      	ldr	r3, [pc, #112]	@ (1000e584 <decode+0x98>)
1000e512:	f103 00c0 	add.w	r0, r3, #192	@ 0xc0
1000e516:	e002      	b.n	1000e51e <decode+0x32>
1000e518:	3318      	adds	r3, #24
1000e51a:	4283      	cmp	r3, r0
1000e51c:	d013      	beq.n	1000e546 <decode+0x5a>
1000e51e:	68da      	ldr	r2, [r3, #12]
1000e520:	4295      	cmp	r5, r2
1000e522:	d1f9      	bne.n	1000e518 <decode+0x2c>
1000e524:	7a1a      	ldrb	r2, [r3, #8]
1000e526:	2a00      	cmp	r2, #0
1000e528:	d0f6      	beq.n	1000e518 <decode+0x2c>
1000e52a:	4917      	ldr	r1, [pc, #92]	@ (1000e588 <decode+0x9c>)
1000e52c:	2213      	movs	r2, #19
1000e52e:	2047      	movs	r0, #71	@ 0x47
1000e530:	f000 f99a 	bl	1000e868 <write_packet>
1000e534:	4622      	mov	r2, r4
1000e536:	2044      	movs	r0, #68	@ 0x44
1000e538:	f106 010c 	add.w	r1, r6, #12
1000e53c:	f000 f994 	bl	1000e868 <write_packet>
1000e540:	2000      	movs	r0, #0
1000e542:	b020      	add	sp, #128	@ 0x80
1000e544:	bd70      	pop	{r4, r5, r6, pc}
1000e546:	2000      	movs	r0, #0
1000e548:	f000 fb48 	bl	1000ebdc <LED_Off>
1000e54c:	2001      	movs	r0, #1
1000e54e:	f000 fb45 	bl	1000ebdc <LED_Off>
1000e552:	2002      	movs	r0, #2
1000e554:	f000 fb42 	bl	1000ebdc <LED_Off>
1000e558:	2000      	movs	r0, #0
1000e55a:	f000 fb33 	bl	1000ebc4 <LED_On>
1000e55e:	490b      	ldr	r1, [pc, #44]	@ (1000e58c <decode+0xa0>)
1000e560:	462a      	mov	r2, r5
1000e562:	4668      	mov	r0, sp
1000e564:	f002 fa9a 	bl	10010a9c <sprintf>
1000e568:	4668      	mov	r0, sp
1000e56a:	f001 fbe9 	bl	1000fd40 <strlen>
1000e56e:	4669      	mov	r1, sp
1000e570:	b282      	uxth	r2, r0
1000e572:	2045      	movs	r0, #69	@ 0x45
1000e574:	f000 f978 	bl	1000e868 <write_packet>
1000e578:	f04f 30ff 	mov.w	r0, #4294967295	@ 0xffffffff
1000e57c:	e7e1      	b.n	1000e542 <decode+0x56>
1000e57e:	bf00      	nop
1000e580:	10017ac4 	.word	0x10017ac4
1000e584:	20000c20 	.word	0x20000c20
1000e588:	10017adc 	.word	0x10017adc
1000e58c:	10017af0 	.word	0x10017af0

1000e590 <init>:
1000e590:	b530      	push	{r4, r5, lr}
1000e592:	4c23      	ldr	r4, [pc, #140]	@ (1000e620 <init+0x90>)
1000e594:	4d23      	ldr	r5, [pc, #140]	@ (1000e624 <init+0x94>)
1000e596:	b0b1      	sub	sp, #196	@ 0xc4
1000e598:	f000 fa10 	bl	1000e9bc <flash_simple_init>
1000e59c:	4822      	ldr	r0, [pc, #136]	@ (1000e628 <init+0x98>)
1000e59e:	22c8      	movs	r2, #200	@ 0xc8
1000e5a0:	4621      	mov	r1, r4
1000e5a2:	f000 fa25 	bl	1000e9f0 <flash_simple_read>
1000e5a6:	6823      	ldr	r3, [r4, #0]
1000e5a8:	42ab      	cmp	r3, r5
1000e5aa:	d105      	bne.n	1000e5b8 <init+0x28>
1000e5ac:	f000 fa28 	bl	1000ea00 <uart_init>
1000e5b0:	2800      	cmp	r0, #0
1000e5b2:	db28      	blt.n	1000e606 <init+0x76>
1000e5b4:	b031      	add	sp, #196	@ 0xc4
1000e5b6:	bd30      	pop	{r4, r5, pc}
1000e5b8:	491c      	ldr	r1, [pc, #112]	@ (1000e62c <init+0x9c>)
1000e5ba:	221e      	movs	r2, #30
1000e5bc:	2047      	movs	r0, #71	@ 0x47
1000e5be:	f000 f953 	bl	1000e868 <write_packet>
1000e5c2:	f04f 30ff 	mov.w	r0, #4294967295	@ 0xffffffff
1000e5c6:	f04f 31ff 	mov.w	r1, #4294967295	@ 0xffffffff
1000e5ca:	f04f 0c00 	mov.w	ip, #0
1000e5ce:	6025      	str	r5, [r4, #0]
1000e5d0:	466b      	mov	r3, sp
1000e5d2:	aa30      	add	r2, sp, #192	@ 0xc0
1000e5d4:	e9c3 0102 	strd	r0, r1, [r3, #8]
1000e5d8:	e9c3 0104 	strd	r0, r1, [r3, #16]
1000e5dc:	f803 cb18 	strb.w	ip, [r3], #24
1000e5e0:	4293      	cmp	r3, r2
1000e5e2:	d1f7      	bne.n	1000e5d4 <init+0x44>
1000e5e4:	22c0      	movs	r2, #192	@ 0xc0
1000e5e6:	4669      	mov	r1, sp
1000e5e8:	4811      	ldr	r0, [pc, #68]	@ (1000e630 <init+0xa0>)
1000e5ea:	f001 fe93 	bl	10010314 <memcpy>
1000e5ee:	480e      	ldr	r0, [pc, #56]	@ (1000e628 <init+0x98>)
1000e5f0:	f000 f9fc 	bl	1000e9ec <flash_simple_erase_page>
1000e5f4:	490a      	ldr	r1, [pc, #40]	@ (1000e620 <init+0x90>)
1000e5f6:	480c      	ldr	r0, [pc, #48]	@ (1000e628 <init+0x98>)
1000e5f8:	22c8      	movs	r2, #200	@ 0xc8
1000e5fa:	f000 f9fb 	bl	1000e9f4 <flash_simple_write>
1000e5fe:	f000 f9ff 	bl	1000ea00 <uart_init>
1000e602:	2800      	cmp	r0, #0
1000e604:	dad6      	bge.n	1000e5b4 <init+0x24>
1000e606:	2000      	movs	r0, #0
1000e608:	f000 fae8 	bl	1000ebdc <LED_Off>
1000e60c:	2001      	movs	r0, #1
1000e60e:	f000 fae5 	bl	1000ebdc <LED_Off>
1000e612:	2002      	movs	r0, #2
1000e614:	f000 fae2 	bl	1000ebdc <LED_Off>
1000e618:	2000      	movs	r0, #0
1000e61a:	f000 fad3 	bl	1000ebc4 <LED_On>
1000e61e:	e7fe      	b.n	1000e61e <init+0x8e>
1000e620:	20000c20 	.word	0x20000c20
1000e624:	deadbeef 	.word	0xdeadbeef
1000e628:	1007c000 	.word	0x1007c000
1000e62c:	10017b1c 	.word	0x10017b1c
1000e630:	20000c28 	.word	0x20000c28

1000e634 <main>:
1000e634:	b530      	push	{r4, r5, lr}
1000e636:	b0bb      	sub	sp, #236	@ 0xec
1000e638:	2280      	movs	r2, #128	@ 0x80
1000e63a:	2100      	movs	r1, #0
1000e63c:	a81a      	add	r0, sp, #104	@ 0x68
1000e63e:	f001 fbeb 	bl	1000fe18 <memset>
1000e642:	f7ff ffa5 	bl	1000e590 <init>
1000e646:	494a      	ldr	r1, [pc, #296]	@ (1000e770 <main+0x13c>)
1000e648:	4c4a      	ldr	r4, [pc, #296]	@ (1000e774 <main+0x140>)
1000e64a:	4d4b      	ldr	r5, [pc, #300]	@ (1000e778 <main+0x144>)
1000e64c:	2210      	movs	r2, #16
1000e64e:	2047      	movs	r0, #71	@ 0x47
1000e650:	f000 f90a 	bl	1000e868 <write_packet>
1000e654:	2206      	movs	r2, #6
1000e656:	4621      	mov	r1, r4
1000e658:	2047      	movs	r0, #71	@ 0x47
1000e65a:	f000 f905 	bl	1000e868 <write_packet>
1000e65e:	2000      	movs	r0, #0
1000e660:	f000 fabc 	bl	1000ebdc <LED_Off>
1000e664:	2001      	movs	r0, #1
1000e666:	f000 fab9 	bl	1000ebdc <LED_Off>
1000e66a:	2002      	movs	r0, #2
1000e66c:	f000 fab6 	bl	1000ebdc <LED_Off>
1000e670:	2001      	movs	r0, #1
1000e672:	f000 faa7 	bl	1000ebc4 <LED_On>
1000e676:	f10d 0202 	add.w	r2, sp, #2
1000e67a:	a901      	add	r1, sp, #4
1000e67c:	f10d 0001 	add.w	r0, sp, #1
1000e680:	f000 f930 	bl	1000e8e4 <read_packet>
1000e684:	4603      	mov	r3, r0
1000e686:	2000      	movs	r0, #0
1000e688:	4283      	cmp	r3, r0
1000e68a:	db24      	blt.n	1000e6d6 <main+0xa2>
1000e68c:	f89d 3001 	ldrb.w	r3, [sp, #1]
1000e690:	2b4c      	cmp	r3, #76	@ 0x4c
1000e692:	f04f 0000 	mov.w	r0, #0
1000e696:	d057      	beq.n	1000e748 <main+0x114>
1000e698:	2b53      	cmp	r3, #83	@ 0x53
1000e69a:	d041      	beq.n	1000e720 <main+0xec>
1000e69c:	2b44      	cmp	r3, #68	@ 0x44
1000e69e:	d02b      	beq.n	1000e6f8 <main+0xc4>
1000e6a0:	2000      	movs	r0, #0
1000e6a2:	f000 fa9b 	bl	1000ebdc <LED_Off>
1000e6a6:	2001      	movs	r0, #1
1000e6a8:	f000 fa98 	bl	1000ebdc <LED_Off>
1000e6ac:	2002      	movs	r0, #2
1000e6ae:	f000 fa95 	bl	1000ebdc <LED_Off>
1000e6b2:	2000      	movs	r0, #0
1000e6b4:	f000 fa86 	bl	1000ebc4 <LED_On>
1000e6b8:	f89d 2001 	ldrb.w	r2, [sp, #1]
1000e6bc:	4629      	mov	r1, r5
1000e6be:	a81a      	add	r0, sp, #104	@ 0x68
1000e6c0:	f002 f9ec 	bl	10010a9c <sprintf>
1000e6c4:	a81a      	add	r0, sp, #104	@ 0x68
1000e6c6:	f001 fb3b 	bl	1000fd40 <strlen>
1000e6ca:	a91a      	add	r1, sp, #104	@ 0x68
1000e6cc:	b282      	uxth	r2, r0
1000e6ce:	2045      	movs	r0, #69	@ 0x45
1000e6d0:	f000 f8ca 	bl	1000e868 <write_packet>
1000e6d4:	e7be      	b.n	1000e654 <main+0x20>
1000e6d6:	f000 fa81 	bl	1000ebdc <LED_Off>
1000e6da:	2001      	movs	r0, #1
1000e6dc:	f000 fa7e 	bl	1000ebdc <LED_Off>
1000e6e0:	2002      	movs	r0, #2
1000e6e2:	f000 fa7b 	bl	1000ebdc <LED_Off>
1000e6e6:	2000      	movs	r0, #0
1000e6e8:	f000 fa6c 	bl	1000ebc4 <LED_On>
1000e6ec:	4923      	ldr	r1, [pc, #140]	@ (1000e77c <main+0x148>)
1000e6ee:	2220      	movs	r2, #32
1000e6f0:	2045      	movs	r0, #69	@ 0x45
1000e6f2:	f000 f8b9 	bl	1000e868 <write_packet>
1000e6f6:	e7ad      	b.n	1000e654 <main+0x20>
1000e6f8:	f000 fa70 	bl	1000ebdc <LED_Off>
1000e6fc:	2001      	movs	r0, #1
1000e6fe:	f000 fa6d 	bl	1000ebdc <LED_Off>
1000e702:	2002      	movs	r0, #2
1000e704:	f000 fa6a 	bl	1000ebdc <LED_Off>
1000e708:	2000      	movs	r0, #0
1000e70a:	f000 fa5b 	bl	1000ebc4 <LED_On>
1000e70e:	2002      	movs	r0, #2
1000e710:	f000 fa58 	bl	1000ebc4 <LED_On>
1000e714:	f8bd 0002 	ldrh.w	r0, [sp, #2]
1000e718:	a901      	add	r1, sp, #4
1000e71a:	f7ff fee7 	bl	1000e4ec <decode>
1000e71e:	e799      	b.n	1000e654 <main+0x20>
1000e720:	f000 fa5c 	bl	1000ebdc <LED_Off>
1000e724:	2001      	movs	r0, #1
1000e726:	f000 fa59 	bl	1000ebdc <LED_Off>
1000e72a:	2002      	movs	r0, #2
1000e72c:	f000 fa56 	bl	1000ebdc <LED_Off>
1000e730:	2000      	movs	r0, #0
1000e732:	f000 fa47 	bl	1000ebc4 <LED_On>
1000e736:	2001      	movs	r0, #1
1000e738:	f000 fa44 	bl	1000ebc4 <LED_On>
1000e73c:	f8bd 0002 	ldrh.w	r0, [sp, #2]
1000e740:	a901      	add	r1, sp, #4
1000e742:	f7ff fe71 	bl	1000e428 <update_subscription>
1000e746:	e785      	b.n	1000e654 <main+0x20>
1000e748:	f000 fa48 	bl	1000ebdc <LED_Off>
1000e74c:	2001      	movs	r0, #1
1000e74e:	f000 fa45 	bl	1000ebdc <LED_Off>
1000e752:	2002      	movs	r0, #2
1000e754:	f000 fa42 	bl	1000ebdc <LED_Off>
1000e758:	2001      	movs	r0, #1
1000e75a:	f000 fa33 	bl	1000ebc4 <LED_On>
1000e75e:	2002      	movs	r0, #2
1000e760:	f000 fa30 	bl	1000ebc4 <LED_On>
1000e764:	f7ff fdf6 	bl	1000e354 <boot_flag>
1000e768:	f7ff fe24 	bl	1000e3b4 <list_channels>
1000e76c:	e772      	b.n	1000e654 <main+0x20>
1000e76e:	bf00      	nop
1000e770:	10017b3c 	.word	0x10017b3c
1000e774:	10017b50 	.word	0x10017b50
1000e778:	10017b7c 	.word	0x10017b7c
1000e77c:	10017b58 	.word	0x10017b58

1000e780 <read_bytes>:
1000e780:	b381      	cbz	r1, 1000e7e4 <read_bytes+0x64>
1000e782:	e92d 47f0 	stmdb	sp!, {r4, r5, r6, r7, r8, r9, sl, lr}
1000e786:	f8df 8060 	ldr.w	r8, [pc, #96]	@ 1000e7e8 <read_bytes+0x68>
1000e78a:	b082      	sub	sp, #8
1000e78c:	460f      	mov	r7, r1
1000e78e:	1e45      	subs	r5, r0, #1
1000e790:	2400      	movs	r4, #0
1000e792:	f244 1925 	movw	r9, #16677	@ 0x4125
1000e796:	ae02      	add	r6, sp, #8
1000e798:	f000 f948 	bl	1000ea2c <uart_readbyte>
1000e79c:	2800      	cmp	r0, #0
1000e79e:	db1a      	blt.n	1000e7d6 <read_bytes+0x56>
1000e7a0:	3401      	adds	r4, #1
1000e7a2:	42bc      	cmp	r4, r7
1000e7a4:	f805 0f01 	strb.w	r0, [r5, #1]!
1000e7a8:	d018      	beq.n	1000e7dc <read_bytes+0x5c>
1000e7aa:	b2e3      	uxtb	r3, r4
1000e7ac:	2b00      	cmp	r3, #0
1000e7ae:	d1f3      	bne.n	1000e798 <read_bytes+0x18>
1000e7b0:	f8cd 9004 	str.w	r9, [sp, #4]
1000e7b4:	f10d 0a04 	add.w	sl, sp, #4
1000e7b8:	f81a 0b01 	ldrb.w	r0, [sl], #1
1000e7bc:	f000 f93c 	bl	1000ea38 <uart_writebyte>
1000e7c0:	45b2      	cmp	sl, r6
1000e7c2:	d1f9      	bne.n	1000e7b8 <read_bytes+0x38>
1000e7c4:	f8d8 3000 	ldr.w	r3, [r8]
1000e7c8:	6898      	ldr	r0, [r3, #8]
1000e7ca:	f001 fc21 	bl	10010010 <fflush>
1000e7ce:	f000 f92d 	bl	1000ea2c <uart_readbyte>
1000e7d2:	2800      	cmp	r0, #0
1000e7d4:	dae4      	bge.n	1000e7a0 <read_bytes+0x20>
1000e7d6:	b002      	add	sp, #8
1000e7d8:	e8bd 87f0 	ldmia.w	sp!, {r4, r5, r6, r7, r8, r9, sl, pc}
1000e7dc:	2000      	movs	r0, #0
1000e7de:	b002      	add	sp, #8
1000e7e0:	e8bd 87f0 	ldmia.w	sp!, {r4, r5, r6, r7, r8, r9, sl, pc}
1000e7e4:	2000      	movs	r0, #0
1000e7e6:	4770      	bx	lr
1000e7e8:	20000010 	.word	0x20000010

1000e7ec <read_ack>:
1000e7ec:	b500      	push	{lr}
1000e7ee:	b083      	sub	sp, #12
1000e7f0:	2300      	movs	r3, #0
1000e7f2:	9301      	str	r3, [sp, #4]
1000e7f4:	f000 f91a 	bl	1000ea2c <uart_readbyte>
1000e7f8:	b2c0      	uxtb	r0, r0
1000e7fa:	2825      	cmp	r0, #37	@ 0x25
1000e7fc:	f88d 0004 	strb.w	r0, [sp, #4]
1000e800:	d1f8      	bne.n	1000e7f4 <read_ack+0x8>
1000e802:	f000 f913 	bl	1000ea2c <uart_readbyte>
1000e806:	2102      	movs	r1, #2
1000e808:	4603      	mov	r3, r0
1000e80a:	f10d 0006 	add.w	r0, sp, #6
1000e80e:	f88d 3005 	strb.w	r3, [sp, #5]
1000e812:	f7ff ffb5 	bl	1000e780 <read_bytes>
1000e816:	f89d 0005 	ldrb.w	r0, [sp, #5]
1000e81a:	3841      	subs	r0, #65	@ 0x41
1000e81c:	bf18      	it	ne
1000e81e:	f04f 30ff 	movne.w	r0, #4294967295	@ 0xffffffff
1000e822:	b2c0      	uxtb	r0, r0
1000e824:	b003      	add	sp, #12
1000e826:	f85d fb04 	ldr.w	pc, [sp], #4
1000e82a:	bf00      	nop

1000e82c <write_bytes>:
1000e82c:	b5f8      	push	{r3, r4, r5, r6, r7, lr}
1000e82e:	b191      	cbz	r1, 1000e856 <write_bytes+0x2a>
1000e830:	4617      	mov	r7, r2
1000e832:	460e      	mov	r6, r1
1000e834:	1e45      	subs	r5, r0, #1
1000e836:	2400      	movs	r4, #0
1000e838:	3401      	adds	r4, #1
1000e83a:	f815 0f01 	ldrb.w	r0, [r5, #1]!
1000e83e:	f000 f8fb 	bl	1000ea38 <uart_writebyte>
1000e842:	42b4      	cmp	r4, r6
1000e844:	b2e3      	uxtb	r3, r4
1000e846:	d006      	beq.n	1000e856 <write_bytes+0x2a>
1000e848:	2b00      	cmp	r3, #0
1000e84a:	d1f5      	bne.n	1000e838 <write_bytes+0xc>
1000e84c:	2f00      	cmp	r7, #0
1000e84e:	d0f3      	beq.n	1000e838 <write_bytes+0xc>
1000e850:	f7ff ffcc 	bl	1000e7ec <read_ack>
1000e854:	e7f0      	b.n	1000e838 <write_bytes+0xc>
1000e856:	4b03      	ldr	r3, [pc, #12]	@ (1000e864 <write_bytes+0x38>)
1000e858:	681b      	ldr	r3, [r3, #0]
1000e85a:	6898      	ldr	r0, [r3, #8]
1000e85c:	f001 fbd8 	bl	10010010 <fflush>
1000e860:	2000      	movs	r0, #0
1000e862:	bdf8      	pop	{r3, r4, r5, r6, r7, pc}
1000e864:	20000010 	.word	0x20000010

1000e868 <write_packet>:
1000e868:	e92d 41f0 	stmdb	sp!, {r4, r5, r6, r7, r8, lr}
1000e86c:	b082      	sub	sp, #8
1000e86e:	2325      	movs	r3, #37	@ 0x25
1000e870:	4606      	mov	r6, r0
1000e872:	4617      	mov	r7, r2
1000e874:	4688      	mov	r8, r1
1000e876:	f88d 3004 	strb.w	r3, [sp, #4]
1000e87a:	f88d 0005 	strb.w	r0, [sp, #5]
1000e87e:	f8ad 2006 	strh.w	r2, [sp, #6]
1000e882:	ac01      	add	r4, sp, #4
1000e884:	ad02      	add	r5, sp, #8
1000e886:	f814 0b01 	ldrb.w	r0, [r4], #1
1000e88a:	f000 f8d5 	bl	1000ea38 <uart_writebyte>
1000e88e:	42ac      	cmp	r4, r5
1000e890:	d1f9      	bne.n	1000e886 <write_packet+0x1e>
1000e892:	4b13      	ldr	r3, [pc, #76]	@ (1000e8e0 <write_packet+0x78>)
1000e894:	681b      	ldr	r3, [r3, #0]
1000e896:	6898      	ldr	r0, [r3, #8]
1000e898:	f001 fbba 	bl	10010010 <fflush>
1000e89c:	2e41      	cmp	r6, #65	@ 0x41
1000e89e:	d002      	beq.n	1000e8a6 <write_packet+0x3e>
1000e8a0:	2e47      	cmp	r6, #71	@ 0x47
1000e8a2:	d104      	bne.n	1000e8ae <write_packet+0x46>
1000e8a4:	b997      	cbnz	r7, 1000e8cc <write_packet+0x64>
1000e8a6:	2000      	movs	r0, #0
1000e8a8:	b002      	add	sp, #8
1000e8aa:	e8bd 81f0 	ldmia.w	sp!, {r4, r5, r6, r7, r8, pc}
1000e8ae:	f7ff ff9d 	bl	1000e7ec <read_ack>
1000e8b2:	2f00      	cmp	r7, #0
1000e8b4:	d0f7      	beq.n	1000e8a6 <write_packet+0x3e>
1000e8b6:	2201      	movs	r2, #1
1000e8b8:	4639      	mov	r1, r7
1000e8ba:	4640      	mov	r0, r8
1000e8bc:	f7ff ffb6 	bl	1000e82c <write_bytes>
1000e8c0:	f7ff ff94 	bl	1000e7ec <read_ack>
1000e8c4:	2000      	movs	r0, #0
1000e8c6:	b002      	add	sp, #8
1000e8c8:	e8bd 81f0 	ldmia.w	sp!, {r4, r5, r6, r7, r8, pc}
1000e8cc:	2200      	movs	r2, #0
1000e8ce:	4639      	mov	r1, r7
1000e8d0:	4640      	mov	r0, r8
1000e8d2:	f7ff ffab 	bl	1000e82c <write_bytes>
1000e8d6:	2000      	movs	r0, #0
1000e8d8:	b002      	add	sp, #8
1000e8da:	e8bd 81f0 	ldmia.w	sp!, {r4, r5, r6, r7, r8, pc}
1000e8de:	bf00      	nop
1000e8e0:	20000010 	.word	0x20000010

1000e8e4 <read_packet>:
1000e8e4:	b5f0      	push	{r4, r5, r6, r7, lr}
1000e8e6:	b083      	sub	sp, #12
1000e8e8:	2300      	movs	r3, #0
1000e8ea:	9300      	str	r3, [sp, #0]
1000e8ec:	2800      	cmp	r0, #0
1000e8ee:	d048      	beq.n	1000e982 <read_packet+0x9e>
1000e8f0:	460e      	mov	r6, r1
1000e8f2:	4615      	mov	r5, r2
1000e8f4:	4604      	mov	r4, r0
1000e8f6:	f000 f899 	bl	1000ea2c <uart_readbyte>
1000e8fa:	b2c0      	uxtb	r0, r0
1000e8fc:	2825      	cmp	r0, #37	@ 0x25
1000e8fe:	f88d 0000 	strb.w	r0, [sp]
1000e902:	d1f8      	bne.n	1000e8f6 <read_packet+0x12>
1000e904:	f000 f892 	bl	1000ea2c <uart_readbyte>
1000e908:	2102      	movs	r1, #2
1000e90a:	f88d 0001 	strb.w	r0, [sp, #1]
1000e90e:	eb0d 0001 	add.w	r0, sp, r1
1000e912:	f7ff ff35 	bl	1000e780 <read_bytes>
1000e916:	f89d 3001 	ldrb.w	r3, [sp, #1]
1000e91a:	7023      	strb	r3, [r4, #0]
1000e91c:	b115      	cbz	r5, 1000e924 <read_packet+0x40>
1000e91e:	f8bd 2002 	ldrh.w	r2, [sp, #2]
1000e922:	802a      	strh	r2, [r5, #0]
1000e924:	2b41      	cmp	r3, #65	@ 0x41
1000e926:	d102      	bne.n	1000e92e <read_packet+0x4a>
1000e928:	2000      	movs	r0, #0
1000e92a:	b003      	add	sp, #12
1000e92c:	bdf0      	pop	{r4, r5, r6, r7, pc}
1000e92e:	f244 1325 	movw	r3, #16677	@ 0x4125
1000e932:	9301      	str	r3, [sp, #4]
1000e934:	ac01      	add	r4, sp, #4
1000e936:	ad02      	add	r5, sp, #8
1000e938:	f814 0b01 	ldrb.w	r0, [r4], #1
1000e93c:	f000 f87c 	bl	1000ea38 <uart_writebyte>
1000e940:	42a5      	cmp	r5, r4
1000e942:	d1f9      	bne.n	1000e938 <read_packet+0x54>
1000e944:	4f10      	ldr	r7, [pc, #64]	@ (1000e988 <read_packet+0xa4>)
1000e946:	683b      	ldr	r3, [r7, #0]
1000e948:	6898      	ldr	r0, [r3, #8]
1000e94a:	f001 fb61 	bl	10010010 <fflush>
1000e94e:	f8bd 1002 	ldrh.w	r1, [sp, #2]
1000e952:	2900      	cmp	r1, #0
1000e954:	d0e8      	beq.n	1000e928 <read_packet+0x44>
1000e956:	b126      	cbz	r6, 1000e962 <read_packet+0x7e>
1000e958:	4630      	mov	r0, r6
1000e95a:	f7ff ff11 	bl	1000e780 <read_bytes>
1000e95e:	2800      	cmp	r0, #0
1000e960:	db0f      	blt.n	1000e982 <read_packet+0x9e>
1000e962:	f244 1325 	movw	r3, #16677	@ 0x4125
1000e966:	9301      	str	r3, [sp, #4]
1000e968:	ac01      	add	r4, sp, #4
1000e96a:	ad02      	add	r5, sp, #8
1000e96c:	f814 0b01 	ldrb.w	r0, [r4], #1
1000e970:	f000 f862 	bl	1000ea38 <uart_writebyte>
1000e974:	42a5      	cmp	r5, r4
1000e976:	d1f9      	bne.n	1000e96c <read_packet+0x88>
1000e978:	683b      	ldr	r3, [r7, #0]
1000e97a:	6898      	ldr	r0, [r3, #8]
1000e97c:	f001 fb48 	bl	10010010 <fflush>
1000e980:	e7d2      	b.n	1000e928 <read_packet+0x44>
1000e982:	f04f 30ff 	mov.w	r0, #4294967295	@ 0xffffffff
1000e986:	e7d0      	b.n	1000e92a <read_packet+0x46>
1000e988:	20000010 	.word	0x20000010

1000e98c <flash_simple_irq>:
1000e98c:	4a09      	ldr	r2, [pc, #36]	@ (1000e9b4 <flash_simple_irq+0x28>)
1000e98e:	6a53      	ldr	r3, [r2, #36]	@ 0x24
1000e990:	07d9      	lsls	r1, r3, #31
1000e992:	d503      	bpl.n	1000e99c <flash_simple_irq+0x10>
1000e994:	6a51      	ldr	r1, [r2, #36]	@ 0x24
1000e996:	f021 0101 	bic.w	r1, r1, #1
1000e99a:	6251      	str	r1, [r2, #36]	@ 0x24
1000e99c:	079b      	lsls	r3, r3, #30
1000e99e:	d400      	bmi.n	1000e9a2 <flash_simple_irq+0x16>
1000e9a0:	4770      	bx	lr
1000e9a2:	4a04      	ldr	r2, [pc, #16]	@ (1000e9b4 <flash_simple_irq+0x28>)
1000e9a4:	4804      	ldr	r0, [pc, #16]	@ (1000e9b8 <flash_simple_irq+0x2c>)
1000e9a6:	6a53      	ldr	r3, [r2, #36]	@ 0x24
1000e9a8:	f023 0302 	bic.w	r3, r3, #2
1000e9ac:	6253      	str	r3, [r2, #36]	@ 0x24
1000e9ae:	f001 becd 	b.w	1001074c <puts>
1000e9b2:	bf00      	nop
1000e9b4:	40029000 	.word	0x40029000
1000e9b8:	10017b94 	.word	0x10017b94

1000e9bc <flash_simple_init>:
1000e9bc:	b508      	push	{r3, lr}
1000e9be:	4908      	ldr	r1, [pc, #32]	@ (1000e9e0 <flash_simple_init+0x24>)
1000e9c0:	2017      	movs	r0, #23
1000e9c2:	f000 fb39 	bl	1000f038 <MXC_NVIC_SetVector>
1000e9c6:	4b07      	ldr	r3, [pc, #28]	@ (1000e9e4 <flash_simple_init+0x28>)
1000e9c8:	f44f 0200 	mov.w	r2, #8388608	@ 0x800000
1000e9cc:	601a      	str	r2, [r3, #0]
1000e9ce:	f44f 7040 	mov.w	r0, #768	@ 0x300
1000e9d2:	f000 fc75 	bl	1000f2c0 <MXC_FLC_EnableInt>
1000e9d6:	e8bd 4008 	ldmia.w	sp!, {r3, lr}
1000e9da:	4803      	ldr	r0, [pc, #12]	@ (1000e9e8 <flash_simple_init+0x2c>)
1000e9dc:	f000 be9c 	b.w	1000f718 <MXC_ICC_Disable>
1000e9e0:	1000e98d 	.word	0x1000e98d
1000e9e4:	e000e100 	.word	0xe000e100
1000e9e8:	4002a000 	.word	0x4002a000

1000e9ec <flash_simple_erase_page>:
1000e9ec:	f009 bb94 	b.w	10018118 <__MXC_FLC_PageErase_veneer>

1000e9f0 <flash_simple_read>:
1000e9f0:	f000 bc64 	b.w	1000f2bc <MXC_FLC_Read>

1000e9f4 <flash_simple_write>:
1000e9f4:	460b      	mov	r3, r1
1000e9f6:	4611      	mov	r1, r2
1000e9f8:	461a      	mov	r2, r3
1000e9fa:	f000 bc5d 	b.w	1000f2b8 <MXC_FLC_Write>
1000e9fe:	bf00      	nop

1000ea00 <uart_init>:
1000ea00:	b510      	push	{r4, lr}
1000ea02:	4808      	ldr	r0, [pc, #32]	@ (1000ea24 <uart_init+0x24>)
1000ea04:	2202      	movs	r2, #2
1000ea06:	f44f 31e1 	mov.w	r1, #115200	@ 0x1c200
1000ea0a:	f000 fedd 	bl	1000f7c8 <MXC_UART_Init>
1000ea0e:	4604      	mov	r4, r0
1000ea10:	b908      	cbnz	r0, 1000ea16 <uart_init+0x16>
1000ea12:	4620      	mov	r0, r4
1000ea14:	bd10      	pop	{r4, pc}
1000ea16:	4621      	mov	r1, r4
1000ea18:	4803      	ldr	r0, [pc, #12]	@ (1000ea28 <uart_init+0x28>)
1000ea1a:	f002 f871 	bl	10010b00 <printf>
1000ea1e:	4620      	mov	r0, r4
1000ea20:	bd10      	pop	{r4, pc}
1000ea22:	bf00      	nop
1000ea24:	40042000 	.word	0x40042000
1000ea28:	10017bbc 	.word	0x10017bbc

1000ea2c <uart_readbyte>:
1000ea2c:	4801      	ldr	r0, [pc, #4]	@ (1000ea34 <uart_readbyte+0x8>)
1000ea2e:	f000 bfc3 	b.w	1000f9b8 <MXC_UART_ReadCharacter>
1000ea32:	bf00      	nop
1000ea34:	40042000 	.word	0x40042000

1000ea38 <uart_writebyte>:
1000ea38:	4a02      	ldr	r2, [pc, #8]	@ (1000ea44 <uart_writebyte+0xc>)
1000ea3a:	6853      	ldr	r3, [r2, #4]
1000ea3c:	061b      	lsls	r3, r3, #24
1000ea3e:	d4fc      	bmi.n	1000ea3a <uart_writebyte+0x2>
1000ea40:	6210      	str	r0, [r2, #32]
1000ea42:	4770      	bx	lr
1000ea44:	40042000 	.word	0x40042000

1000ea48 <GPIO0_IRQHandler>:
1000ea48:	2000      	movs	r0, #0
1000ea4a:	f000 bdbb 	b.w	1000f5c4 <MXC_GPIO_Handler>
1000ea4e:	bf00      	nop

1000ea50 <GPIO1_IRQHandler>:
1000ea50:	2001      	movs	r0, #1
1000ea52:	f000 bdb7 	b.w	1000f5c4 <MXC_GPIO_Handler>
1000ea56:	bf00      	nop

1000ea58 <Board_Init>:
1000ea58:	b510      	push	{r4, lr}
1000ea5a:	2000      	movs	r0, #0
1000ea5c:	f000 fb34 	bl	1000f0c8 <MXC_SYS_ClockEnable>
1000ea60:	2001      	movs	r0, #1
1000ea62:	f000 fb31 	bl	1000f0c8 <MXC_SYS_ClockEnable>
1000ea66:	2040      	movs	r0, #64	@ 0x40
1000ea68:	f000 fb2e 	bl	1000f0c8 <MXC_SYS_ClockEnable>
1000ea6c:	4b0d      	ldr	r3, [pc, #52]	@ (1000eaa4 <Board_Init+0x4c>)
1000ea6e:	2202      	movs	r2, #2
1000ea70:	6818      	ldr	r0, [r3, #0]
1000ea72:	f44f 31e1 	mov.w	r1, #115200	@ 0x1c200
1000ea76:	f000 fea7 	bl	1000f7c8 <MXC_UART_Init>
1000ea7a:	1e04      	subs	r4, r0, #0
1000ea7c:	db03      	blt.n	1000ea86 <Board_Init+0x2e>
1000ea7e:	f000 f8b9 	bl	1000ebf4 <PB_Init>
1000ea82:	4604      	mov	r4, r0
1000ea84:	b108      	cbz	r0, 1000ea8a <Board_Init+0x32>
1000ea86:	4620      	mov	r0, r4
1000ea88:	bd10      	pop	{r4, pc}
1000ea8a:	f000 f87b 	bl	1000eb84 <LED_Init>
1000ea8e:	4604      	mov	r4, r0
1000ea90:	2800      	cmp	r0, #0
1000ea92:	d1f8      	bne.n	1000ea86 <Board_Init+0x2e>
1000ea94:	4b04      	ldr	r3, [pc, #16]	@ (1000eaa8 <Board_Init+0x50>)
1000ea96:	4805      	ldr	r0, [pc, #20]	@ (1000eaac <Board_Init+0x54>)
1000ea98:	2243      	movs	r2, #67	@ 0x43
1000ea9a:	60da      	str	r2, [r3, #12]
1000ea9c:	f000 fa92 	bl	1000efc4 <MXC_Delay>
1000eaa0:	4620      	mov	r0, r4
1000eaa2:	bd10      	pop	{r4, pc}
1000eaa4:	20000000 	.word	0x20000000
1000eaa8:	40004400 	.word	0x40004400
1000eaac:	00030d40 	.word	0x00030d40

1000eab0 <NMI_Handler>:
1000eab0:	bf00      	nop
1000eab2:	4770      	bx	lr

1000eab4 <_close>:
1000eab4:	f04f 30ff 	mov.w	r0, #4294967295	@ 0xffffffff
1000eab8:	4770      	bx	lr
1000eaba:	bf00      	nop

1000eabc <_isatty>:
1000eabc:	f04f 30ff 	mov.w	r0, #4294967295	@ 0xffffffff
1000eac0:	4770      	bx	lr
1000eac2:	bf00      	nop

1000eac4 <_lseek>:
1000eac4:	f04f 30ff 	mov.w	r0, #4294967295	@ 0xffffffff
1000eac8:	4770      	bx	lr
1000eaca:	bf00      	nop

1000eacc <_fstat>:
1000eacc:	f04f 30ff 	mov.w	r0, #4294967295	@ 0xffffffff
1000ead0:	4770      	bx	lr
1000ead2:	bf00      	nop

1000ead4 <_read>:
1000ead4:	e92d 41f0 	stmdb	sp!, {r4, r5, r6, r7, r8, lr}
1000ead8:	bb00      	cbnz	r0, 1000eb1c <_read+0x48>
1000eada:	2a00      	cmp	r2, #0
1000eadc:	4617      	mov	r7, r2
1000eade:	4605      	mov	r5, r0
1000eae0:	dd17      	ble.n	1000eb12 <_read+0x3e>
1000eae2:	4e12      	ldr	r6, [pc, #72]	@ (1000eb2c <_read+0x58>)
1000eae4:	460c      	mov	r4, r1
1000eae6:	e001      	b.n	1000eaec <_read+0x18>
1000eae8:	42af      	cmp	r7, r5
1000eaea:	d014      	beq.n	1000eb16 <_read+0x42>
1000eaec:	4630      	mov	r0, r6
1000eaee:	f000 ff63 	bl	1000f9b8 <MXC_UART_ReadCharacter>
1000eaf2:	b2c1      	uxtb	r1, r0
1000eaf4:	7021      	strb	r1, [r4, #0]
1000eaf6:	4630      	mov	r0, r6
1000eaf8:	f000 ff60 	bl	1000f9bc <MXC_UART_WriteCharacter>
1000eafc:	46a0      	mov	r8, r4
1000eafe:	f814 3b01 	ldrb.w	r3, [r4], #1
1000eb02:	2b0d      	cmp	r3, #13
1000eb04:	f105 0501 	add.w	r5, r5, #1
1000eb08:	d1ee      	bne.n	1000eae8 <_read+0x14>
1000eb0a:	230a      	movs	r3, #10
1000eb0c:	f888 3000 	strb.w	r3, [r8]
1000eb10:	4628      	mov	r0, r5
1000eb12:	e8bd 81f0 	ldmia.w	sp!, {r4, r5, r6, r7, r8, pc}
1000eb16:	4638      	mov	r0, r7
1000eb18:	e8bd 81f0 	ldmia.w	sp!, {r4, r5, r6, r7, r8, pc}
1000eb1c:	f001 fa9c 	bl	10010058 <__errno>
1000eb20:	2309      	movs	r3, #9
1000eb22:	6003      	str	r3, [r0, #0]
1000eb24:	f04f 30ff 	mov.w	r0, #4294967295	@ 0xffffffff
1000eb28:	e7f3      	b.n	1000eb12 <_read+0x3e>
1000eb2a:	bf00      	nop
1000eb2c:	40042000 	.word	0x40042000

1000eb30 <_write>:
1000eb30:	b5f8      	push	{r3, r4, r5, r6, r7, lr}
1000eb32:	1e43      	subs	r3, r0, #1
1000eb34:	2b01      	cmp	r3, #1
1000eb36:	d81c      	bhi.n	1000eb72 <_write+0x42>
1000eb38:	2a00      	cmp	r2, #0
1000eb3a:	4617      	mov	r7, r2
1000eb3c:	dd17      	ble.n	1000eb6e <_write+0x3e>
1000eb3e:	1e53      	subs	r3, r2, #1
1000eb40:	4e0f      	ldr	r6, [pc, #60]	@ (1000eb80 <_write+0x50>)
1000eb42:	1e4c      	subs	r4, r1, #1
1000eb44:	18cd      	adds	r5, r1, r3
1000eb46:	e004      	b.n	1000eb52 <_write+0x22>
1000eb48:	4630      	mov	r0, r6
1000eb4a:	f000 ff37 	bl	1000f9bc <MXC_UART_WriteCharacter>
1000eb4e:	42ac      	cmp	r4, r5
1000eb50:	d00d      	beq.n	1000eb6e <_write+0x3e>
1000eb52:	f814 1f01 	ldrb.w	r1, [r4, #1]!
1000eb56:	290a      	cmp	r1, #10
1000eb58:	d1f6      	bne.n	1000eb48 <_write+0x18>
1000eb5a:	210d      	movs	r1, #13
1000eb5c:	4630      	mov	r0, r6
1000eb5e:	f000 ff2d 	bl	1000f9bc <MXC_UART_WriteCharacter>
1000eb62:	7821      	ldrb	r1, [r4, #0]
1000eb64:	4630      	mov	r0, r6
1000eb66:	f000 ff29 	bl	1000f9bc <MXC_UART_WriteCharacter>
1000eb6a:	42ac      	cmp	r4, r5
1000eb6c:	d1f1      	bne.n	1000eb52 <_write+0x22>
1000eb6e:	4638      	mov	r0, r7
1000eb70:	bdf8      	pop	{r3, r4, r5, r6, r7, pc}
1000eb72:	f001 fa71 	bl	10010058 <__errno>
1000eb76:	2309      	movs	r3, #9
1000eb78:	6003      	str	r3, [r0, #0]
1000eb7a:	f04f 30ff 	mov.w	r0, #4294967295	@ 0xffffffff
1000eb7e:	bdf8      	pop	{r3, r4, r5, r6, r7, pc}
1000eb80:	40042000 	.word	0x40042000

1000eb84 <LED_Init>:
1000eb84:	b5f8      	push	{r3, r4, r5, r6, r7, lr}
1000eb86:	4b0d      	ldr	r3, [pc, #52]	@ (1000ebbc <LED_Init+0x38>)
1000eb88:	681f      	ldr	r7, [r3, #0]
1000eb8a:	b1a7      	cbz	r7, 1000ebb6 <LED_Init+0x32>
1000eb8c:	2500      	movs	r5, #0
1000eb8e:	4c0c      	ldr	r4, [pc, #48]	@ (1000ebc0 <LED_Init+0x3c>)
1000eb90:	462e      	mov	r6, r5
1000eb92:	e9d4 0100 	ldrd	r0, r1, [r4]
1000eb96:	f000 fce7 	bl	1000f568 <MXC_GPIO_OutSet>
1000eb9a:	4620      	mov	r0, r4
1000eb9c:	f000 fbc2 	bl	1000f324 <MXC_GPIO_Config>
1000eba0:	3501      	adds	r5, #1
1000eba2:	2800      	cmp	r0, #0
1000eba4:	bf18      	it	ne
1000eba6:	f06f 0607 	mvnne.w	r6, #7
1000ebaa:	42bd      	cmp	r5, r7
1000ebac:	f104 040c 	add.w	r4, r4, #12
1000ebb0:	d1ef      	bne.n	1000eb92 <LED_Init+0xe>
1000ebb2:	4630      	mov	r0, r6
1000ebb4:	bdf8      	pop	{r3, r4, r5, r6, r7, pc}
1000ebb6:	463e      	mov	r6, r7
1000ebb8:	4630      	mov	r0, r6
1000ebba:	bdf8      	pop	{r3, r4, r5, r6, r7, pc}
1000ebbc:	10017dd0 	.word	0x10017dd0
1000ebc0:	10017dd4 	.word	0x10017dd4

1000ebc4 <LED_On>:
1000ebc4:	4b04      	ldr	r3, [pc, #16]	@ (1000ebd8 <LED_On+0x14>)
1000ebc6:	eb00 0040 	add.w	r0, r0, r0, lsl #1
1000ebca:	eb03 0280 	add.w	r2, r3, r0, lsl #2
1000ebce:	f853 0020 	ldr.w	r0, [r3, r0, lsl #2]
1000ebd2:	6851      	ldr	r1, [r2, #4]
1000ebd4:	f000 bcde 	b.w	1000f594 <MXC_GPIO_OutClr>
1000ebd8:	10017dd4 	.word	0x10017dd4

1000ebdc <LED_Off>:
1000ebdc:	4b04      	ldr	r3, [pc, #16]	@ (1000ebf0 <LED_Off+0x14>)
1000ebde:	eb00 0040 	add.w	r0, r0, r0, lsl #1
1000ebe2:	eb03 0280 	add.w	r2, r3, r0, lsl #2
1000ebe6:	f853 0020 	ldr.w	r0, [r3, r0, lsl #2]
1000ebea:	6851      	ldr	r1, [r2, #4]
1000ebec:	f000 bcbc 	b.w	1000f568 <MXC_GPIO_OutSet>
1000ebf0:	10017dd4 	.word	0x10017dd4

1000ebf4 <PB_Init>:
1000ebf4:	b5f8      	push	{r3, r4, r5, r6, r7, lr}
1000ebf6:	4b0b      	ldr	r3, [pc, #44]	@ (1000ec24 <PB_Init+0x30>)
1000ebf8:	681f      	ldr	r7, [r3, #0]
1000ebfa:	b187      	cbz	r7, 1000ec1e <PB_Init+0x2a>
1000ebfc:	2400      	movs	r4, #0
1000ebfe:	4d0a      	ldr	r5, [pc, #40]	@ (1000ec28 <PB_Init+0x34>)
1000ec00:	4626      	mov	r6, r4
1000ec02:	4628      	mov	r0, r5
1000ec04:	f000 fb8e 	bl	1000f324 <MXC_GPIO_Config>
1000ec08:	3401      	adds	r4, #1
1000ec0a:	2800      	cmp	r0, #0
1000ec0c:	bf18      	it	ne
1000ec0e:	f06f 0607 	mvnne.w	r6, #7
1000ec12:	42bc      	cmp	r4, r7
1000ec14:	f105 050c 	add.w	r5, r5, #12
1000ec18:	d1f3      	bne.n	1000ec02 <PB_Init+0xe>
1000ec1a:	4630      	mov	r0, r6
1000ec1c:	bdf8      	pop	{r3, r4, r5, r6, r7, pc}
1000ec1e:	463e      	mov	r6, r7
1000ec20:	4630      	mov	r0, r6
1000ec22:	bdf8      	pop	{r3, r4, r5, r6, r7, pc}
1000ec24:	10017df8 	.word	0x10017df8
1000ec28:	10017dfc 	.word	0x10017dfc

1000ec2c <Reset_Handler>:
1000ec2c:	4847      	ldr	r0, [pc, #284]	@ (1000ed4c <LPCMP_IRQHandler+0x2>)
1000ec2e:	4685      	mov	sp, r0
1000ec30:	4847      	ldr	r0, [pc, #284]	@ (1000ed50 <LPCMP_IRQHandler+0x6>)
1000ec32:	4780      	blx	r0
1000ec34:	b980      	cbnz	r0, 1000ec58 <.SKIPRAMINIT>
1000ec36:	4947      	ldr	r1, [pc, #284]	@ (1000ed54 <LPCMP_IRQHandler+0xa>)
1000ec38:	4a47      	ldr	r2, [pc, #284]	@ (1000ed58 <LPCMP_IRQHandler+0xe>)
1000ec3a:	4b48      	ldr	r3, [pc, #288]	@ (1000ed5c <LPCMP_IRQHandler+0x12>)
1000ec3c:	1a9b      	subs	r3, r3, r2
1000ec3e:	dd03      	ble.n	1000ec48 <Reset_Handler+0x1c>
1000ec40:	3b04      	subs	r3, #4
1000ec42:	58c8      	ldr	r0, [r1, r3]
1000ec44:	50d0      	str	r0, [r2, r3]
1000ec46:	dcfb      	bgt.n	1000ec40 <Reset_Handler+0x14>
1000ec48:	4945      	ldr	r1, [pc, #276]	@ (1000ed60 <LPCMP_IRQHandler+0x16>)
1000ec4a:	4a46      	ldr	r2, [pc, #280]	@ (1000ed64 <LPCMP_IRQHandler+0x1a>)
1000ec4c:	2000      	movs	r0, #0
1000ec4e:	4291      	cmp	r1, r2
1000ec50:	bfbc      	itt	lt
1000ec52:	f841 0b04 	strlt.w	r0, [r1], #4
1000ec56:	e7fa      	blt.n	1000ec4e <Reset_Handler+0x22>

1000ec58 <.SKIPRAMINIT>:
1000ec58:	4843      	ldr	r0, [pc, #268]	@ (1000ed68 <LPCMP_IRQHandler+0x1e>)
1000ec5a:	4780      	blx	r0
1000ec5c:	4843      	ldr	r0, [pc, #268]	@ (1000ed6c <LPCMP_IRQHandler+0x22>)
1000ec5e:	4780      	blx	r0
1000ec60:	4843      	ldr	r0, [pc, #268]	@ (1000ed70 <LPCMP_IRQHandler+0x26>)
1000ec62:	4780      	blx	r0

1000ec64 <.SPIN>:
1000ec64:	f7ff fffe 	bl	1000ec64 <.SPIN>
1000ec68:	e7fe      	b.n	1000ec68 <.SPIN+0x4>

1000ec6a <HardFault_Handler>:
1000ec6a:	e7fe      	b.n	1000ec6a <HardFault_Handler>

1000ec6c <MemManage_Handler>:
1000ec6c:	e7fe      	b.n	1000ec6c <MemManage_Handler>

1000ec6e <BusFault_Handler>:
1000ec6e:	e7fe      	b.n	1000ec6e <BusFault_Handler>

1000ec70 <UsageFault_Handler>:
1000ec70:	e7fe      	b.n	1000ec70 <UsageFault_Handler>

1000ec72 <SVC_Handler>:
1000ec72:	e7fe      	b.n	1000ec72 <SVC_Handler>

1000ec74 <DebugMon_Handler>:
1000ec74:	e7fe      	b.n	1000ec74 <DebugMon_Handler>

1000ec76 <PendSV_Handler>:
1000ec76:	e7fe      	b.n	1000ec76 <PendSV_Handler>

1000ec78 <SysTick_Handler>:
1000ec78:	e7fe      	b.n	1000ec78 <SysTick_Handler>

1000ec7a <Default_Handler>:
1000ec7a:	e7fe      	b.n	1000ec7a <Default_Handler>

1000ec7c <PF_IRQHandler>:
1000ec7c:	e7fe      	b.n	1000ec7c <PF_IRQHandler>

1000ec7e <WDT0_IRQHandler>:
1000ec7e:	e7fe      	b.n	1000ec7e <WDT0_IRQHandler>

1000ec80 <RSV02_IRQHandler>:
1000ec80:	e7fe      	b.n	1000ec80 <RSV02_IRQHandler>

1000ec82 <RTC_IRQHandler>:
1000ec82:	e7fe      	b.n	1000ec82 <RTC_IRQHandler>

1000ec84 <TRNG_IRQHandler>:
1000ec84:	e7fe      	b.n	1000ec84 <TRNG_IRQHandler>

1000ec86 <TMR0_IRQHandler>:
1000ec86:	e7fe      	b.n	1000ec86 <TMR0_IRQHandler>

1000ec88 <TMR1_IRQHandler>:
1000ec88:	e7fe      	b.n	1000ec88 <TMR1_IRQHandler>

1000ec8a <TMR2_IRQHandler>:
1000ec8a:	e7fe      	b.n	1000ec8a <TMR2_IRQHandler>

1000ec8c <TMR3_IRQHandler>:
1000ec8c:	e7fe      	b.n	1000ec8c <TMR3_IRQHandler>

1000ec8e <TMR4_IRQHandler>:
1000ec8e:	e7fe      	b.n	1000ec8e <TMR4_IRQHandler>

1000ec90 <TMR5_IRQHandler>:
1000ec90:	e7fe      	b.n	1000ec90 <TMR5_IRQHandler>

1000ec92 <RSV11_IRQHandler>:
1000ec92:	e7fe      	b.n	1000ec92 <RSV11_IRQHandler>

1000ec94 <RSV12_IRQHandler>:
1000ec94:	e7fe      	b.n	1000ec94 <RSV12_IRQHandler>

1000ec96 <I2C0_IRQHandler>:
1000ec96:	e7fe      	b.n	1000ec96 <I2C0_IRQHandler>

1000ec98 <UART0_IRQHandler>:
1000ec98:	e7fe      	b.n	1000ec98 <UART0_IRQHandler>

1000ec9a <UART1_IRQHandler>:
1000ec9a:	e7fe      	b.n	1000ec9a <UART1_IRQHandler>

1000ec9c <SPI1_IRQHandler>:
1000ec9c:	e7fe      	b.n	1000ec9c <SPI1_IRQHandler>

1000ec9e <RSV17_IRQHandler>:
1000ec9e:	e7fe      	b.n	1000ec9e <RSV17_IRQHandler>

1000eca0 <RSV18_IRQHandler>:
1000eca0:	e7fe      	b.n	1000eca0 <RSV18_IRQHandler>

1000eca2 <RSV19_IRQHandler>:
1000eca2:	e7fe      	b.n	1000eca2 <RSV19_IRQHandler>

1000eca4 <ADC_IRQHandler>:
1000eca4:	e7fe      	b.n	1000eca4 <ADC_IRQHandler>

1000eca6 <RSV21_IRQHandler>:
1000eca6:	e7fe      	b.n	1000eca6 <RSV21_IRQHandler>

1000eca8 <RSV22_IRQHandler>:
1000eca8:	e7fe      	b.n	1000eca8 <RSV22_IRQHandler>

1000ecaa <FLC0_IRQHandler>:
1000ecaa:	e7fe      	b.n	1000ecaa <FLC0_IRQHandler>
1000ecac:	e7fe      	b.n	1000ecac <FLC0_IRQHandler+0x2>
1000ecae:	e7fe      	b.n	1000ecae <FLC0_IRQHandler+0x4>

1000ecb0 <GPIO2_IRQHandler>:
1000ecb0:	e7fe      	b.n	1000ecb0 <GPIO2_IRQHandler>

1000ecb2 <RSV27_IRQHandler>:
1000ecb2:	e7fe      	b.n	1000ecb2 <RSV27_IRQHandler>

1000ecb4 <DMA0_IRQHandler>:
1000ecb4:	e7fe      	b.n	1000ecb4 <DMA0_IRQHandler>

1000ecb6 <DMA1_IRQHandler>:
1000ecb6:	e7fe      	b.n	1000ecb6 <DMA1_IRQHandler>

1000ecb8 <DMA2_IRQHandler>:
1000ecb8:	e7fe      	b.n	1000ecb8 <DMA2_IRQHandler>

1000ecba <DMA3_IRQHandler>:
1000ecba:	e7fe      	b.n	1000ecba <DMA3_IRQHandler>

1000ecbc <RSV32_IRQHandler>:
1000ecbc:	e7fe      	b.n	1000ecbc <RSV32_IRQHandler>

1000ecbe <RSV33_IRQHandler>:
1000ecbe:	e7fe      	b.n	1000ecbe <RSV33_IRQHandler>

1000ecc0 <UART2_IRQHandler>:
1000ecc0:	e7fe      	b.n	1000ecc0 <UART2_IRQHandler>

1000ecc2 <RSV35_IRQHandler>:
1000ecc2:	e7fe      	b.n	1000ecc2 <RSV35_IRQHandler>

1000ecc4 <I2C1_IRQHandler>:
1000ecc4:	e7fe      	b.n	1000ecc4 <I2C1_IRQHandler>

1000ecc6 <RSV37_IRQHandler>:
1000ecc6:	e7fe      	b.n	1000ecc6 <RSV37_IRQHandler>

1000ecc8 <RSV38_IRQHandler>:
1000ecc8:	e7fe      	b.n	1000ecc8 <RSV38_IRQHandler>

1000ecca <RSV39_IRQHandler>:
1000ecca:	e7fe      	b.n	1000ecca <RSV39_IRQHandler>

1000eccc <RSV40_IRQHandler>:
1000eccc:	e7fe      	b.n	1000eccc <RSV40_IRQHandler>

1000ecce <RSV41_IRQHandler>:
1000ecce:	e7fe      	b.n	1000ecce <RSV41_IRQHandler>

1000ecd0 <RSV42_IRQHandler>:
1000ecd0:	e7fe      	b.n	1000ecd0 <RSV42_IRQHandler>

1000ecd2 <RSV43_IRQHandler>:
1000ecd2:	e7fe      	b.n	1000ecd2 <RSV43_IRQHandler>

1000ecd4 <RSV44_IRQHandler>:
1000ecd4:	e7fe      	b.n	1000ecd4 <RSV44_IRQHandler>

1000ecd6 <RSV45_IRQHandler>:
1000ecd6:	e7fe      	b.n	1000ecd6 <RSV45_IRQHandler>

1000ecd8 <RSV46_IRQHandler>:
1000ecd8:	e7fe      	b.n	1000ecd8 <RSV46_IRQHandler>

1000ecda <RSV47_IRQHandler>:
1000ecda:	e7fe      	b.n	1000ecda <RSV47_IRQHandler>

1000ecdc <RSV48_IRQHandler>:
1000ecdc:	e7fe      	b.n	1000ecdc <RSV48_IRQHandler>

1000ecde <RSV49_IRQHandler>:
1000ecde:	e7fe      	b.n	1000ecde <RSV49_IRQHandler>

1000ece0 <RSV50_IRQHandler>:
1000ece0:	e7fe      	b.n	1000ece0 <RSV50_IRQHandler>

1000ece2 <RSV51_IRQHandler>:
1000ece2:	e7fe      	b.n	1000ece2 <RSV51_IRQHandler>

1000ece4 <RSV52_IRQHandler>:
1000ece4:	e7fe      	b.n	1000ece4 <RSV52_IRQHandler>

1000ece6 <WUT_IRQHandler>:
1000ece6:	e7fe      	b.n	1000ece6 <WUT_IRQHandler>

1000ece8 <GPIOWAKE_IRQHandler>:
1000ece8:	e7fe      	b.n	1000ece8 <GPIOWAKE_IRQHandler>

1000ecea <RSV55_IRQHandler>:
1000ecea:	e7fe      	b.n	1000ecea <RSV55_IRQHandler>

1000ecec <SPI0_IRQHandler>:
1000ecec:	e7fe      	b.n	1000ecec <SPI0_IRQHandler>

1000ecee <WDT1_IRQHandler>:
1000ecee:	e7fe      	b.n	1000ecee <WDT1_IRQHandler>

1000ecf0 <RSV58_IRQHandler>:
1000ecf0:	e7fe      	b.n	1000ecf0 <RSV58_IRQHandler>

1000ecf2 <PT_IRQHandler>:
1000ecf2:	e7fe      	b.n	1000ecf2 <PT_IRQHandler>

1000ecf4 <RSV60_IRQHandler>:
1000ecf4:	e7fe      	b.n	1000ecf4 <RSV60_IRQHandler>

1000ecf6 <RSV61_IRQHandler>:
1000ecf6:	e7fe      	b.n	1000ecf6 <RSV61_IRQHandler>

1000ecf8 <I2C2_IRQHandler>:
1000ecf8:	e7fe      	b.n	1000ecf8 <I2C2_IRQHandler>

1000ecfa <RISCV_IRQHandler>:
1000ecfa:	e7fe      	b.n	1000ecfa <RISCV_IRQHandler>

1000ecfc <RSV64_IRQHandler>:
1000ecfc:	e7fe      	b.n	1000ecfc <RSV64_IRQHandler>

1000ecfe <RSV65_IRQHandler>:
1000ecfe:	e7fe      	b.n	1000ecfe <RSV65_IRQHandler>

1000ed00 <RSV66_IRQHandler>:
1000ed00:	e7fe      	b.n	1000ed00 <RSV66_IRQHandler>

1000ed02 <OWM_IRQHandler>:
1000ed02:	e7fe      	b.n	1000ed02 <OWM_IRQHandler>

1000ed04 <RSV68_IRQHandler>:
1000ed04:	e7fe      	b.n	1000ed04 <RSV68_IRQHandler>

1000ed06 <RSV69_IRQHandler>:
1000ed06:	e7fe      	b.n	1000ed06 <RSV69_IRQHandler>

1000ed08 <RSV70_IRQHandler>:
1000ed08:	e7fe      	b.n	1000ed08 <RSV70_IRQHandler>

1000ed0a <RSV71_IRQHandler>:
1000ed0a:	e7fe      	b.n	1000ed0a <RSV71_IRQHandler>

1000ed0c <RSV72_IRQHandler>:
1000ed0c:	e7fe      	b.n	1000ed0c <RSV72_IRQHandler>

1000ed0e <RSV73_IRQHandler>:
1000ed0e:	e7fe      	b.n	1000ed0e <RSV73_IRQHandler>

1000ed10 <RSV74_IRQHandler>:
1000ed10:	e7fe      	b.n	1000ed10 <RSV74_IRQHandler>

1000ed12 <RSV75_IRQHandler>:
1000ed12:	e7fe      	b.n	1000ed12 <RSV75_IRQHandler>

1000ed14 <RSV76_IRQHandler>:
1000ed14:	e7fe      	b.n	1000ed14 <RSV76_IRQHandler>

1000ed16 <RSV77_IRQHandler>:
1000ed16:	e7fe      	b.n	1000ed16 <RSV77_IRQHandler>

1000ed18 <RSV78_IRQHandler>:
1000ed18:	e7fe      	b.n	1000ed18 <RSV78_IRQHandler>

1000ed1a <RSV79_IRQHandler>:
1000ed1a:	e7fe      	b.n	1000ed1a <RSV79_IRQHandler>

1000ed1c <RSV80_IRQHandler>:
1000ed1c:	e7fe      	b.n	1000ed1c <RSV80_IRQHandler>

1000ed1e <RSV81_IRQHandler>:
1000ed1e:	e7fe      	b.n	1000ed1e <RSV81_IRQHandler>

1000ed20 <ECC_IRQHandler>:
1000ed20:	e7fe      	b.n	1000ed20 <ECC_IRQHandler>

1000ed22 <DVS_IRQHandler>:
1000ed22:	e7fe      	b.n	1000ed22 <DVS_IRQHandler>

1000ed24 <SIMO_IRQHandler>:
1000ed24:	e7fe      	b.n	1000ed24 <SIMO_IRQHandler>

1000ed26 <RSV85_IRQHandler>:
1000ed26:	e7fe      	b.n	1000ed26 <RSV85_IRQHandler>

1000ed28 <RSV86_IRQHandler>:
1000ed28:	e7fe      	b.n	1000ed28 <RSV86_IRQHandler>

1000ed2a <RSV87_IRQHandler>:
1000ed2a:	e7fe      	b.n	1000ed2a <RSV87_IRQHandler>

1000ed2c <UART3_IRQHandler>:
1000ed2c:	e7fe      	b.n	1000ed2c <UART3_IRQHandler>

1000ed2e <RSV89_IRQHandler>:
1000ed2e:	e7fe      	b.n	1000ed2e <RSV89_IRQHandler>

1000ed30 <RSV90_IRQHandler>:
1000ed30:	e7fe      	b.n	1000ed30 <RSV90_IRQHandler>

1000ed32 <PCIF_IRQHandler>:
1000ed32:	e7fe      	b.n	1000ed32 <PCIF_IRQHandler>

1000ed34 <RSV92_IRQHandler>:
1000ed34:	e7fe      	b.n	1000ed34 <RSV92_IRQHandler>

1000ed36 <RSV93_IRQHandler>:
1000ed36:	e7fe      	b.n	1000ed36 <RSV93_IRQHandler>

1000ed38 <RSV94_IRQHandler>:
1000ed38:	e7fe      	b.n	1000ed38 <RSV94_IRQHandler>

1000ed3a <RSV95_IRQHandler>:
1000ed3a:	e7fe      	b.n	1000ed3a <RSV95_IRQHandler>

1000ed3c <RSV96_IRQHandler>:
1000ed3c:	e7fe      	b.n	1000ed3c <RSV96_IRQHandler>

1000ed3e <AES_IRQHandler>:
1000ed3e:	e7fe      	b.n	1000ed3e <AES_IRQHandler>

1000ed40 <RSV98_IRQHandler>:
1000ed40:	e7fe      	b.n	1000ed40 <RSV98_IRQHandler>

1000ed42 <I2S_IRQHandler>:
1000ed42:	e7fe      	b.n	1000ed42 <I2S_IRQHandler>

1000ed44 <CNN_FIFO_IRQHandler>:
1000ed44:	e7fe      	b.n	1000ed44 <CNN_FIFO_IRQHandler>

1000ed46 <CNN_IRQHandler>:
1000ed46:	e7fe      	b.n	1000ed46 <CNN_IRQHandler>

1000ed48 <RSV102_IRQHandler>:
1000ed48:	e7fe      	b.n	1000ed48 <RSV102_IRQHandler>

1000ed4a <LPCMP_IRQHandler>:
1000ed4a:	e7fe      	b.n	1000ed4a <LPCMP_IRQHandler>
1000ed4c:	20020000 	.word	0x20020000
1000ed50:	1000ee2d 	.word	0x1000ee2d
1000ed54:	100181e8 	.word	0x100181e8
1000ed58:	20000000 	.word	0x20000000
1000ed5c:	20000bc4 	.word	0x20000bc4
1000ed60:	20000c00 	.word	0x20000c00
1000ed64:	2000173c 	.word	0x2000173c
1000ed68:	1000ee31 	.word	0x1000ee31
1000ed6c:	10010465 	.word	0x10010465
1000ed70:	1000e635 	.word	0x1000e635

1000ed74 <_sbrk>:
1000ed74:	4a0b      	ldr	r2, [pc, #44]	@ (1000eda4 <_sbrk+0x30>)
1000ed76:	b508      	push	{r3, lr}
1000ed78:	4603      	mov	r3, r0
1000ed7a:	6810      	ldr	r0, [r2, #0]
1000ed7c:	b128      	cbz	r0, 1000ed8a <_sbrk+0x16>
1000ed7e:	490a      	ldr	r1, [pc, #40]	@ (1000eda8 <_sbrk+0x34>)
1000ed80:	4403      	add	r3, r0
1000ed82:	428b      	cmp	r3, r1
1000ed84:	d807      	bhi.n	1000ed96 <_sbrk+0x22>
1000ed86:	6013      	str	r3, [r2, #0]
1000ed88:	bd08      	pop	{r3, pc}
1000ed8a:	4808      	ldr	r0, [pc, #32]	@ (1000edac <_sbrk+0x38>)
1000ed8c:	4906      	ldr	r1, [pc, #24]	@ (1000eda8 <_sbrk+0x34>)
1000ed8e:	6010      	str	r0, [r2, #0]
1000ed90:	4403      	add	r3, r0
1000ed92:	428b      	cmp	r3, r1
1000ed94:	d9f7      	bls.n	1000ed86 <_sbrk+0x12>
1000ed96:	f001 f95f 	bl	10010058 <__errno>
1000ed9a:	230c      	movs	r3, #12
1000ed9c:	6003      	str	r3, [r0, #0]
1000ed9e:	f04f 30ff 	mov.w	r0, #4294967295	@ 0xffffffff
1000eda2:	bd08      	pop	{r3, pc}
1000eda4:	20000ce8 	.word	0x20000ce8
1000eda8:	2001f000 	.word	0x2001f000
1000edac:	20001740 	.word	0x20001740

1000edb0 <_getpid>:
1000edb0:	f06f 0010 	mvn.w	r0, #16
1000edb4:	4770      	bx	lr
1000edb6:	bf00      	nop

1000edb8 <_kill>:
1000edb8:	f06f 0010 	mvn.w	r0, #16
1000edbc:	4770      	bx	lr
1000edbe:	bf00      	nop

1000edc0 <SystemCoreClockUpdate>:
1000edc0:	f04f 4380 	mov.w	r3, #1073741824	@ 0x40000000
1000edc4:	689b      	ldr	r3, [r3, #8]
1000edc6:	f403 6360 	and.w	r3, r3, #3584	@ 0xe00
1000edca:	f5b3 6f20 	cmp.w	r3, #2560	@ 0xa00
1000edce:	d01f      	beq.n	1000ee10 <SystemCoreClockUpdate+0x50>
1000edd0:	d912      	bls.n	1000edf8 <SystemCoreClockUpdate+0x38>
1000edd2:	f5b3 6f40 	cmp.w	r3, #3072	@ 0xc00
1000edd6:	d018      	beq.n	1000ee0a <SystemCoreClockUpdate+0x4a>
1000edd8:	4a10      	ldr	r2, [pc, #64]	@ (1000ee1c <SystemCoreClockUpdate+0x5c>)
1000edda:	4911      	ldr	r1, [pc, #68]	@ (1000ee20 <SystemCoreClockUpdate+0x60>)
1000eddc:	f5b3 6f60 	cmp.w	r3, #3584	@ 0xe00
1000ede0:	bf08      	it	eq
1000ede2:	460a      	moveq	r2, r1
1000ede4:	f04f 4380 	mov.w	r3, #1073741824	@ 0x40000000
1000ede8:	490e      	ldr	r1, [pc, #56]	@ (1000ee24 <SystemCoreClockUpdate+0x64>)
1000edea:	689b      	ldr	r3, [r3, #8]
1000edec:	f3c3 1382 	ubfx	r3, r3, #6, #3
1000edf0:	fa22 f303 	lsr.w	r3, r2, r3
1000edf4:	600b      	str	r3, [r1, #0]
1000edf6:	4770      	bx	lr
1000edf8:	b16b      	cbz	r3, 1000ee16 <SystemCoreClockUpdate+0x56>
1000edfa:	4908      	ldr	r1, [pc, #32]	@ (1000ee1c <SystemCoreClockUpdate+0x5c>)
1000edfc:	f247 5230 	movw	r2, #30000	@ 0x7530
1000ee00:	f5b3 6fc0 	cmp.w	r3, #1536	@ 0x600
1000ee04:	bf18      	it	ne
1000ee06:	460a      	movne	r2, r1
1000ee08:	e7ec      	b.n	1000ede4 <SystemCoreClockUpdate+0x24>
1000ee0a:	f44f 4200 	mov.w	r2, #32768	@ 0x8000
1000ee0e:	e7e9      	b.n	1000ede4 <SystemCoreClockUpdate+0x24>
1000ee10:	f44f 02e1 	mov.w	r2, #7372800	@ 0x708000
1000ee14:	e7e6      	b.n	1000ede4 <SystemCoreClockUpdate+0x24>
1000ee16:	4a04      	ldr	r2, [pc, #16]	@ (1000ee28 <SystemCoreClockUpdate+0x68>)
1000ee18:	e7e4      	b.n	1000ede4 <SystemCoreClockUpdate+0x24>
1000ee1a:	bf00      	nop
1000ee1c:	05f5e100 	.word	0x05f5e100
1000ee20:	047868c0 	.word	0x047868c0
1000ee24:	2000173c 	.word	0x2000173c
1000ee28:	03938700 	.word	0x03938700

1000ee2c <PreInit>:
1000ee2c:	2000      	movs	r0, #0
1000ee2e:	4770      	bx	lr

1000ee30 <SystemInit>:
1000ee30:	b510      	push	{r4, lr}
1000ee32:	4c0a      	ldr	r4, [pc, #40]	@ (1000ee5c <SystemInit+0x2c>)
1000ee34:	4b0a      	ldr	r3, [pc, #40]	@ (1000ee60 <SystemInit+0x30>)
1000ee36:	60a3      	str	r3, [r4, #8]
1000ee38:	480a      	ldr	r0, [pc, #40]	@ (1000ee64 <SystemInit+0x34>)
1000ee3a:	f000 fc6b 	bl	1000f714 <MXC_ICC_Enable>
1000ee3e:	f8d4 3088 	ldr.w	r3, [r4, #136]	@ 0x88
1000ee42:	f443 0370 	orr.w	r3, r3, #15728640	@ 0xf00000
1000ee46:	f8c4 3088 	str.w	r3, [r4, #136]	@ 0x88
1000ee4a:	f3bf 8f4f 	dsb	sy
1000ee4e:	f3bf 8f6f 	isb	sy
1000ee52:	f7ff ffb5 	bl	1000edc0 <SystemCoreClockUpdate>
1000ee56:	f7ff fdff 	bl	1000ea58 <Board_Init>
1000ee5a:	bd10      	pop	{r4, pc}
1000ee5c:	e000ed00 	.word	0xe000ed00
1000ee60:	1000e000 	.word	0x1000e000
1000ee64:	4002a000 	.word	0x4002a000

1000ee68 <MXC_DelayInit>:
    }
}

/* ************************************************************************** */
static void MXC_DelayInit(uint32_t us)
{
1000ee68:	b538      	push	{r3, r4, r5, lr}
    uint32_t starttick, reload, ticks, lastticks;

    // Record the current tick value and clear the overflow flag
    starttick = SysTick->VAL;
1000ee6a:	f04f 23e0 	mov.w	r3, #3758153728	@ 0xe000e000

    // Save the state of control register (and clear the overflow flag)
    ctrl_save = SysTick->CTRL & ~SysTick_CTRL_COUNTFLAG_Msk;
1000ee6e:	4918      	ldr	r1, [pc, #96]	@ (1000eed0 <MXC_DelayInit+0x68>)
    starttick = SysTick->VAL;
1000ee70:	699c      	ldr	r4, [r3, #24]
    ctrl_save = SysTick->CTRL & ~SysTick_CTRL_COUNTFLAG_Msk;
1000ee72:	691a      	ldr	r2, [r3, #16]
1000ee74:	f422 3280 	bic.w	r2, r2, #65536	@ 0x10000
1000ee78:	600a      	str	r2, [r1, #0]

    // If the SysTick is not running, configure and start it
    if (!(SysTick->CTRL & SysTick_CTRL_ENABLE_Msk)) {
1000ee7a:	691a      	ldr	r2, [r3, #16]
1000ee7c:	07d2      	lsls	r2, r2, #31
1000ee7e:	d41f      	bmi.n	1000eec0 <MXC_DelayInit+0x58>
        SysTick->LOAD = SysTick_LOAD_RELOAD_Msk;
1000ee80:	f06f 447f 	mvn.w	r4, #4278190080	@ 0xff000000
        SysTick->VAL = SysTick_VAL_CURRENT_Msk;
        SysTick->CTRL = SysTick_CTRL_ENABLE_Msk | SysTick_CTRL_CLKSOURCE_Msk;
1000ee84:	2205      	movs	r2, #5
        SysTick->LOAD = SysTick_LOAD_RELOAD_Msk;
1000ee86:	615c      	str	r4, [r3, #20]
        starttick = SysTick_VAL_CURRENT_Msk;
        reload = SysTick_LOAD_RELOAD_Msk + 1;
1000ee88:	f04f 7580 	mov.w	r5, #16777216	@ 0x1000000
        SysTick->VAL = SysTick_VAL_CURRENT_Msk;
1000ee8c:	619c      	str	r4, [r3, #24]
        SysTick->CTRL = SysTick_CTRL_ENABLE_Msk | SysTick_CTRL_CLKSOURCE_Msk;
1000ee8e:	611a      	str	r2, [r3, #16]
    } else {
        reload = SysTick->LOAD + 1; // get the current reload value
    }

    // Calculate the total number of ticks to delay
    ticks = (uint32_t)(((uint64_t)us * (uint64_t)SystemCoreClock) / 1000000);
1000ee90:	4b10      	ldr	r3, [pc, #64]	@ (1000eed4 <MXC_DelayInit+0x6c>)
1000ee92:	4a11      	ldr	r2, [pc, #68]	@ (1000eed8 <MXC_DelayInit+0x70>)
1000ee94:	6819      	ldr	r1, [r3, #0]
1000ee96:	2300      	movs	r3, #0
1000ee98:	fba0 0101 	umull	r0, r1, r0, r1
1000ee9c:	f008 fc48 	bl	10017730 <__aeabi_uldivmod>

    // How many overflows of the SysTick will occur
    overflows = ticks / reload;
1000eea0:	4b0e      	ldr	r3, [pc, #56]	@ (1000eedc <MXC_DelayInit+0x74>)
1000eea2:	fbb0 f2f5 	udiv	r2, r0, r5

    // How many remaining ticks after the last overflow
    lastticks = ticks % reload;
1000eea6:	fb05 0012 	mls	r0, r5, r2, r0

    // Check if there will be another overflow due to the current value of the SysTick
    if (lastticks >= starttick) {
1000eeaa:	4284      	cmp	r4, r0
    overflows = ticks / reload;
1000eeac:	601a      	str	r2, [r3, #0]
    if (lastticks >= starttick) {
1000eeae:	d80a      	bhi.n	1000eec6 <MXC_DelayInit+0x5e>
        overflows++;
1000eeb0:	681a      	ldr	r2, [r3, #0]
1000eeb2:	3201      	adds	r2, #1
1000eeb4:	601a      	str	r2, [r3, #0]
        endtick = reload - (lastticks - starttick);
1000eeb6:	4425      	add	r5, r4
1000eeb8:	4b09      	ldr	r3, [pc, #36]	@ (1000eee0 <MXC_DelayInit+0x78>)
1000eeba:	1a28      	subs	r0, r5, r0
1000eebc:	6018      	str	r0, [r3, #0]
    } else {
        endtick = starttick - lastticks;
    }
}
1000eebe:	bd38      	pop	{r3, r4, r5, pc}
        reload = SysTick->LOAD + 1; // get the current reload value
1000eec0:	695d      	ldr	r5, [r3, #20]
1000eec2:	3501      	adds	r5, #1
1000eec4:	e7e4      	b.n	1000ee90 <MXC_DelayInit+0x28>
        endtick = starttick - lastticks;
1000eec6:	4b06      	ldr	r3, [pc, #24]	@ (1000eee0 <MXC_DelayInit+0x78>)
1000eec8:	1a20      	subs	r0, r4, r0
1000eeca:	6018      	str	r0, [r3, #0]
}
1000eecc:	bd38      	pop	{r3, r4, r5, pc}
1000eece:	bf00      	nop
1000eed0:	20000cf0 	.word	0x20000cf0
1000eed4:	2000173c 	.word	0x2000173c
1000eed8:	000f4240 	.word	0x000f4240
1000eedc:	20000004 	.word	0x20000004
1000eee0:	20000cf4 	.word	0x20000cf4

1000eee4 <MXC_DelayAsync>:

/* ************************************************************************** */
int MXC_DelayAsync(uint32_t us, mxc_delay_complete_t callback)
{
1000eee4:	b510      	push	{r4, lr}
    cbFunc = callback;

    // Check if timeout currently ongoing
    if (overflows > 0) {
1000eee6:	4c0c      	ldr	r4, [pc, #48]	@ (1000ef18 <MXC_DelayAsync+0x34>)
    cbFunc = callback;
1000eee8:	4b0c      	ldr	r3, [pc, #48]	@ (1000ef1c <MXC_DelayAsync+0x38>)
    if (overflows > 0) {
1000eeea:	6822      	ldr	r2, [r4, #0]
    cbFunc = callback;
1000eeec:	6019      	str	r1, [r3, #0]
    if (overflows > 0) {
1000eeee:	2a00      	cmp	r2, #0
1000eef0:	dc0e      	bgt.n	1000ef10 <MXC_DelayAsync+0x2c>
        return E_BUSY;
    }

    // Check if there is nothing to do
    if (us == 0) {
1000eef2:	b908      	cbnz	r0, 1000eef8 <MXC_DelayAsync+0x14>
        return E_NO_ERROR;
1000eef4:	2000      	movs	r0, #0
    if (overflows > 0) {
        SysTick->CTRL |= SysTick_CTRL_TICKINT_Msk;
    }

    return E_NO_ERROR;
}
1000eef6:	bd10      	pop	{r4, pc}
    MXC_DelayInit(us);
1000eef8:	f7ff ffb6 	bl	1000ee68 <MXC_DelayInit>
    if (overflows > 0) {
1000eefc:	6823      	ldr	r3, [r4, #0]
1000eefe:	2b00      	cmp	r3, #0
1000ef00:	ddf8      	ble.n	1000eef4 <MXC_DelayAsync+0x10>
        SysTick->CTRL |= SysTick_CTRL_TICKINT_Msk;
1000ef02:	f04f 22e0 	mov.w	r2, #3758153728	@ 0xe000e000
1000ef06:	6913      	ldr	r3, [r2, #16]
1000ef08:	f043 0302 	orr.w	r3, r3, #2
1000ef0c:	6113      	str	r3, [r2, #16]
1000ef0e:	e7f1      	b.n	1000eef4 <MXC_DelayAsync+0x10>
        return E_BUSY;
1000ef10:	f06f 0005 	mvn.w	r0, #5
}
1000ef14:	bd10      	pop	{r4, pc}
1000ef16:	bf00      	nop
1000ef18:	20000004 	.word	0x20000004
1000ef1c:	20000cec 	.word	0x20000cec

1000ef20 <MXC_DelayCheck>:

/* ************************************************************************** */
int MXC_DelayCheck(void)
{
1000ef20:	b5f8      	push	{r3, r4, r5, r6, r7, lr}
    // Check if timeout currently ongoing
    if (overflows < 0) {
1000ef22:	4c17      	ldr	r4, [pc, #92]	@ (1000ef80 <MXC_DelayCheck+0x60>)
1000ef24:	6823      	ldr	r3, [r4, #0]
1000ef26:	2b00      	cmp	r3, #0
1000ef28:	db1e      	blt.n	1000ef68 <MXC_DelayCheck+0x48>

        return E_NO_ERROR;
    }

    // Check the global values
    if ((overflows == 0) && (SysTick->VAL <= endtick)) {
1000ef2a:	6826      	ldr	r6, [r4, #0]
1000ef2c:	bb2e      	cbnz	r6, 1000ef7a <MXC_DelayCheck+0x5a>
1000ef2e:	4b15      	ldr	r3, [pc, #84]	@ (1000ef84 <MXC_DelayCheck+0x64>)
1000ef30:	f04f 25e0 	mov.w	r5, #3758153728	@ 0xe000e000
1000ef34:	681b      	ldr	r3, [r3, #0]
1000ef36:	69aa      	ldr	r2, [r5, #24]
1000ef38:	429a      	cmp	r2, r3
1000ef3a:	d81e      	bhi.n	1000ef7a <MXC_DelayCheck+0x5a>
}

/* ************************************************************************** */
void MXC_DelayAbort(void)
{
    if (cbFunc != NULL) {
1000ef3c:	4f12      	ldr	r7, [pc, #72]	@ (1000ef88 <MXC_DelayCheck+0x68>)
1000ef3e:	683b      	ldr	r3, [r7, #0]
1000ef40:	b15b      	cbz	r3, 1000ef5a <MXC_DelayCheck+0x3a>
        cbFunc(E_ABORT);
1000ef42:	f06f 000f 	mvn.w	r0, #15
1000ef46:	4798      	blx	r3
        cbFunc = NULL;
    }

    SysTick->CTRL = ctrl_save;
1000ef48:	4b10      	ldr	r3, [pc, #64]	@ (1000ef8c <MXC_DelayCheck+0x6c>)
        cbFunc = NULL;
1000ef4a:	603e      	str	r6, [r7, #0]
    SysTick->CTRL = ctrl_save;
1000ef4c:	681a      	ldr	r2, [r3, #0]
1000ef4e:	612a      	str	r2, [r5, #16]
    overflows = -1;
1000ef50:	f04f 33ff 	mov.w	r3, #4294967295	@ 0xffffffff
1000ef54:	6023      	str	r3, [r4, #0]
        return E_NO_ERROR;
1000ef56:	2000      	movs	r0, #0
}
1000ef58:	bdf8      	pop	{r3, r4, r5, r6, r7, pc}
    SysTick->CTRL = ctrl_save;
1000ef5a:	4a0c      	ldr	r2, [pc, #48]	@ (1000ef8c <MXC_DelayCheck+0x6c>)
    overflows = -1;
1000ef5c:	f04f 33ff 	mov.w	r3, #4294967295	@ 0xffffffff
    SysTick->CTRL = ctrl_save;
1000ef60:	6812      	ldr	r2, [r2, #0]
1000ef62:	612a      	str	r2, [r5, #16]
    overflows = -1;
1000ef64:	6023      	str	r3, [r4, #0]
        if (cbFunc != NULL) {
1000ef66:	e7f6      	b.n	1000ef56 <MXC_DelayCheck+0x36>
        if (cbFunc != NULL) {
1000ef68:	4c07      	ldr	r4, [pc, #28]	@ (1000ef88 <MXC_DelayCheck+0x68>)
1000ef6a:	6823      	ldr	r3, [r4, #0]
1000ef6c:	2b00      	cmp	r3, #0
1000ef6e:	d0f2      	beq.n	1000ef56 <MXC_DelayCheck+0x36>
            cbFunc(E_NO_ERROR);
1000ef70:	2000      	movs	r0, #0
1000ef72:	4798      	blx	r3
            cbFunc = NULL;
1000ef74:	2300      	movs	r3, #0
1000ef76:	6023      	str	r3, [r4, #0]
1000ef78:	e7ed      	b.n	1000ef56 <MXC_DelayCheck+0x36>
    return E_BUSY;
1000ef7a:	f06f 0005 	mvn.w	r0, #5
}
1000ef7e:	bdf8      	pop	{r3, r4, r5, r6, r7, pc}
1000ef80:	20000004 	.word	0x20000004
1000ef84:	20000cf4 	.word	0x20000cf4
1000ef88:	20000cec 	.word	0x20000cec
1000ef8c:	20000cf0 	.word	0x20000cf0

1000ef90 <MXC_DelayAbort>:
{
1000ef90:	b510      	push	{r4, lr}
    if (cbFunc != NULL) {
1000ef92:	4c09      	ldr	r4, [pc, #36]	@ (1000efb8 <MXC_DelayAbort+0x28>)
1000ef94:	6823      	ldr	r3, [r4, #0]
1000ef96:	b123      	cbz	r3, 1000efa2 <MXC_DelayAbort+0x12>
        cbFunc(E_ABORT);
1000ef98:	f06f 000f 	mvn.w	r0, #15
1000ef9c:	4798      	blx	r3
        cbFunc = NULL;
1000ef9e:	2300      	movs	r3, #0
1000efa0:	6023      	str	r3, [r4, #0]
    SysTick->CTRL = ctrl_save;
1000efa2:	4a06      	ldr	r2, [pc, #24]	@ (1000efbc <MXC_DelayAbort+0x2c>)
    overflows = -1;
1000efa4:	4b06      	ldr	r3, [pc, #24]	@ (1000efc0 <MXC_DelayAbort+0x30>)
    SysTick->CTRL = ctrl_save;
1000efa6:	6810      	ldr	r0, [r2, #0]
1000efa8:	f04f 21e0 	mov.w	r1, #3758153728	@ 0xe000e000
    overflows = -1;
1000efac:	f04f 32ff 	mov.w	r2, #4294967295	@ 0xffffffff
    SysTick->CTRL = ctrl_save;
1000efb0:	6108      	str	r0, [r1, #16]
    overflows = -1;
1000efb2:	601a      	str	r2, [r3, #0]
}
1000efb4:	bd10      	pop	{r4, pc}
1000efb6:	bf00      	nop
1000efb8:	20000cec 	.word	0x20000cec
1000efbc:	20000cf0 	.word	0x20000cf0
1000efc0:	20000004 	.word	0x20000004

1000efc4 <MXC_Delay>:

/* ************************************************************************** */
int MXC_Delay(uint32_t us)
{
1000efc4:	b538      	push	{r3, r4, r5, lr}
    // Check if timeout currently ongoing
    if (overflows > 0) {
1000efc6:	4c18      	ldr	r4, [pc, #96]	@ (1000f028 <MXC_Delay+0x64>)
1000efc8:	6822      	ldr	r2, [r4, #0]
1000efca:	2a00      	cmp	r2, #0
1000efcc:	dc29      	bgt.n	1000f022 <MXC_Delay+0x5e>
        return E_BUSY;
    }

    // Check if there is nothing to do
    if (us == 0) {
1000efce:	b908      	cbnz	r0, 1000efd4 <MXC_Delay+0x10>
        return E_NO_ERROR;
1000efd0:	2000      	movs	r0, #0
    // Wait for the counter value
    while (SysTick->VAL > endtick) {}

    MXC_DelayAbort();
    return E_NO_ERROR;
}
1000efd2:	bd38      	pop	{r3, r4, r5, pc}
    MXC_DelayInit(us);
1000efd4:	f7ff ff48 	bl	1000ee68 <MXC_DelayInit>
        if (SysTick->CTRL & SysTick_CTRL_COUNTFLAG_Msk) {
1000efd8:	f04f 22e0 	mov.w	r2, #3758153728	@ 0xe000e000
    while (overflows > 0) {
1000efdc:	e002      	b.n	1000efe4 <MXC_Delay+0x20>
        if (SysTick->CTRL & SysTick_CTRL_COUNTFLAG_Msk) {
1000efde:	6913      	ldr	r3, [r2, #16]
1000efe0:	03db      	lsls	r3, r3, #15
1000efe2:	d41a      	bmi.n	1000f01a <MXC_Delay+0x56>
    while (overflows > 0) {
1000efe4:	6823      	ldr	r3, [r4, #0]
1000efe6:	2b00      	cmp	r3, #0
1000efe8:	dcf9      	bgt.n	1000efde <MXC_Delay+0x1a>
    while (SysTick->VAL > endtick) {}
1000efea:	4b10      	ldr	r3, [pc, #64]	@ (1000f02c <MXC_Delay+0x68>)
1000efec:	681a      	ldr	r2, [r3, #0]
1000efee:	f04f 21e0 	mov.w	r1, #3758153728	@ 0xe000e000
1000eff2:	698b      	ldr	r3, [r1, #24]
1000eff4:	4293      	cmp	r3, r2
1000eff6:	d8fc      	bhi.n	1000eff2 <MXC_Delay+0x2e>
    if (cbFunc != NULL) {
1000eff8:	4d0d      	ldr	r5, [pc, #52]	@ (1000f030 <MXC_Delay+0x6c>)
1000effa:	682b      	ldr	r3, [r5, #0]
1000effc:	b123      	cbz	r3, 1000f008 <MXC_Delay+0x44>
        cbFunc(E_ABORT);
1000effe:	f06f 000f 	mvn.w	r0, #15
1000f002:	4798      	blx	r3
        cbFunc = NULL;
1000f004:	2300      	movs	r3, #0
1000f006:	602b      	str	r3, [r5, #0]
    SysTick->CTRL = ctrl_save;
1000f008:	4b0a      	ldr	r3, [pc, #40]	@ (1000f034 <MXC_Delay+0x70>)
1000f00a:	f04f 22e0 	mov.w	r2, #3758153728	@ 0xe000e000
1000f00e:	6819      	ldr	r1, [r3, #0]
1000f010:	6111      	str	r1, [r2, #16]
    overflows = -1;
1000f012:	f04f 33ff 	mov.w	r3, #4294967295	@ 0xffffffff
1000f016:	6023      	str	r3, [r4, #0]
}
1000f018:	e7da      	b.n	1000efd0 <MXC_Delay+0xc>
            overflows--;
1000f01a:	6823      	ldr	r3, [r4, #0]
1000f01c:	3b01      	subs	r3, #1
1000f01e:	6023      	str	r3, [r4, #0]
1000f020:	e7e0      	b.n	1000efe4 <MXC_Delay+0x20>
        return E_BUSY;
1000f022:	f06f 0005 	mvn.w	r0, #5
}
1000f026:	bd38      	pop	{r3, r4, r5, pc}
1000f028:	20000004 	.word	0x20000004
1000f02c:	20000cf4 	.word	0x20000cf4
1000f030:	20000cec 	.word	0x20000cec
1000f034:	20000cf0 	.word	0x20000cf0

1000f038 <MXC_NVIC_SetVector>:
    memcpy(&ramVectorTable, &__isr_vector, sizeof(ramVectorTable));
    SCB->VTOR = (uint32_t)&ramVectorTable;
}

void MXC_NVIC_SetVector(IRQn_Type irqn, void (*irq_handler)(void))
{
1000f038:	b5f8      	push	{r3, r4, r5, r6, r7, lr}
    int index = irqn + 16; /* offset for externals */

    /* If not copied, do copy */
    if (SCB->VTOR != (uint32_t)&ramVectorTable) {
1000f03a:	4e0f      	ldr	r6, [pc, #60]	@ (1000f078 <MXC_NVIC_SetVector+0x40>)
1000f03c:	4b0f      	ldr	r3, [pc, #60]	@ (1000f07c <MXC_NVIC_SetVector+0x44>)
1000f03e:	68b2      	ldr	r2, [r6, #8]
1000f040:	429a      	cmp	r2, r3
{
1000f042:	4604      	mov	r4, r0
1000f044:	460d      	mov	r5, r1
    int index = irqn + 16; /* offset for externals */
1000f046:	f100 0710 	add.w	r7, r0, #16
    if (SCB->VTOR != (uint32_t)&ramVectorTable) {
1000f04a:	d007      	beq.n	1000f05c <MXC_NVIC_SetVector+0x24>
    memcpy(&ramVectorTable, &__isr_vector, sizeof(ramVectorTable));
1000f04c:	4618      	mov	r0, r3
1000f04e:	490c      	ldr	r1, [pc, #48]	@ (1000f080 <MXC_NVIC_SetVector+0x48>)
1000f050:	f44f 72f0 	mov.w	r2, #480	@ 0x1e0
1000f054:	f001 f95e 	bl	10010314 <memcpy>
1000f058:	4603      	mov	r3, r0
    SCB->VTOR = (uint32_t)&ramVectorTable;
1000f05a:	60b0      	str	r0, [r6, #8]
  \param [in]      IRQn  Device specific interrupt number.
  \note    IRQn must not be negative.
 */
__STATIC_INLINE void __NVIC_EnableIRQ(IRQn_Type IRQn)
{
  if ((int32_t)(IRQn) >= 0)
1000f05c:	2c00      	cmp	r4, #0
        NVIC_SetRAM();
    }

    ramVectorTable[index] = irq_handler;
1000f05e:	f843 5027 	str.w	r5, [r3, r7, lsl #2]
1000f062:	db07      	blt.n	1000f074 <MXC_NVIC_SetVector+0x3c>
  {
    __COMPILER_BARRIER();
    NVIC->ISER[(((uint32_t)IRQn) >> 5UL)] = (uint32_t)(1UL << (((uint32_t)IRQn) & 0x1FUL));
1000f064:	4a07      	ldr	r2, [pc, #28]	@ (1000f084 <MXC_NVIC_SetVector+0x4c>)
1000f066:	0961      	lsrs	r1, r4, #5
1000f068:	2301      	movs	r3, #1
1000f06a:	f004 041f 	and.w	r4, r4, #31
1000f06e:	40a3      	lsls	r3, r4
1000f070:	f842 3021 	str.w	r3, [r2, r1, lsl #2]
    NVIC_EnableIRQ(irqn);
}
1000f074:	bdf8      	pop	{r3, r4, r5, r6, r7, pc}
1000f076:	bf00      	nop
1000f078:	e000ed00 	.word	0xe000ed00
1000f07c:	20000e00 	.word	0x20000e00
1000f080:	1000e000 	.word	0x1000e000
1000f084:	e000e100 	.word	0xe000e100

1000f088 <MXC_SYS_ClockDisable>:

/* ************************************************************************** */
void MXC_SYS_ClockDisable(mxc_sys_periph_clock_t clock)
{
    /* The mxc_sys_periph_clock_t enum uses enum values that are the offset by 32 and 64 for the perckcn1 register. */
    if (clock > 63) {
1000f088:	283f      	cmp	r0, #63	@ 0x3f
1000f08a:	d908      	bls.n	1000f09e <MXC_SYS_ClockDisable+0x16>
        clock -= 64;
        MXC_LPGCR->pclkdis |= (0x1 << clock);
1000f08c:	4a0d      	ldr	r2, [pc, #52]	@ (1000f0c4 <MXC_SYS_ClockDisable+0x3c>)
        clock -= 64;
1000f08e:	3840      	subs	r0, #64	@ 0x40
        MXC_LPGCR->pclkdis |= (0x1 << clock);
1000f090:	68d1      	ldr	r1, [r2, #12]
1000f092:	b2c0      	uxtb	r0, r0
1000f094:	2301      	movs	r3, #1
1000f096:	4083      	lsls	r3, r0
1000f098:	430b      	orrs	r3, r1
1000f09a:	60d3      	str	r3, [r2, #12]
1000f09c:	4770      	bx	lr
    } else if (clock > 31) {
1000f09e:	281f      	cmp	r0, #31
        clock -= 32;
        MXC_GCR->pclkdis1 |= (0x1 << clock);
1000f0a0:	f04f 4280 	mov.w	r2, #1073741824	@ 0x40000000
    } else if (clock > 31) {
1000f0a4:	d907      	bls.n	1000f0b6 <MXC_SYS_ClockDisable+0x2e>
        clock -= 32;
1000f0a6:	3820      	subs	r0, #32
        MXC_GCR->pclkdis1 |= (0x1 << clock);
1000f0a8:	6c91      	ldr	r1, [r2, #72]	@ 0x48
1000f0aa:	b2c0      	uxtb	r0, r0
1000f0ac:	2301      	movs	r3, #1
1000f0ae:	4083      	lsls	r3, r0
1000f0b0:	430b      	orrs	r3, r1
1000f0b2:	6493      	str	r3, [r2, #72]	@ 0x48
1000f0b4:	4770      	bx	lr
    } else {
        MXC_GCR->pclkdis0 |= (0x1 << clock);
1000f0b6:	6a51      	ldr	r1, [r2, #36]	@ 0x24
1000f0b8:	2301      	movs	r3, #1
1000f0ba:	4083      	lsls	r3, r0
1000f0bc:	430b      	orrs	r3, r1
1000f0be:	6253      	str	r3, [r2, #36]	@ 0x24
    }
}
1000f0c0:	4770      	bx	lr
1000f0c2:	bf00      	nop
1000f0c4:	40080000 	.word	0x40080000

1000f0c8 <MXC_SYS_ClockEnable>:

/* ************************************************************************** */
void MXC_SYS_ClockEnable(mxc_sys_periph_clock_t clock)
{
    /* The mxc_sys_periph_clock_t enum uses enum values that are the offset by 32 and 64 for the perckcn1 register. */
    if (clock > 63) {
1000f0c8:	283f      	cmp	r0, #63	@ 0x3f
1000f0ca:	d909      	bls.n	1000f0e0 <MXC_SYS_ClockEnable+0x18>
        clock -= 64;
        MXC_LPGCR->pclkdis &= ~(0x1 << clock);
1000f0cc:	490e      	ldr	r1, [pc, #56]	@ (1000f108 <MXC_SYS_ClockEnable+0x40>)
        clock -= 64;
1000f0ce:	3840      	subs	r0, #64	@ 0x40
        MXC_LPGCR->pclkdis &= ~(0x1 << clock);
1000f0d0:	68cb      	ldr	r3, [r1, #12]
1000f0d2:	b2c0      	uxtb	r0, r0
1000f0d4:	2201      	movs	r2, #1
1000f0d6:	4082      	lsls	r2, r0
1000f0d8:	ea23 0302 	bic.w	r3, r3, r2
1000f0dc:	60cb      	str	r3, [r1, #12]
1000f0de:	4770      	bx	lr
    } else if (clock > 31) {
1000f0e0:	281f      	cmp	r0, #31
        clock -= 32;
        MXC_GCR->pclkdis1 &= ~(0x1 << clock);
1000f0e2:	f04f 4180 	mov.w	r1, #1073741824	@ 0x40000000
    } else if (clock > 31) {
1000f0e6:	d908      	bls.n	1000f0fa <MXC_SYS_ClockEnable+0x32>
        clock -= 32;
1000f0e8:	3820      	subs	r0, #32
        MXC_GCR->pclkdis1 &= ~(0x1 << clock);
1000f0ea:	6c8b      	ldr	r3, [r1, #72]	@ 0x48
1000f0ec:	b2c0      	uxtb	r0, r0
1000f0ee:	2201      	movs	r2, #1
1000f0f0:	4082      	lsls	r2, r0
1000f0f2:	ea23 0302 	bic.w	r3, r3, r2
1000f0f6:	648b      	str	r3, [r1, #72]	@ 0x48
    } else {
        MXC_GCR->pclkdis0 &= ~(0x1 << clock);
    }
}
1000f0f8:	4770      	bx	lr
        MXC_GCR->pclkdis0 &= ~(0x1 << clock);
1000f0fa:	6a4b      	ldr	r3, [r1, #36]	@ 0x24
1000f0fc:	2201      	movs	r2, #1
1000f0fe:	4082      	lsls	r2, r0
1000f100:	ea23 0302 	bic.w	r3, r3, r2
1000f104:	624b      	str	r3, [r1, #36]	@ 0x24
}
1000f106:	4770      	bx	lr
1000f108:	40080000 	.word	0x40080000

1000f10c <MXC_SYS_ClockSourceEnable>:
    }
}

/******************************************************************************/
int MXC_SYS_ClockSourceEnable(mxc_sys_system_clock_t clock)
{
1000f10c:	b510      	push	{r4, lr}
    switch (clock) {
1000f10e:	2807      	cmp	r0, #7
1000f110:	d80a      	bhi.n	1000f128 <MXC_SYS_ClockSourceEnable+0x1c>
1000f112:	e8df f000 	tbb	[pc, r0]
1000f116:	090c      	.short	0x090c
1000f118:	47332309 	.word	0x47332309
1000f11c:	045b      	.short	0x045b

    default:
        return E_BAD_PARAM;
        break;
    }
}
1000f11e:	e8bd 4010 	ldmia.w	sp!, {r4, lr}
        return MXC_GPIO_Config(&gpio_cfg_extclk);
1000f122:	4836      	ldr	r0, [pc, #216]	@ (1000f1fc <MXC_SYS_ClockSourceEnable+0xf0>)
1000f124:	f000 b8fe 	b.w	1000f324 <MXC_GPIO_Config>
    switch (clock) {
1000f128:	f06f 0002 	mvn.w	r0, #2
}
1000f12c:	bd10      	pop	{r4, pc}
        MXC_GCR->clkctrl |= MXC_F_GCR_CLKCTRL_ISO_EN;
1000f12e:	f04f 4480 	mov.w	r4, #1073741824	@ 0x40000000
    // We do not have access to a system tick in the RV core.
    while (!(MXC_GCR->clkctrl & ready)) {}
    return E_NO_ERROR;
#else
    // Start timeout, wait for ready
    MXC_DelayAsync(MXC_SYS_CLOCK_TIMEOUT, NULL);
1000f132:	2100      	movs	r1, #0
        MXC_GCR->clkctrl |= MXC_F_GCR_CLKCTRL_ISO_EN;
1000f134:	68a3      	ldr	r3, [r4, #8]
1000f136:	f443 2380 	orr.w	r3, r3, #262144	@ 0x40000
1000f13a:	60a3      	str	r3, [r4, #8]
    MXC_DelayAsync(MXC_SYS_CLOCK_TIMEOUT, NULL);
1000f13c:	f44f 707a 	mov.w	r0, #1000	@ 0x3e8
1000f140:	f7ff fed0 	bl	1000eee4 <MXC_DelayAsync>
1000f144:	e003      	b.n	1000f14e <MXC_SYS_ClockSourceEnable+0x42>
    do {
        if (MXC_GCR->clkctrl & ready) {
            MXC_DelayAbort();
            return E_NO_ERROR;
        }
    } while (MXC_DelayCheck() == E_BUSY);
1000f146:	f7ff feeb 	bl	1000ef20 <MXC_DelayCheck>
1000f14a:	3006      	adds	r0, #6
1000f14c:	d152      	bne.n	1000f1f4 <MXC_SYS_ClockSourceEnable+0xe8>
        if (MXC_GCR->clkctrl & ready) {
1000f14e:	68a3      	ldr	r3, [r4, #8]
1000f150:	0159      	lsls	r1, r3, #5
1000f152:	d5f8      	bpl.n	1000f146 <MXC_SYS_ClockSourceEnable+0x3a>
            MXC_DelayAbort();
1000f154:	f7ff ff1c 	bl	1000ef90 <MXC_DelayAbort>
            return E_NO_ERROR;
1000f158:	2000      	movs	r0, #0
}
1000f15a:	bd10      	pop	{r4, pc}
    MXC_DelayAsync(MXC_SYS_CLOCK_TIMEOUT, NULL);
1000f15c:	2100      	movs	r1, #0
1000f15e:	f44f 707a 	mov.w	r0, #1000	@ 0x3e8
1000f162:	f7ff febf 	bl	1000eee4 <MXC_DelayAsync>
        if (MXC_GCR->clkctrl & ready) {
1000f166:	f04f 4480 	mov.w	r4, #1073741824	@ 0x40000000
1000f16a:	e003      	b.n	1000f174 <MXC_SYS_ClockSourceEnable+0x68>
    } while (MXC_DelayCheck() == E_BUSY);
1000f16c:	f7ff fed8 	bl	1000ef20 <MXC_DelayCheck>
1000f170:	3006      	adds	r0, #6
1000f172:	d13f      	bne.n	1000f1f4 <MXC_SYS_ClockSourceEnable+0xe8>
        if (MXC_GCR->clkctrl & ready) {
1000f174:	68a3      	ldr	r3, [r4, #8]
1000f176:	009a      	lsls	r2, r3, #2
1000f178:	d4ec      	bmi.n	1000f154 <MXC_SYS_ClockSourceEnable+0x48>
1000f17a:	e7f7      	b.n	1000f16c <MXC_SYS_ClockSourceEnable+0x60>
        MXC_GCR->clkctrl |= MXC_F_GCR_CLKCTRL_IPO_EN;
1000f17c:	f04f 4480 	mov.w	r4, #1073741824	@ 0x40000000
    MXC_DelayAsync(MXC_SYS_CLOCK_TIMEOUT, NULL);
1000f180:	2100      	movs	r1, #0
        MXC_GCR->clkctrl |= MXC_F_GCR_CLKCTRL_IPO_EN;
1000f182:	68a3      	ldr	r3, [r4, #8]
1000f184:	f443 2300 	orr.w	r3, r3, #524288	@ 0x80000
1000f188:	60a3      	str	r3, [r4, #8]
    MXC_DelayAsync(MXC_SYS_CLOCK_TIMEOUT, NULL);
1000f18a:	f44f 707a 	mov.w	r0, #1000	@ 0x3e8
1000f18e:	f7ff fea9 	bl	1000eee4 <MXC_DelayAsync>
1000f192:	e003      	b.n	1000f19c <MXC_SYS_ClockSourceEnable+0x90>
    } while (MXC_DelayCheck() == E_BUSY);
1000f194:	f7ff fec4 	bl	1000ef20 <MXC_DelayCheck>
1000f198:	3006      	adds	r0, #6
1000f19a:	d12b      	bne.n	1000f1f4 <MXC_SYS_ClockSourceEnable+0xe8>
        if (MXC_GCR->clkctrl & ready) {
1000f19c:	68a3      	ldr	r3, [r4, #8]
1000f19e:	011b      	lsls	r3, r3, #4
1000f1a0:	d5f8      	bpl.n	1000f194 <MXC_SYS_ClockSourceEnable+0x88>
1000f1a2:	e7d7      	b.n	1000f154 <MXC_SYS_ClockSourceEnable+0x48>
        MXC_GCR->clkctrl |= MXC_F_GCR_CLKCTRL_IBRO_EN;
1000f1a4:	f04f 4480 	mov.w	r4, #1073741824	@ 0x40000000
    MXC_DelayAsync(MXC_SYS_CLOCK_TIMEOUT, NULL);
1000f1a8:	2100      	movs	r1, #0
        MXC_GCR->clkctrl |= MXC_F_GCR_CLKCTRL_IBRO_EN;
1000f1aa:	68a3      	ldr	r3, [r4, #8]
1000f1ac:	f443 1380 	orr.w	r3, r3, #1048576	@ 0x100000
1000f1b0:	60a3      	str	r3, [r4, #8]
    MXC_DelayAsync(MXC_SYS_CLOCK_TIMEOUT, NULL);
1000f1b2:	f44f 707a 	mov.w	r0, #1000	@ 0x3e8
1000f1b6:	f7ff fe95 	bl	1000eee4 <MXC_DelayAsync>
1000f1ba:	e003      	b.n	1000f1c4 <MXC_SYS_ClockSourceEnable+0xb8>
    } while (MXC_DelayCheck() == E_BUSY);
1000f1bc:	f7ff feb0 	bl	1000ef20 <MXC_DelayCheck>
1000f1c0:	3006      	adds	r0, #6
1000f1c2:	d117      	bne.n	1000f1f4 <MXC_SYS_ClockSourceEnable+0xe8>
        if (MXC_GCR->clkctrl & ready) {
1000f1c4:	68a3      	ldr	r3, [r4, #8]
1000f1c6:	00d8      	lsls	r0, r3, #3
1000f1c8:	d4c4      	bmi.n	1000f154 <MXC_SYS_ClockSourceEnable+0x48>
1000f1ca:	e7f7      	b.n	1000f1bc <MXC_SYS_ClockSourceEnable+0xb0>
        MXC_GCR->clkctrl |= MXC_F_GCR_CLKCTRL_ERTCO_EN;
1000f1cc:	f04f 4480 	mov.w	r4, #1073741824	@ 0x40000000
    MXC_DelayAsync(MXC_SYS_CLOCK_TIMEOUT, NULL);
1000f1d0:	2100      	movs	r1, #0
        MXC_GCR->clkctrl |= MXC_F_GCR_CLKCTRL_ERTCO_EN;
1000f1d2:	68a3      	ldr	r3, [r4, #8]
1000f1d4:	f443 3300 	orr.w	r3, r3, #131072	@ 0x20000
1000f1d8:	60a3      	str	r3, [r4, #8]
    MXC_DelayAsync(MXC_SYS_CLOCK_TIMEOUT, NULL);
1000f1da:	f44f 707a 	mov.w	r0, #1000	@ 0x3e8
1000f1de:	f7ff fe81 	bl	1000eee4 <MXC_DelayAsync>
1000f1e2:	e003      	b.n	1000f1ec <MXC_SYS_ClockSourceEnable+0xe0>
    } while (MXC_DelayCheck() == E_BUSY);
1000f1e4:	f7ff fe9c 	bl	1000ef20 <MXC_DelayCheck>
1000f1e8:	3006      	adds	r0, #6
1000f1ea:	d103      	bne.n	1000f1f4 <MXC_SYS_ClockSourceEnable+0xe8>
        if (MXC_GCR->clkctrl & ready) {
1000f1ec:	68a3      	ldr	r3, [r4, #8]
1000f1ee:	019b      	lsls	r3, r3, #6
1000f1f0:	d4b0      	bmi.n	1000f154 <MXC_SYS_ClockSourceEnable+0x48>
1000f1f2:	e7f7      	b.n	1000f1e4 <MXC_SYS_ClockSourceEnable+0xd8>

    return E_TIME_OUT;
1000f1f4:	f06f 0009 	mvn.w	r0, #9
}
1000f1f8:	bd10      	pop	{r4, pc}
1000f1fa:	bf00      	nop
1000f1fc:	10017e44 	.word	0x10017e44

1000f200 <MXC_SYS_Reset_Periph>:

/* ************************************************************************** */
void MXC_SYS_Reset_Periph(mxc_sys_reset_t reset)
{
    /* The mxc_sys_reset_t enum uses enum values that are the offset by 32 and 64 for the rst register. */
    if (reset > 63) {
1000f200:	283f      	cmp	r0, #63	@ 0x3f
1000f202:	d909      	bls.n	1000f218 <MXC_SYS_Reset_Periph+0x18>
        reset -= 64;
1000f204:	3840      	subs	r0, #64	@ 0x40
        MXC_LPGCR->rst = (0x1 << reset);
1000f206:	490f      	ldr	r1, [pc, #60]	@ (1000f244 <MXC_SYS_Reset_Periph+0x44>)
1000f208:	b2c0      	uxtb	r0, r0
1000f20a:	2201      	movs	r2, #1
1000f20c:	4082      	lsls	r2, r0
1000f20e:	608a      	str	r2, [r1, #8]
        while (MXC_LPGCR->rst & (0x1 << reset)) {}
1000f210:	688b      	ldr	r3, [r1, #8]
1000f212:	421a      	tst	r2, r3
1000f214:	d1fc      	bne.n	1000f210 <MXC_SYS_Reset_Periph+0x10>
1000f216:	4770      	bx	lr
    } else if (reset > 31) {
1000f218:	281f      	cmp	r0, #31
1000f21a:	d90a      	bls.n	1000f232 <MXC_SYS_Reset_Periph+0x32>
        reset -= 32;
1000f21c:	3820      	subs	r0, #32
        MXC_GCR->rst1 = (0x1 << reset);
1000f21e:	b2c0      	uxtb	r0, r0
1000f220:	2201      	movs	r2, #1
1000f222:	f04f 4180 	mov.w	r1, #1073741824	@ 0x40000000
1000f226:	4082      	lsls	r2, r0
1000f228:	644a      	str	r2, [r1, #68]	@ 0x44
        while (MXC_GCR->rst1 & (0x1 << reset)) {}
1000f22a:	6c4b      	ldr	r3, [r1, #68]	@ 0x44
1000f22c:	421a      	tst	r2, r3
1000f22e:	d1fc      	bne.n	1000f22a <MXC_SYS_Reset_Periph+0x2a>
1000f230:	4770      	bx	lr
    } else {
        MXC_GCR->rst0 = (0x1 << reset);
1000f232:	2201      	movs	r2, #1
1000f234:	f04f 4180 	mov.w	r1, #1073741824	@ 0x40000000
1000f238:	4082      	lsls	r2, r0
1000f23a:	604a      	str	r2, [r1, #4]
        while (MXC_GCR->rst0 & (0x1 << reset)) {}
1000f23c:	684b      	ldr	r3, [r1, #4]
1000f23e:	421a      	tst	r2, r3
1000f240:	d1fc      	bne.n	1000f23c <MXC_SYS_Reset_Periph+0x3c>
    }
}
1000f242:	4770      	bx	lr
1000f244:	40080000 	.word	0x40080000

1000f248 <MXC_FLC_Write32>:
    uint32_t addr, aligned;
    int err;
    mxc_flc_regs_t *flc = NULL;

    // Address checked if it is byte addressable
    if (address & 0x3) {
1000f248:	0782      	lsls	r2, r0, #30
1000f24a:	d12c      	bne.n	1000f2a6 <MXC_FLC_Write32+0x5e>
    if ((addr >= MXC_FLASH_MEM_BASE) && (addr < (MXC_FLASH_MEM_BASE + MXC_FLASH_MEM_SIZE))) {
1000f24c:	f100 4370 	add.w	r3, r0, #4026531840	@ 0xf0000000
1000f250:	f5b3 2f00 	cmp.w	r3, #524288	@ 0x80000
1000f254:	4684      	mov	ip, r0
1000f256:	460a      	mov	r2, r1
1000f258:	d322      	bcc.n	1000f2a0 <MXC_FLC_Write32+0x58>
    } else if ((addr >= MXC_INFO_MEM_BASE) && (addr < (MXC_INFO_MEM_BASE + MXC_INFO_MEM_SIZE))) {
1000f25a:	f1a0 5384 	sub.w	r3, r0, #276824064	@ 0x10800000
1000f25e:	f5b3 4f80 	cmp.w	r3, #16384	@ 0x4000
1000f262:	d220      	bcs.n	1000f2a6 <MXC_FLC_Write32+0x5e>
        *result = (addr & (MXC_INFO_MEM_SIZE - 1)) + MXC_FLASH_MEM_SIZE;
1000f264:	f643 73f0 	movw	r3, #16368	@ 0x3ff0
1000f268:	4003      	ands	r3, r0
1000f26a:	f503 2300 	add.w	r3, r3, #524288	@ 0x80000
{
1000f26e:	b500      	push	{lr}

    if ((err = MXC_FLC_ME17_GetPhysicalAddress(aligned, &addr)) < E_NO_ERROR) {
        return err;
    }

    err = MXC_FLC_RevA_Write32Using128((mxc_flc_reva_regs_t *)flc, address, data, addr);
1000f270:	480e      	ldr	r0, [pc, #56]	@ (1000f2ac <MXC_FLC_Write32+0x64>)
{
1000f272:	b083      	sub	sp, #12
    err = MXC_FLC_RevA_Write32Using128((mxc_flc_reva_regs_t *)flc, address, data, addr);
1000f274:	4661      	mov	r1, ip
1000f276:	f008 ff53 	bl	10018120 <__MXC_FLC_RevA_Write32Using128_veneer>
    MXC_GCR->sysctrl |= MXC_F_GCR_SYSCTRL_ICC0_FLUSH;
1000f27a:	f04f 4280 	mov.w	r2, #1073741824	@ 0x40000000
1000f27e:	6813      	ldr	r3, [r2, #0]
1000f280:	f043 0340 	orr.w	r3, r3, #64	@ 0x40
1000f284:	6013      	str	r3, [r2, #0]
    while (MXC_GCR->sysctrl & MXC_F_GCR_SYSCTRL_ICC0_FLUSH) {}
1000f286:	6813      	ldr	r3, [r2, #0]
1000f288:	065b      	lsls	r3, r3, #25
1000f28a:	d4fc      	bmi.n	1000f286 <MXC_FLC_Write32+0x3e>
    line = *line_addr;
1000f28c:	f04f 5280 	mov.w	r2, #268435456	@ 0x10000000
    line = *line_addr;
1000f290:	4b07      	ldr	r3, [pc, #28]	@ (1000f2b0 <MXC_FLC_Write32+0x68>)
    line = *line_addr;
1000f292:	6812      	ldr	r2, [r2, #0]
1000f294:	9201      	str	r2, [sp, #4]
    line = *line_addr;
1000f296:	681b      	ldr	r3, [r3, #0]
1000f298:	9301      	str	r3, [sp, #4]

    // Flush the cache
    MXC_FLC_ME17_Flash_Operation();

    return err;
}
1000f29a:	b003      	add	sp, #12
1000f29c:	f85d fb04 	ldr.w	pc, [sp], #4
        *result = addr & (MXC_FLASH_MEM_SIZE - 1);
1000f2a0:	4b04      	ldr	r3, [pc, #16]	@ (1000f2b4 <MXC_FLC_Write32+0x6c>)
1000f2a2:	4003      	ands	r3, r0
1000f2a4:	e7e3      	b.n	1000f26e <MXC_FLC_Write32+0x26>
        return E_BAD_PARAM;
1000f2a6:	f06f 0002 	mvn.w	r0, #2
}
1000f2aa:	4770      	bx	lr
1000f2ac:	40029000 	.word	0x40029000
1000f2b0:	10002000 	.word	0x10002000
1000f2b4:	0007fff0 	.word	0x0007fff0

1000f2b8 <MXC_FLC_Write>:
}

//******************************************************************************
int MXC_FLC_Write(uint32_t address, uint32_t length, uint32_t *buffer)
{
    return MXC_FLC_Com_Write(address, length, buffer);
1000f2b8:	f008 bf2a 	b.w	10018110 <__MXC_FLC_Com_Write_veneer>

1000f2bc <MXC_FLC_Read>:
}

//******************************************************************************
void MXC_FLC_Read(int address, void *buffer, int len)
{
    MXC_FLC_Com_Read(address, buffer, len);
1000f2bc:	f008 bf24 	b.w	10018108 <__MXC_FLC_Com_Read_veneer>

1000f2c0 <MXC_FLC_EnableInt>:
}

//******************************************************************************
int MXC_FLC_EnableInt(uint32_t flags)
{
    return MXC_FLC_RevA_EnableInt(flags);
1000f2c0:	f000 b800 	b.w	1000f2c4 <MXC_FLC_RevA_EnableInt>

1000f2c4 <MXC_FLC_RevA_EnableInt>:
//******************************************************************************
int MXC_FLC_RevA_EnableInt(uint32_t mask)
{
    mask &= (MXC_F_FLC_REVA_INTR_DONEIE | MXC_F_FLC_REVA_INTR_AFIE);

    if (!mask) {
1000f2c4:	f410 7340 	ands.w	r3, r0, #768	@ 0x300
1000f2c8:	d006      	beq.n	1000f2d8 <MXC_FLC_RevA_EnableInt+0x14>
        /* No bits set? Wasn't something we can enable. */
        return E_BAD_PARAM;
    }

    /* Apply enables and write back, preserving the flags */
    flc_int->intr |= mask;
1000f2ca:	4a05      	ldr	r2, [pc, #20]	@ (1000f2e0 <MXC_FLC_RevA_EnableInt+0x1c>)
1000f2cc:	6811      	ldr	r1, [r2, #0]
1000f2ce:	6a4a      	ldr	r2, [r1, #36]	@ 0x24
1000f2d0:	4313      	orrs	r3, r2

    return E_NO_ERROR;
1000f2d2:	2000      	movs	r0, #0
    flc_int->intr |= mask;
1000f2d4:	624b      	str	r3, [r1, #36]	@ 0x24
    return E_NO_ERROR;
1000f2d6:	4770      	bx	lr
        return E_BAD_PARAM;
1000f2d8:	f06f 0002 	mvn.w	r0, #2
}
1000f2dc:	4770      	bx	lr
1000f2de:	bf00      	nop
1000f2e0:	20000008 	.word	0x20000008

1000f2e4 <MXC_GPIO_Init>:
/* **** Globals **** */

/* **** Functions **** */
int MXC_GPIO_Init(uint32_t portmask)
{
    if (portmask & 0x1) {
1000f2e4:	07c1      	lsls	r1, r0, #31
{
1000f2e6:	b510      	push	{r4, lr}
1000f2e8:	4604      	mov	r4, r0
    if (portmask & 0x1) {
1000f2ea:	d408      	bmi.n	1000f2fe <MXC_GPIO_Init+0x1a>
        MXC_SYS_ClockEnable(MXC_SYS_PERIPH_CLOCK_GPIO0);
    }

    if (portmask & 0x2) {
1000f2ec:	07a2      	lsls	r2, r4, #30
1000f2ee:	d40b      	bmi.n	1000f308 <MXC_GPIO_Init+0x24>
        MXC_SYS_ClockEnable(MXC_SYS_PERIPH_CLOCK_GPIO1);
    }

    if (portmask & 0x4) {
1000f2f0:	0763      	lsls	r3, r4, #29
1000f2f2:	d40e      	bmi.n	1000f312 <MXC_GPIO_Init+0x2e>
        MXC_SYS_ClockEnable(MXC_SYS_PERIPH_CLOCK_GPIO2);
    }

    return MXC_GPIO_Common_Init(portmask);
1000f2f4:	4620      	mov	r0, r4
}
1000f2f6:	e8bd 4010 	ldmia.w	sp!, {r4, lr}
    return MXC_GPIO_Common_Init(portmask);
1000f2fa:	f000 bccd 	b.w	1000fc98 <MXC_GPIO_Common_Init>
        MXC_SYS_ClockEnable(MXC_SYS_PERIPH_CLOCK_GPIO0);
1000f2fe:	2000      	movs	r0, #0
1000f300:	f7ff fee2 	bl	1000f0c8 <MXC_SYS_ClockEnable>
    if (portmask & 0x2) {
1000f304:	07a2      	lsls	r2, r4, #30
1000f306:	d5f3      	bpl.n	1000f2f0 <MXC_GPIO_Init+0xc>
        MXC_SYS_ClockEnable(MXC_SYS_PERIPH_CLOCK_GPIO1);
1000f308:	2001      	movs	r0, #1
1000f30a:	f7ff fedd 	bl	1000f0c8 <MXC_SYS_ClockEnable>
    if (portmask & 0x4) {
1000f30e:	0763      	lsls	r3, r4, #29
1000f310:	d5f0      	bpl.n	1000f2f4 <MXC_GPIO_Init+0x10>
        MXC_SYS_ClockEnable(MXC_SYS_PERIPH_CLOCK_GPIO2);
1000f312:	2040      	movs	r0, #64	@ 0x40
1000f314:	f7ff fed8 	bl	1000f0c8 <MXC_SYS_ClockEnable>
    return MXC_GPIO_Common_Init(portmask);
1000f318:	4620      	mov	r0, r4
}
1000f31a:	e8bd 4010 	ldmia.w	sp!, {r4, lr}
    return MXC_GPIO_Common_Init(portmask);
1000f31e:	f000 bcbb 	b.w	1000fc98 <MXC_GPIO_Common_Init>
1000f322:	bf00      	nop

1000f324 <MXC_GPIO_Config>:

    return E_NO_ERROR;
}

int MXC_GPIO_Config(const mxc_gpio_cfg_t *cfg)
{
1000f324:	b5f8      	push	{r3, r4, r5, r6, r7, lr}
    int port, error;
    mxc_gpio_regs_t *gpio = cfg->port;

    port = MXC_GPIO_GET_IDX(cfg->port);
1000f326:	4b8c      	ldr	r3, [pc, #560]	@ (1000f558 <MXC_GPIO_Config+0x234>)
    mxc_gpio_regs_t *gpio = cfg->port;
1000f328:	6805      	ldr	r5, [r0, #0]
    port = MXC_GPIO_GET_IDX(cfg->port);
1000f32a:	429d      	cmp	r5, r3
{
1000f32c:	4604      	mov	r4, r0
    port = MXC_GPIO_GET_IDX(cfg->port);
1000f32e:	d04b      	beq.n	1000f3c8 <MXC_GPIO_Config+0xa4>
1000f330:	f503 5380 	add.w	r3, r3, #4096	@ 0x1000
1000f334:	429d      	cmp	r5, r3
1000f336:	d014      	beq.n	1000f362 <MXC_GPIO_Config+0x3e>
1000f338:	4b88      	ldr	r3, [pc, #544]	@ (1000f55c <MXC_GPIO_Config+0x238>)
1000f33a:	429d      	cmp	r5, r3
1000f33c:	f000 80a2 	beq.w	1000f484 <MXC_GPIO_Config+0x160>
1000f340:	f503 7300 	add.w	r3, r3, #512	@ 0x200
1000f344:	429d      	cmp	r5, r3
1000f346:	d02c      	beq.n	1000f3a2 <MXC_GPIO_Config+0x7e>

    MXC_GPIO_Init(1 << port);
1000f348:	f04f 33ff 	mov.w	r3, #4294967295	@ 0xffffffff
1000f34c:	2001      	movs	r0, #1
1000f34e:	4098      	lsls	r0, r3
1000f350:	f7ff ffc8 	bl	1000f2e4 <MXC_GPIO_Init>

    // Configure the vssel
    error = MXC_GPIO_SetVSSEL(gpio, cfg->vssel, cfg->mask);
1000f354:	7aa1      	ldrb	r1, [r4, #10]
1000f356:	6862      	ldr	r2, [r4, #4]
        }

        return E_NO_ERROR;
    }

    return MXC_GPIO_RevA_SetVSSEL((mxc_gpio_reva_regs_t *)port, vssel, mask);
1000f358:	4628      	mov	r0, r5
1000f35a:	f000 f955 	bl	1000f608 <MXC_GPIO_RevA_SetVSSEL>
    if (error != E_NO_ERROR) {
1000f35e:	b150      	cbz	r0, 1000f376 <MXC_GPIO_Config+0x52>
}
1000f360:	bdf8      	pop	{r3, r4, r5, r6, r7, pc}
    MXC_GPIO_Init(1 << port);
1000f362:	2002      	movs	r0, #2
1000f364:	f7ff ffbe 	bl	1000f2e4 <MXC_GPIO_Init>
    error = MXC_GPIO_SetVSSEL(gpio, cfg->vssel, cfg->mask);
1000f368:	7aa1      	ldrb	r1, [r4, #10]
1000f36a:	6862      	ldr	r2, [r4, #4]
    return MXC_GPIO_RevA_SetVSSEL((mxc_gpio_reva_regs_t *)port, vssel, mask);
1000f36c:	4628      	mov	r0, r5
1000f36e:	f000 f94b 	bl	1000f608 <MXC_GPIO_RevA_SetVSSEL>
    if (error != E_NO_ERROR) {
1000f372:	2800      	cmp	r0, #0
1000f374:	d1f4      	bne.n	1000f360 <MXC_GPIO_Config+0x3c>
    if (cfg->port == MXC_GPIO3) {
1000f376:	4b7a      	ldr	r3, [pc, #488]	@ (1000f560 <MXC_GPIO_Config+0x23c>)
1000f378:	6822      	ldr	r2, [r4, #0]
        switch (cfg->func) {
1000f37a:	7a21      	ldrb	r1, [r4, #8]
    if (cfg->port == MXC_GPIO3) {
1000f37c:	429a      	cmp	r2, r3
1000f37e:	d01a      	beq.n	1000f3b6 <MXC_GPIO_Config+0x92>
        error = MXC_GPIO_RevA_SetAF((mxc_gpio_reva_regs_t *)gpio, cfg->func, cfg->mask);
1000f380:	6862      	ldr	r2, [r4, #4]
1000f382:	4628      	mov	r0, r5
1000f384:	f000 f956 	bl	1000f634 <MXC_GPIO_RevA_SetAF>
        if (error != E_NO_ERROR) {
1000f388:	2800      	cmp	r0, #0
1000f38a:	d1e9      	bne.n	1000f360 <MXC_GPIO_Config+0x3c>
        switch (cfg->pad) {
1000f38c:	7a63      	ldrb	r3, [r4, #9]
1000f38e:	2b04      	cmp	r3, #4
1000f390:	f200 80de 	bhi.w	1000f550 <MXC_GPIO_Config+0x22c>
1000f394:	e8df f013 	tbh	[pc, r3, lsl #1]
1000f398:	00ad00a2 	.word	0x00ad00a2
1000f39c:	00c400bc 	.word	0x00c400bc
1000f3a0:	00d4      	.short	0x00d4
    MXC_GPIO_Init(1 << port);
1000f3a2:	2008      	movs	r0, #8
1000f3a4:	f7ff ff9e 	bl	1000f2e4 <MXC_GPIO_Init>
        if (vssel == MXC_GPIO_VSSEL_VDDIO) {
1000f3a8:	7aa3      	ldrb	r3, [r4, #10]
1000f3aa:	b153      	cbz	r3, 1000f3c2 <MXC_GPIO_Config+0x9e>
    if (cfg->port == MXC_GPIO3) {
1000f3ac:	4b6c      	ldr	r3, [pc, #432]	@ (1000f560 <MXC_GPIO_Config+0x23c>)
1000f3ae:	6822      	ldr	r2, [r4, #0]
        switch (cfg->func) {
1000f3b0:	7a21      	ldrb	r1, [r4, #8]
    if (cfg->port == MXC_GPIO3) {
1000f3b2:	429a      	cmp	r2, r3
1000f3b4:	d1e4      	bne.n	1000f380 <MXC_GPIO_Config+0x5c>
        switch (cfg->func) {
1000f3b6:	2901      	cmp	r1, #1
1000f3b8:	d06a      	beq.n	1000f490 <MXC_GPIO_Config+0x16c>
1000f3ba:	2902      	cmp	r1, #2
1000f3bc:	d00a      	beq.n	1000f3d4 <MXC_GPIO_Config+0xb0>
1000f3be:	2900      	cmp	r1, #0
1000f3c0:	d07d      	beq.n	1000f4be <MXC_GPIO_Config+0x19a>
        return error;
1000f3c2:	f06f 0010 	mvn.w	r0, #16
}
1000f3c6:	bdf8      	pop	{r3, r4, r5, r6, r7, pc}
    MXC_GPIO_Init(1 << port);
1000f3c8:	2001      	movs	r0, #1
1000f3ca:	f7ff ff8b 	bl	1000f2e4 <MXC_GPIO_Init>
    error = MXC_GPIO_SetVSSEL(gpio, cfg->vssel, cfg->mask);
1000f3ce:	7aa1      	ldrb	r1, [r4, #10]
1000f3d0:	6862      	ldr	r2, [r4, #4]
    if (port == MXC_GPIO3) {
1000f3d2:	e7c1      	b.n	1000f358 <MXC_GPIO_Config+0x34>
            MXC_MCR->gpio3_ctrl |= P30_OUT_EN(cfg->mask) | P31_OUT_EN(cfg->mask);
1000f3d4:	6863      	ldr	r3, [r4, #4]
1000f3d6:	4863      	ldr	r0, [pc, #396]	@ (1000f564 <MXC_GPIO_Config+0x240>)
1000f3d8:	ea4f 0c43 	mov.w	ip, r3, lsl #1
1000f3dc:	011a      	lsls	r2, r3, #4
1000f3de:	6a06      	ldr	r6, [r0, #32]
1000f3e0:	f00c 0c02 	and.w	ip, ip, #2
1000f3e4:	f002 0220 	and.w	r2, r2, #32
1000f3e8:	ea42 020c 	orr.w	r2, r2, ip
1000f3ec:	4332      	orrs	r2, r6
1000f3ee:	6202      	str	r2, [r0, #32]
            MXC_MCR->outen |= SQWAVE_OUT_EN(cfg->mask) | PDOWN_OUT_EN(cfg->mask);
1000f3f0:	6882      	ldr	r2, [r0, #8]
1000f3f2:	f3c3 0340 	ubfx	r3, r3, #1, #1
1000f3f6:	ea43 030c 	orr.w	r3, r3, ip
1000f3fa:	4313      	orrs	r3, r2
1000f3fc:	6083      	str	r3, [r0, #8]
        switch (cfg->pad) {
1000f3fe:	7a63      	ldrb	r3, [r4, #9]
1000f400:	2b04      	cmp	r3, #4
1000f402:	d8de      	bhi.n	1000f3c2 <MXC_GPIO_Config+0x9e>
1000f404:	e8df f003 	tbb	[pc, r3]
1000f408:	1e031e29 	.word	0x1e031e29
1000f40c:	03          	.byte	0x03
1000f40d:	00          	.byte	0x00
            MXC_MCR->gpio3_ctrl &= ~(P30_DATA_OUT(cfg->mask) | P31_DATA_OUT(cfg->mask));
1000f40e:	6863      	ldr	r3, [r4, #4]
1000f410:	4854      	ldr	r0, [pc, #336]	@ (1000f564 <MXC_GPIO_Config+0x240>)
1000f412:	00da      	lsls	r2, r3, #3
1000f414:	6a06      	ldr	r6, [r0, #32]
1000f416:	f002 0210 	and.w	r2, r2, #16
1000f41a:	f003 0c01 	and.w	ip, r3, #1
1000f41e:	ea42 020c 	orr.w	r2, r2, ip
1000f422:	ea26 0202 	bic.w	r2, r6, r2
1000f426:	6202      	str	r2, [r0, #32]
            MXC_MCR->gpio3_ctrl &= ~(P30_PULL_DIS(cfg->mask) | P31_PULL_DIS(cfg->mask));
1000f428:	009a      	lsls	r2, r3, #2
1000f42a:	015b      	lsls	r3, r3, #5
1000f42c:	f002 0204 	and.w	r2, r2, #4
1000f430:	f003 0340 	and.w	r3, r3, #64	@ 0x40
1000f434:	4313      	orrs	r3, r2
1000f436:	6a02      	ldr	r2, [r0, #32]
1000f438:	ea22 0303 	bic.w	r3, r2, r3
1000f43c:	6203      	str	r3, [r0, #32]
    if (cfg->func == MXC_GPIO_FUNC_IN) {
1000f43e:	b9d1      	cbnz	r1, 1000f476 <MXC_GPIO_Config+0x152>
        return E_NO_ERROR;
1000f440:	4608      	mov	r0, r1
}
1000f442:	bdf8      	pop	{r3, r4, r5, r6, r7, pc}
            MXC_MCR->gpio3_ctrl |= P30_DATA_OUT(cfg->mask) | P31_DATA_OUT(cfg->mask);
1000f444:	4847      	ldr	r0, [pc, #284]	@ (1000f564 <MXC_GPIO_Config+0x240>)
1000f446:	6863      	ldr	r3, [r4, #4]
1000f448:	6a07      	ldr	r7, [r0, #32]
1000f44a:	00da      	lsls	r2, r3, #3
1000f44c:	f003 0601 	and.w	r6, r3, #1
1000f450:	f002 0210 	and.w	r2, r2, #16
1000f454:	433e      	orrs	r6, r7
1000f456:	4332      	orrs	r2, r6
1000f458:	e7e5      	b.n	1000f426 <MXC_GPIO_Config+0x102>
            MXC_MCR->gpio3_ctrl |= P30_PULL_DIS(cfg->mask) | P31_PULL_DIS(cfg->mask);
1000f45a:	6862      	ldr	r2, [r4, #4]
1000f45c:	4841      	ldr	r0, [pc, #260]	@ (1000f564 <MXC_GPIO_Config+0x240>)
1000f45e:	0093      	lsls	r3, r2, #2
1000f460:	0152      	lsls	r2, r2, #5
1000f462:	6a06      	ldr	r6, [r0, #32]
1000f464:	f003 0304 	and.w	r3, r3, #4
1000f468:	f002 0240 	and.w	r2, r2, #64	@ 0x40
1000f46c:	4313      	orrs	r3, r2
1000f46e:	4333      	orrs	r3, r6
1000f470:	6203      	str	r3, [r0, #32]
    if (cfg->func == MXC_GPIO_FUNC_IN) {
1000f472:	2900      	cmp	r1, #0
1000f474:	d0e4      	beq.n	1000f440 <MXC_GPIO_Config+0x11c>
}

/* ************************************************************************** */
int MXC_GPIO_SetDriveStrength(mxc_gpio_regs_t *port, mxc_gpio_drvstr_t drvstr, uint32_t mask)
{
    return MXC_GPIO_RevA_SetDriveStrength((mxc_gpio_reva_regs_t *)port, drvstr, mask);
1000f476:	6862      	ldr	r2, [r4, #4]
1000f478:	7ae1      	ldrb	r1, [r4, #11]
1000f47a:	4628      	mov	r0, r5
}
1000f47c:	e8bd 40f8 	ldmia.w	sp!, {r3, r4, r5, r6, r7, lr}
    return MXC_GPIO_RevA_SetDriveStrength((mxc_gpio_reva_regs_t *)port, drvstr, mask);
1000f480:	f000 b90e 	b.w	1000f6a0 <MXC_GPIO_RevA_SetDriveStrength>
    MXC_GPIO_Init(1 << port);
1000f484:	2004      	movs	r0, #4
1000f486:	f7ff ff2d 	bl	1000f2e4 <MXC_GPIO_Init>
    error = MXC_GPIO_SetVSSEL(gpio, cfg->vssel, cfg->mask);
1000f48a:	7aa1      	ldrb	r1, [r4, #10]
1000f48c:	6862      	ldr	r2, [r4, #4]
    if (port == MXC_GPIO3) {
1000f48e:	e763      	b.n	1000f358 <MXC_GPIO_Config+0x34>
            MXC_MCR->gpio3_ctrl |= P30_OUT_EN(cfg->mask) | P31_OUT_EN(cfg->mask);
1000f490:	6863      	ldr	r3, [r4, #4]
1000f492:	4834      	ldr	r0, [pc, #208]	@ (1000f564 <MXC_GPIO_Config+0x240>)
1000f494:	ea4f 0c43 	mov.w	ip, r3, lsl #1
1000f498:	011a      	lsls	r2, r3, #4
1000f49a:	6a06      	ldr	r6, [r0, #32]
1000f49c:	f00c 0c02 	and.w	ip, ip, #2
1000f4a0:	f002 0220 	and.w	r2, r2, #32
1000f4a4:	ea42 020c 	orr.w	r2, r2, ip
1000f4a8:	4332      	orrs	r2, r6
1000f4aa:	6202      	str	r2, [r0, #32]
            MXC_MCR->outen &= ~(SQWAVE_OUT_EN(cfg->mask) | PDOWN_OUT_EN(cfg->mask));
1000f4ac:	6882      	ldr	r2, [r0, #8]
1000f4ae:	f3c3 0340 	ubfx	r3, r3, #1, #1
1000f4b2:	ea43 030c 	orr.w	r3, r3, ip
1000f4b6:	ea22 0303 	bic.w	r3, r2, r3
1000f4ba:	6083      	str	r3, [r0, #8]
            break;
1000f4bc:	e79f      	b.n	1000f3fe <MXC_GPIO_Config+0xda>
            MXC_MCR->gpio3_ctrl &= ~(P30_OUT_EN(cfg->mask) | P31_OUT_EN(cfg->mask));
1000f4be:	6863      	ldr	r3, [r4, #4]
1000f4c0:	4828      	ldr	r0, [pc, #160]	@ (1000f564 <MXC_GPIO_Config+0x240>)
1000f4c2:	ea4f 0c43 	mov.w	ip, r3, lsl #1
1000f4c6:	011a      	lsls	r2, r3, #4
1000f4c8:	6a06      	ldr	r6, [r0, #32]
1000f4ca:	f00c 0c02 	and.w	ip, ip, #2
1000f4ce:	f002 0220 	and.w	r2, r2, #32
1000f4d2:	ea42 020c 	orr.w	r2, r2, ip
1000f4d6:	ea26 0202 	bic.w	r2, r6, r2
1000f4da:	e7e6      	b.n	1000f4aa <MXC_GPIO_Config+0x186>
            gpio->padctrl0 &= ~cfg->mask;
1000f4dc:	6e2b      	ldr	r3, [r5, #96]	@ 0x60
1000f4de:	6862      	ldr	r2, [r4, #4]
1000f4e0:	ea23 0302 	bic.w	r3, r3, r2
1000f4e4:	662b      	str	r3, [r5, #96]	@ 0x60
            gpio->padctrl1 &= ~cfg->mask;
1000f4e6:	6e6b      	ldr	r3, [r5, #100]	@ 0x64
1000f4e8:	ea23 0302 	bic.w	r3, r3, r2
1000f4ec:	666b      	str	r3, [r5, #100]	@ 0x64
    if (cfg->func == MXC_GPIO_FUNC_IN) {
1000f4ee:	7a21      	ldrb	r1, [r4, #8]
            break;
1000f4f0:	e7a5      	b.n	1000f43e <MXC_GPIO_Config+0x11a>
            gpio->padctrl0 |= cfg->mask;
1000f4f2:	6e2a      	ldr	r2, [r5, #96]	@ 0x60
1000f4f4:	6863      	ldr	r3, [r4, #4]
1000f4f6:	431a      	orrs	r2, r3
1000f4f8:	662a      	str	r2, [r5, #96]	@ 0x60
            gpio->padctrl1 &= ~cfg->mask;
1000f4fa:	6e6a      	ldr	r2, [r5, #100]	@ 0x64
1000f4fc:	ea22 0203 	bic.w	r2, r2, r3
            gpio->padctrl1 |= cfg->mask;
1000f500:	666a      	str	r2, [r5, #100]	@ 0x64
            gpio->ps |= cfg->mask;
1000f502:	f8d5 20b8 	ldr.w	r2, [r5, #184]	@ 0xb8
1000f506:	4313      	orrs	r3, r2
1000f508:	f8c5 30b8 	str.w	r3, [r5, #184]	@ 0xb8
    if (cfg->func == MXC_GPIO_FUNC_IN) {
1000f50c:	7a21      	ldrb	r1, [r4, #8]
            break;
1000f50e:	e796      	b.n	1000f43e <MXC_GPIO_Config+0x11a>
            gpio->padctrl0 &= ~cfg->mask;
1000f510:	6e2a      	ldr	r2, [r5, #96]	@ 0x60
1000f512:	6863      	ldr	r3, [r4, #4]
1000f514:	ea22 0203 	bic.w	r2, r2, r3
1000f518:	662a      	str	r2, [r5, #96]	@ 0x60
            gpio->padctrl1 |= cfg->mask;
1000f51a:	6e6a      	ldr	r2, [r5, #100]	@ 0x64
1000f51c:	431a      	orrs	r2, r3
1000f51e:	e7ef      	b.n	1000f500 <MXC_GPIO_Config+0x1dc>
            gpio->padctrl0 |= cfg->mask;
1000f520:	6e2b      	ldr	r3, [r5, #96]	@ 0x60
1000f522:	6862      	ldr	r2, [r4, #4]
1000f524:	4313      	orrs	r3, r2
1000f526:	662b      	str	r3, [r5, #96]	@ 0x60
            gpio->padctrl1 &= ~cfg->mask;
1000f528:	6e6b      	ldr	r3, [r5, #100]	@ 0x64
1000f52a:	ea23 0302 	bic.w	r3, r3, r2
            gpio->padctrl1 |= cfg->mask;
1000f52e:	666b      	str	r3, [r5, #100]	@ 0x64
            gpio->ps &= ~cfg->mask;
1000f530:	f8d5 30b8 	ldr.w	r3, [r5, #184]	@ 0xb8
1000f534:	ea23 0302 	bic.w	r3, r3, r2
1000f538:	f8c5 30b8 	str.w	r3, [r5, #184]	@ 0xb8
    if (cfg->func == MXC_GPIO_FUNC_IN) {
1000f53c:	7a21      	ldrb	r1, [r4, #8]
            break;
1000f53e:	e77e      	b.n	1000f43e <MXC_GPIO_Config+0x11a>
            gpio->padctrl0 &= ~cfg->mask;
1000f540:	6e2b      	ldr	r3, [r5, #96]	@ 0x60
1000f542:	6862      	ldr	r2, [r4, #4]
1000f544:	ea23 0302 	bic.w	r3, r3, r2
1000f548:	662b      	str	r3, [r5, #96]	@ 0x60
            gpio->padctrl1 |= cfg->mask;
1000f54a:	6e6b      	ldr	r3, [r5, #100]	@ 0x64
1000f54c:	4313      	orrs	r3, r2
1000f54e:	e7ee      	b.n	1000f52e <MXC_GPIO_Config+0x20a>
        switch (cfg->pad) {
1000f550:	f06f 0002 	mvn.w	r0, #2
}
1000f554:	bdf8      	pop	{r3, r4, r5, r6, r7, pc}
1000f556:	bf00      	nop
1000f558:	40008000 	.word	0x40008000
1000f55c:	40080400 	.word	0x40080400
1000f560:	40080600 	.word	0x40080600
1000f564:	40006c00 	.word	0x40006c00

1000f568 <MXC_GPIO_OutSet>:
    if (port == MXC_GPIO3) {
1000f568:	4a08      	ldr	r2, [pc, #32]	@ (1000f58c <MXC_GPIO_OutSet+0x24>)
1000f56a:	4290      	cmp	r0, r2
1000f56c:	d001      	beq.n	1000f572 <MXC_GPIO_OutSet+0xa>
    MXC_GPIO_RevA_OutSet((mxc_gpio_reva_regs_t *)port, mask);
1000f56e:	f000 b843 	b.w	1000f5f8 <MXC_GPIO_RevA_OutSet>
        MXC_MCR->gpio3_ctrl |= P30_DATA_OUT(mask) | P31_DATA_OUT(mask);
1000f572:	4807      	ldr	r0, [pc, #28]	@ (1000f590 <MXC_GPIO_OutSet+0x28>)
{
1000f574:	b410      	push	{r4}
        MXC_MCR->gpio3_ctrl |= P30_DATA_OUT(mask) | P31_DATA_OUT(mask);
1000f576:	6a04      	ldr	r4, [r0, #32]
1000f578:	00ca      	lsls	r2, r1, #3
1000f57a:	f001 0101 	and.w	r1, r1, #1
1000f57e:	4321      	orrs	r1, r4
1000f580:	f002 0310 	and.w	r3, r2, #16
1000f584:	430b      	orrs	r3, r1
}
1000f586:	bc10      	pop	{r4}
        MXC_MCR->gpio3_ctrl |= P30_DATA_OUT(mask) | P31_DATA_OUT(mask);
1000f588:	6203      	str	r3, [r0, #32]
}
1000f58a:	4770      	bx	lr
1000f58c:	40080600 	.word	0x40080600
1000f590:	40006c00 	.word	0x40006c00

1000f594 <MXC_GPIO_OutClr>:
    if (port == MXC_GPIO3) {
1000f594:	4a09      	ldr	r2, [pc, #36]	@ (1000f5bc <MXC_GPIO_OutClr+0x28>)
1000f596:	4290      	cmp	r0, r2
1000f598:	d001      	beq.n	1000f59e <MXC_GPIO_OutClr+0xa>
    MXC_GPIO_RevA_OutClr((mxc_gpio_reva_regs_t *)port, mask);
1000f59a:	f000 b82f 	b.w	1000f5fc <MXC_GPIO_RevA_OutClr>
{
1000f59e:	b410      	push	{r4}
        MXC_MCR->gpio3_ctrl &= ~(P30_DATA_OUT(mask) | P31_DATA_OUT(mask));
1000f5a0:	4c07      	ldr	r4, [pc, #28]	@ (1000f5c0 <MXC_GPIO_OutClr+0x2c>)
1000f5a2:	00ca      	lsls	r2, r1, #3
1000f5a4:	6a20      	ldr	r0, [r4, #32]
1000f5a6:	f002 0210 	and.w	r2, r2, #16
1000f5aa:	f001 0101 	and.w	r1, r1, #1
1000f5ae:	ea42 0301 	orr.w	r3, r2, r1
1000f5b2:	ea20 0303 	bic.w	r3, r0, r3
1000f5b6:	6223      	str	r3, [r4, #32]
}
1000f5b8:	bc10      	pop	{r4}
1000f5ba:	4770      	bx	lr
1000f5bc:	40080600 	.word	0x40080600
1000f5c0:	40006c00 	.word	0x40006c00

1000f5c4 <MXC_GPIO_Handler>:
    MXC_GPIO_Common_Handler(port);
1000f5c4:	f000 bb7a 	b.w	1000fcbc <MXC_GPIO_Common_Handler>

1000f5c8 <MXC_GPIO_ClearFlags>:
    if (port == MXC_GPIO3) {
1000f5c8:	4a03      	ldr	r2, [pc, #12]	@ (1000f5d8 <MXC_GPIO_ClearFlags+0x10>)
1000f5ca:	4290      	cmp	r0, r2
1000f5cc:	d001      	beq.n	1000f5d2 <MXC_GPIO_ClearFlags+0xa>
    MXC_GPIO_RevA_ClearFlags((mxc_gpio_reva_regs_t *)port, flags);
1000f5ce:	f000 b817 	b.w	1000f600 <MXC_GPIO_RevA_ClearFlags>
        MXC_PWRSEQ->lpwkst3 = flags;
1000f5d2:	4a02      	ldr	r2, [pc, #8]	@ (1000f5dc <MXC_GPIO_ClearFlags+0x14>)
1000f5d4:	61d1      	str	r1, [r2, #28]
}
1000f5d6:	4770      	bx	lr
1000f5d8:	40080600 	.word	0x40080600
1000f5dc:	40006800 	.word	0x40006800

1000f5e0 <MXC_GPIO_GetFlags>:
    if (port == MXC_GPIO3) {
1000f5e0:	4b03      	ldr	r3, [pc, #12]	@ (1000f5f0 <MXC_GPIO_GetFlags+0x10>)
1000f5e2:	4298      	cmp	r0, r3
1000f5e4:	d001      	beq.n	1000f5ea <MXC_GPIO_GetFlags+0xa>
    return MXC_GPIO_RevA_GetFlags((mxc_gpio_reva_regs_t *)port);
1000f5e6:	f000 b80d 	b.w	1000f604 <MXC_GPIO_RevA_GetFlags>
        return MXC_PWRSEQ->lpwkst3;
1000f5ea:	4b02      	ldr	r3, [pc, #8]	@ (1000f5f4 <MXC_GPIO_GetFlags+0x14>)
1000f5ec:	69d8      	ldr	r0, [r3, #28]
}
1000f5ee:	4770      	bx	lr
1000f5f0:	40080600 	.word	0x40080600
1000f5f4:	40006800 	.word	0x40006800

1000f5f8 <MXC_GPIO_RevA_OutSet>:
    return (port->in & mask);
}

void MXC_GPIO_RevA_OutSet(mxc_gpio_reva_regs_t *port, uint32_t mask)
{
    port->out_set = mask;
1000f5f8:	61c1      	str	r1, [r0, #28]
}
1000f5fa:	4770      	bx	lr

1000f5fc <MXC_GPIO_RevA_OutClr>:

void MXC_GPIO_RevA_OutClr(mxc_gpio_reva_regs_t *port, uint32_t mask)
{
    port->out_clr = mask;
1000f5fc:	6201      	str	r1, [r0, #32]
}
1000f5fe:	4770      	bx	lr

1000f600 <MXC_GPIO_RevA_ClearFlags>:
    port->inten_clr = mask;
}

void MXC_GPIO_RevA_ClearFlags(mxc_gpio_reva_regs_t *port, uint32_t flags)
{
    port->intfl_clr = flags;
1000f600:	6481      	str	r1, [r0, #72]	@ 0x48
}
1000f602:	4770      	bx	lr

1000f604 <MXC_GPIO_RevA_GetFlags>:

uint32_t MXC_GPIO_RevA_GetFlags(mxc_gpio_reva_regs_t *port)
{
    return port->intfl;
1000f604:	6c00      	ldr	r0, [r0, #64]	@ 0x40
}
1000f606:	4770      	bx	lr

1000f608 <MXC_GPIO_RevA_SetVSSEL>:

int MXC_GPIO_RevA_SetVSSEL(mxc_gpio_reva_regs_t *port, mxc_gpio_vssel_t vssel, uint32_t mask)
{
    // Configure the vssel
    switch (vssel) {
1000f608:	b159      	cbz	r1, 1000f622 <MXC_GPIO_RevA_SetVSSEL+0x1a>
1000f60a:	2901      	cmp	r1, #1
1000f60c:	d106      	bne.n	1000f61c <MXC_GPIO_RevA_SetVSSEL+0x14>
    case MXC_GPIO_VSSEL_VDDIO:
        port->vssel &= ~mask;
        break;

    case MXC_GPIO_VSSEL_VDDIOH:
        port->vssel |= mask;
1000f60e:	f8d0 30c0 	ldr.w	r3, [r0, #192]	@ 0xc0
1000f612:	4313      	orrs	r3, r2
1000f614:	f8c0 30c0 	str.w	r3, [r0, #192]	@ 0xc0

    default:
        return E_BAD_PARAM;
    }

    return E_NO_ERROR;
1000f618:	2000      	movs	r0, #0
}
1000f61a:	4770      	bx	lr
    switch (vssel) {
1000f61c:	f06f 0002 	mvn.w	r0, #2
1000f620:	4770      	bx	lr
        port->vssel &= ~mask;
1000f622:	f8d0 30c0 	ldr.w	r3, [r0, #192]	@ 0xc0
1000f626:	ea23 0302 	bic.w	r3, r3, r2
1000f62a:	f8c0 30c0 	str.w	r3, [r0, #192]	@ 0xc0
    return E_NO_ERROR;
1000f62e:	2000      	movs	r0, #0
}
1000f630:	4770      	bx	lr
1000f632:	bf00      	nop

1000f634 <MXC_GPIO_RevA_SetAF>:

int MXC_GPIO_RevA_SetAF(mxc_gpio_reva_regs_t *port, mxc_gpio_func_t func, uint32_t mask)
{
    //This is required for new devices going forward.
    port->inen |= mask;
1000f634:	6b03      	ldr	r3, [r0, #48]	@ 0x30
1000f636:	4313      	orrs	r3, r2
1000f638:	6303      	str	r3, [r0, #48]	@ 0x30

    //Switch to I/O mode first
    port->en0_set = mask;
1000f63a:	6042      	str	r2, [r0, #4]

    switch (func) {
1000f63c:	2905      	cmp	r1, #5
1000f63e:	d82c      	bhi.n	1000f69a <MXC_GPIO_RevA_SetAF+0x66>
1000f640:	e8df f001 	tbb	[pc, r1]
1000f644:	1f19120a 	.word	0x1f19120a
1000f648:	0325      	.short	0x0325
        port->en1_clr = mask;
        port->en0_clr = mask;
        break;

    case MXC_GPIO_FUNC_ALT4:
        port->en3_clr = mask;
1000f64a:	f8c0 2088 	str.w	r2, [r0, #136]	@ 0x88
        port->en2_set = mask;
1000f64e:	6782      	str	r2, [r0, #120]	@ 0x78
        port->en1_set = mask;
1000f650:	66c2      	str	r2, [r0, #108]	@ 0x6c
        port->en0_clr = mask;
1000f652:	6082      	str	r2, [r0, #8]
#endif
    default:
        return E_BAD_PARAM;
    }

    return E_NO_ERROR;
1000f654:	2000      	movs	r0, #0
1000f656:	4770      	bx	lr
        port->outen_clr = mask;
1000f658:	6142      	str	r2, [r0, #20]
        port->en0_set = mask;
1000f65a:	6042      	str	r2, [r0, #4]
        port->en1_clr = mask;
1000f65c:	6702      	str	r2, [r0, #112]	@ 0x70
        port->en2_clr = mask;
1000f65e:	67c2      	str	r2, [r0, #124]	@ 0x7c
        port->en3_clr = mask;
1000f660:	f8c0 2088 	str.w	r2, [r0, #136]	@ 0x88
    return E_NO_ERROR;
1000f664:	2000      	movs	r0, #0
1000f666:	4770      	bx	lr
        port->outen_set = mask;
1000f668:	6102      	str	r2, [r0, #16]
        port->en0_set = mask;
1000f66a:	6042      	str	r2, [r0, #4]
        port->en1_clr = mask;
1000f66c:	6702      	str	r2, [r0, #112]	@ 0x70
        port->en2_clr = mask;
1000f66e:	67c2      	str	r2, [r0, #124]	@ 0x7c
        port->en3_clr = mask;
1000f670:	f8c0 2088 	str.w	r2, [r0, #136]	@ 0x88
        break;
1000f674:	e7ee      	b.n	1000f654 <MXC_GPIO_RevA_SetAF+0x20>
        port->en3_clr = mask;
1000f676:	f8c0 2088 	str.w	r2, [r0, #136]	@ 0x88
        port->en2_clr = mask;
1000f67a:	67c2      	str	r2, [r0, #124]	@ 0x7c
        port->en1_clr = mask;
1000f67c:	6702      	str	r2, [r0, #112]	@ 0x70
        port->en0_clr = mask;
1000f67e:	6082      	str	r2, [r0, #8]
        break;
1000f680:	e7e8      	b.n	1000f654 <MXC_GPIO_RevA_SetAF+0x20>
        port->en3_clr = mask;
1000f682:	f8c0 2088 	str.w	r2, [r0, #136]	@ 0x88
        port->en2_clr = mask;
1000f686:	67c2      	str	r2, [r0, #124]	@ 0x7c
        port->en1_set = mask;
1000f688:	66c2      	str	r2, [r0, #108]	@ 0x6c
        port->en0_clr = mask;
1000f68a:	6082      	str	r2, [r0, #8]
        break;
1000f68c:	e7e2      	b.n	1000f654 <MXC_GPIO_RevA_SetAF+0x20>
        port->en3_clr = mask;
1000f68e:	f8c0 2088 	str.w	r2, [r0, #136]	@ 0x88
        port->en2_set = mask;
1000f692:	6782      	str	r2, [r0, #120]	@ 0x78
        port->en1_clr = mask;
1000f694:	6702      	str	r2, [r0, #112]	@ 0x70
        port->en0_clr = mask;
1000f696:	6082      	str	r2, [r0, #8]
        break;
1000f698:	e7dc      	b.n	1000f654 <MXC_GPIO_RevA_SetAF+0x20>
    switch (func) {
1000f69a:	f06f 0002 	mvn.w	r0, #2
}
1000f69e:	4770      	bx	lr

1000f6a0 <MXC_GPIO_RevA_SetDriveStrength>:

int MXC_GPIO_RevA_SetDriveStrength(mxc_gpio_reva_regs_t *port, mxc_gpio_drvstr_t drvstr,
                                   uint32_t mask)
{
    // Configure the drive strength.
    switch (drvstr) {
1000f6a0:	2903      	cmp	r1, #3
1000f6a2:	d829      	bhi.n	1000f6f8 <MXC_GPIO_RevA_SetDriveStrength+0x58>
1000f6a4:	e8df f001 	tbb	[pc, r1]
1000f6a8:	1c020f28 	.word	0x1c020f28
        port->ds0 |= mask;
        port->ds1 &= ~mask;
        break;

    case MXC_GPIO_DRVSTR_2:
        port->ds0 &= ~mask;
1000f6ac:	f8d0 30b0 	ldr.w	r3, [r0, #176]	@ 0xb0
1000f6b0:	ea23 0302 	bic.w	r3, r3, r2
1000f6b4:	f8c0 30b0 	str.w	r3, [r0, #176]	@ 0xb0
        port->ds1 |= mask;
1000f6b8:	f8d0 30b4 	ldr.w	r3, [r0, #180]	@ 0xb4
1000f6bc:	4313      	orrs	r3, r2
1000f6be:	f8c0 30b4 	str.w	r3, [r0, #180]	@ 0xb4
        port->ds0 &= ~mask;
        port->ds1 &= ~mask;
    }

    return E_NO_ERROR;
}
1000f6c2:	2000      	movs	r0, #0
1000f6c4:	4770      	bx	lr
        port->ds0 |= mask;
1000f6c6:	f8d0 30b0 	ldr.w	r3, [r0, #176]	@ 0xb0
1000f6ca:	4313      	orrs	r3, r2
1000f6cc:	f8c0 30b0 	str.w	r3, [r0, #176]	@ 0xb0
        port->ds1 &= ~mask;
1000f6d0:	f8d0 30b4 	ldr.w	r3, [r0, #180]	@ 0xb4
1000f6d4:	ea23 0302 	bic.w	r3, r3, r2
1000f6d8:	f8c0 30b4 	str.w	r3, [r0, #180]	@ 0xb4
}
1000f6dc:	2000      	movs	r0, #0
1000f6de:	4770      	bx	lr
        port->ds0 |= mask;
1000f6e0:	f8d0 30b0 	ldr.w	r3, [r0, #176]	@ 0xb0
1000f6e4:	4313      	orrs	r3, r2
1000f6e6:	f8c0 30b0 	str.w	r3, [r0, #176]	@ 0xb0
        port->ds1 |= mask;
1000f6ea:	f8d0 30b4 	ldr.w	r3, [r0, #180]	@ 0xb4
1000f6ee:	4313      	orrs	r3, r2
1000f6f0:	f8c0 30b4 	str.w	r3, [r0, #180]	@ 0xb4
}
1000f6f4:	2000      	movs	r0, #0
1000f6f6:	4770      	bx	lr
        port->ds0 &= ~mask;
1000f6f8:	f8d0 30b0 	ldr.w	r3, [r0, #176]	@ 0xb0
1000f6fc:	ea23 0302 	bic.w	r3, r3, r2
1000f700:	f8c0 30b0 	str.w	r3, [r0, #176]	@ 0xb0
        port->ds1 &= ~mask;
1000f704:	f8d0 30b4 	ldr.w	r3, [r0, #180]	@ 0xb4
1000f708:	ea23 0302 	bic.w	r3, r3, r2
1000f70c:	f8c0 30b4 	str.w	r3, [r0, #180]	@ 0xb4
}
1000f710:	2000      	movs	r0, #0
1000f712:	4770      	bx	lr

1000f714 <MXC_ICC_Enable>:
    return MXC_ICC_RevA_ID((mxc_icc_reva_regs_t *)icc, cid);
}

void MXC_ICC_Enable(mxc_icc_regs_t *icc)
{
    MXC_ICC_RevA_Enable((mxc_icc_reva_regs_t *)icc);
1000f714:	f000 b802 	b.w	1000f71c <MXC_ICC_RevA_Enable>

1000f718 <MXC_ICC_Disable>:
}

void MXC_ICC_Disable(mxc_icc_regs_t *icc)
{
    MXC_ICC_RevA_Disable((mxc_icc_reva_regs_t *)icc);
1000f718:	f000 b818 	b.w	1000f74c <MXC_ICC_RevA_Disable>

1000f71c <MXC_ICC_RevA_Enable>:
}

void MXC_ICC_RevA_Enable(mxc_icc_reva_regs_t *icc)
{
    // Invalidate cache and wait until ready
    icc->ctrl &= ~MXC_F_ICC_REVA_CTRL_EN;
1000f71c:	f8d0 3100 	ldr.w	r3, [r0, #256]	@ 0x100
    icc->invalidate = 1;
1000f720:	2201      	movs	r2, #1
    icc->ctrl &= ~MXC_F_ICC_REVA_CTRL_EN;
1000f722:	f023 0301 	bic.w	r3, r3, #1
1000f726:	f8c0 3100 	str.w	r3, [r0, #256]	@ 0x100
    icc->invalidate = 1;
1000f72a:	f8c0 2700 	str.w	r2, [r0, #1792]	@ 0x700
    return (icc->ctrl & MXC_F_ICC_REVA_CTRL_RDY);
1000f72e:	f8d0 3100 	ldr.w	r3, [r0, #256]	@ 0x100

    while (!(MXC_ICC_Ready(icc))) {}
1000f732:	03da      	lsls	r2, r3, #15
1000f734:	d5fb      	bpl.n	1000f72e <MXC_ICC_RevA_Enable+0x12>

    // Enable Cache
    icc->ctrl |= MXC_F_ICC_REVA_CTRL_EN;
1000f736:	f8d0 3100 	ldr.w	r3, [r0, #256]	@ 0x100
1000f73a:	f043 0301 	orr.w	r3, r3, #1
1000f73e:	f8c0 3100 	str.w	r3, [r0, #256]	@ 0x100
    return (icc->ctrl & MXC_F_ICC_REVA_CTRL_RDY);
1000f742:	f8d0 3100 	ldr.w	r3, [r0, #256]	@ 0x100
    while (!(MXC_ICC_Ready(icc))) {}
1000f746:	03db      	lsls	r3, r3, #15
1000f748:	d5fb      	bpl.n	1000f742 <MXC_ICC_RevA_Enable+0x26>
}
1000f74a:	4770      	bx	lr

1000f74c <MXC_ICC_RevA_Disable>:

void MXC_ICC_RevA_Disable(mxc_icc_reva_regs_t *icc)
{
    // Disable Cache
    icc->ctrl &= ~MXC_F_ICC_REVA_CTRL_EN;
1000f74c:	f8d0 3100 	ldr.w	r3, [r0, #256]	@ 0x100
1000f750:	f023 0301 	bic.w	r3, r3, #1
1000f754:	f8c0 3100 	str.w	r3, [r0, #256]	@ 0x100
}
1000f758:	4770      	bx	lr
1000f75a:	bf00      	nop

1000f75c <MXC_UART_Shutdown>:

    return MXC_UART_RevB_Init((mxc_uart_revb_regs_t *)uart, baud, clock);
}

int MXC_UART_Shutdown(mxc_uart_regs_t *uart)
{
1000f75c:	b508      	push	{r3, lr}
    switch (MXC_UART_GET_IDX(uart)) {
1000f75e:	4b16      	ldr	r3, [pc, #88]	@ (1000f7b8 <MXC_UART_Shutdown+0x5c>)
1000f760:	4298      	cmp	r0, r3
1000f762:	d010      	beq.n	1000f786 <MXC_UART_Shutdown+0x2a>
1000f764:	4b15      	ldr	r3, [pc, #84]	@ (1000f7bc <MXC_UART_Shutdown+0x60>)
1000f766:	4298      	cmp	r0, r3
1000f768:	d014      	beq.n	1000f794 <MXC_UART_Shutdown+0x38>
1000f76a:	4b15      	ldr	r3, [pc, #84]	@ (1000f7c0 <MXC_UART_Shutdown+0x64>)
1000f76c:	4298      	cmp	r0, r3
1000f76e:	d018      	beq.n	1000f7a2 <MXC_UART_Shutdown+0x46>
1000f770:	4b14      	ldr	r3, [pc, #80]	@ (1000f7c4 <MXC_UART_Shutdown+0x68>)
1000f772:	4298      	cmp	r0, r3
1000f774:	d11c      	bne.n	1000f7b0 <MXC_UART_Shutdown+0x54>
        MXC_SYS_Reset_Periph(MXC_SYS_RESET0_UART2);
        MXC_SYS_ClockDisable(MXC_SYS_PERIPH_CLOCK_UART2);
        break;

    case 3:
        MXC_SYS_Reset_Periph(MXC_SYS_RESET_UART3);
1000f776:	2044      	movs	r0, #68	@ 0x44
1000f778:	f7ff fd42 	bl	1000f200 <MXC_SYS_Reset_Periph>
        MXC_SYS_ClockDisable(MXC_SYS_PERIPH_CLOCK_UART3);
1000f77c:	2044      	movs	r0, #68	@ 0x44
1000f77e:	f7ff fc83 	bl	1000f088 <MXC_SYS_ClockDisable>

    default:
        return E_BAD_PARAM;
    }

    return E_NO_ERROR;
1000f782:	2000      	movs	r0, #0
}
1000f784:	bd08      	pop	{r3, pc}
        MXC_SYS_Reset_Periph(MXC_SYS_RESET0_UART0);
1000f786:	200b      	movs	r0, #11
1000f788:	f7ff fd3a 	bl	1000f200 <MXC_SYS_Reset_Periph>
        MXC_SYS_ClockDisable(MXC_SYS_PERIPH_CLOCK_UART0);
1000f78c:	2009      	movs	r0, #9
1000f78e:	f7ff fc7b 	bl	1000f088 <MXC_SYS_ClockDisable>
        break;
1000f792:	e7f6      	b.n	1000f782 <MXC_UART_Shutdown+0x26>
        MXC_SYS_Reset_Periph(MXC_SYS_RESET0_UART1);
1000f794:	200c      	movs	r0, #12
1000f796:	f7ff fd33 	bl	1000f200 <MXC_SYS_Reset_Periph>
        MXC_SYS_ClockDisable(MXC_SYS_PERIPH_CLOCK_UART1);
1000f79a:	200a      	movs	r0, #10
1000f79c:	f7ff fc74 	bl	1000f088 <MXC_SYS_ClockDisable>
        break;
1000f7a0:	e7ef      	b.n	1000f782 <MXC_UART_Shutdown+0x26>
        MXC_SYS_Reset_Periph(MXC_SYS_RESET0_UART2);
1000f7a2:	201c      	movs	r0, #28
1000f7a4:	f7ff fd2c 	bl	1000f200 <MXC_SYS_Reset_Periph>
        MXC_SYS_ClockDisable(MXC_SYS_PERIPH_CLOCK_UART2);
1000f7a8:	2021      	movs	r0, #33	@ 0x21
1000f7aa:	f7ff fc6d 	bl	1000f088 <MXC_SYS_ClockDisable>
        break;
1000f7ae:	e7e8      	b.n	1000f782 <MXC_UART_Shutdown+0x26>
        return E_BAD_PARAM;
1000f7b0:	f06f 0002 	mvn.w	r0, #2
}
1000f7b4:	bd08      	pop	{r3, pc}
1000f7b6:	bf00      	nop
1000f7b8:	40042000 	.word	0x40042000
1000f7bc:	40043000 	.word	0x40043000
1000f7c0:	40044000 	.word	0x40044000
1000f7c4:	40081400 	.word	0x40081400

1000f7c8 <MXC_UART_Init>:
{
1000f7c8:	b570      	push	{r4, r5, r6, lr}
1000f7ca:	4604      	mov	r4, r0
1000f7cc:	460e      	mov	r6, r1
1000f7ce:	4615      	mov	r5, r2
    retval = MXC_UART_Shutdown(uart);
1000f7d0:	f7ff ffc4 	bl	1000f75c <MXC_UART_Shutdown>
    if (retval) {
1000f7d4:	bba0      	cbnz	r0, 1000f840 <MXC_UART_Init+0x78>
    switch (clock) {
1000f7d6:	2d02      	cmp	r5, #2
1000f7d8:	d01d      	beq.n	1000f816 <MXC_UART_Init+0x4e>
1000f7da:	2d04      	cmp	r5, #4
1000f7dc:	d102      	bne.n	1000f7e4 <MXC_UART_Init+0x1c>
        MXC_SYS_ClockSourceEnable(MXC_SYS_CLOCK_ERTCO);
1000f7de:	2006      	movs	r0, #6
1000f7e0:	f7ff fc94 	bl	1000f10c <MXC_SYS_ClockSourceEnable>
    switch (MXC_UART_GET_IDX(uart)) {
1000f7e4:	4b1e      	ldr	r3, [pc, #120]	@ (1000f860 <MXC_UART_Init+0x98>)
1000f7e6:	429c      	cmp	r4, r3
1000f7e8:	d01b      	beq.n	1000f822 <MXC_UART_Init+0x5a>
1000f7ea:	4b1e      	ldr	r3, [pc, #120]	@ (1000f864 <MXC_UART_Init+0x9c>)
1000f7ec:	429c      	cmp	r4, r3
1000f7ee:	d028      	beq.n	1000f842 <MXC_UART_Init+0x7a>
1000f7f0:	4b1d      	ldr	r3, [pc, #116]	@ (1000f868 <MXC_UART_Init+0xa0>)
1000f7f2:	429c      	cmp	r4, r3
1000f7f4:	d02c      	beq.n	1000f850 <MXC_UART_Init+0x88>
1000f7f6:	4b1d      	ldr	r3, [pc, #116]	@ (1000f86c <MXC_UART_Init+0xa4>)
1000f7f8:	429c      	cmp	r4, r3
1000f7fa:	d11f      	bne.n	1000f83c <MXC_UART_Init+0x74>
        MXC_GPIO_Config(&gpio_cfg_uart3);
1000f7fc:	481c      	ldr	r0, [pc, #112]	@ (1000f870 <MXC_UART_Init+0xa8>)
1000f7fe:	f7ff fd91 	bl	1000f324 <MXC_GPIO_Config>
        MXC_SYS_ClockEnable(MXC_SYS_PERIPH_CLOCK_UART3);
1000f802:	2044      	movs	r0, #68	@ 0x44
1000f804:	f7ff fc60 	bl	1000f0c8 <MXC_SYS_ClockEnable>
    return MXC_UART_RevB_Init((mxc_uart_revb_regs_t *)uart, baud, clock);
1000f808:	462a      	mov	r2, r5
1000f80a:	4631      	mov	r1, r6
1000f80c:	4620      	mov	r0, r4
}
1000f80e:	e8bd 4070 	ldmia.w	sp!, {r4, r5, r6, lr}
    return MXC_UART_RevB_Init((mxc_uart_revb_regs_t *)uart, baud, clock);
1000f812:	f000 b8f5 	b.w	1000fa00 <MXC_UART_RevB_Init>
        MXC_SYS_ClockSourceEnable(MXC_SYS_CLOCK_IBRO);
1000f816:	2005      	movs	r0, #5
1000f818:	f7ff fc78 	bl	1000f10c <MXC_SYS_ClockSourceEnable>
    switch (MXC_UART_GET_IDX(uart)) {
1000f81c:	4b10      	ldr	r3, [pc, #64]	@ (1000f860 <MXC_UART_Init+0x98>)
1000f81e:	429c      	cmp	r4, r3
1000f820:	d1e3      	bne.n	1000f7ea <MXC_UART_Init+0x22>
        MXC_GPIO_Config(&gpio_cfg_uart0);
1000f822:	4814      	ldr	r0, [pc, #80]	@ (1000f874 <MXC_UART_Init+0xac>)
1000f824:	f7ff fd7e 	bl	1000f324 <MXC_GPIO_Config>
        MXC_SYS_ClockEnable(MXC_SYS_PERIPH_CLOCK_UART0);
1000f828:	2009      	movs	r0, #9
1000f82a:	f7ff fc4d 	bl	1000f0c8 <MXC_SYS_ClockEnable>
    return MXC_UART_RevB_Init((mxc_uart_revb_regs_t *)uart, baud, clock);
1000f82e:	462a      	mov	r2, r5
1000f830:	4631      	mov	r1, r6
1000f832:	4620      	mov	r0, r4
}
1000f834:	e8bd 4070 	ldmia.w	sp!, {r4, r5, r6, lr}
    return MXC_UART_RevB_Init((mxc_uart_revb_regs_t *)uart, baud, clock);
1000f838:	f000 b8e2 	b.w	1000fa00 <MXC_UART_RevB_Init>
        return E_BAD_PARAM;
1000f83c:	f06f 0002 	mvn.w	r0, #2
}
1000f840:	bd70      	pop	{r4, r5, r6, pc}
        MXC_GPIO_Config(&gpio_cfg_uart1);
1000f842:	480d      	ldr	r0, [pc, #52]	@ (1000f878 <MXC_UART_Init+0xb0>)
1000f844:	f7ff fd6e 	bl	1000f324 <MXC_GPIO_Config>
        MXC_SYS_ClockEnable(MXC_SYS_PERIPH_CLOCK_UART1);
1000f848:	200a      	movs	r0, #10
1000f84a:	f7ff fc3d 	bl	1000f0c8 <MXC_SYS_ClockEnable>
        break;
1000f84e:	e7db      	b.n	1000f808 <MXC_UART_Init+0x40>
        MXC_GPIO_Config(&gpio_cfg_uart2);
1000f850:	480a      	ldr	r0, [pc, #40]	@ (1000f87c <MXC_UART_Init+0xb4>)
1000f852:	f7ff fd67 	bl	1000f324 <MXC_GPIO_Config>
        MXC_SYS_ClockEnable(MXC_SYS_PERIPH_CLOCK_UART2);
1000f856:	2021      	movs	r0, #33	@ 0x21
1000f858:	f7ff fc36 	bl	1000f0c8 <MXC_SYS_ClockEnable>
        break;
1000f85c:	e7d4      	b.n	1000f808 <MXC_UART_Init+0x40>
1000f85e:	bf00      	nop
1000f860:	40042000 	.word	0x40042000
1000f864:	40043000 	.word	0x40043000
1000f868:	40044000 	.word	0x40044000
1000f86c:	40081400 	.word	0x40081400
1000f870:	10017e14 	.word	0x10017e14
1000f874:	10017e38 	.word	0x10017e38
1000f878:	10017e2c 	.word	0x10017e2c
1000f87c:	10017e20 	.word	0x10017e20

1000f880 <MXC_UART_SetFrequency>:
}

int MXC_UART_SetFrequency(mxc_uart_regs_t *uart, unsigned int baud, mxc_uart_clock_t clock)
{
    int frequency, clkDiv = 0, mod = 0;
    if (MXC_UART_GET_IDX(uart) < 0) {
1000f880:	4b31      	ldr	r3, [pc, #196]	@ (1000f948 <MXC_UART_SetFrequency+0xc8>)
1000f882:	4298      	cmp	r0, r3
{
1000f884:	b510      	push	{r4, lr}
1000f886:	4604      	mov	r4, r0
    if (MXC_UART_GET_IDX(uart) < 0) {
1000f888:	d016      	beq.n	1000f8b8 <MXC_UART_SetFrequency+0x38>
1000f88a:	f503 5380 	add.w	r3, r3, #4096	@ 0x1000
1000f88e:	4298      	cmp	r0, r3
1000f890:	d012      	beq.n	1000f8b8 <MXC_UART_SetFrequency+0x38>
1000f892:	f503 5380 	add.w	r3, r3, #4096	@ 0x1000
1000f896:	4298      	cmp	r0, r3
1000f898:	d00e      	beq.n	1000f8b8 <MXC_UART_SetFrequency+0x38>
1000f89a:	f503 3375 	add.w	r3, r3, #250880	@ 0x3d400
1000f89e:	4298      	cmp	r0, r3
1000f8a0:	d107      	bne.n	1000f8b2 <MXC_UART_SetFrequency+0x32>
    }

    // check if the uart is LPUART
    if (uart == MXC_UART3) {
        // OSR default value
        uart->osr = 5;
1000f8a2:	2305      	movs	r3, #5

        switch (clock) {
1000f8a4:	2a02      	cmp	r2, #2
        uart->osr = 5;
1000f8a6:	6143      	str	r3, [r0, #20]
        switch (clock) {
1000f8a8:	d045      	beq.n	1000f936 <MXC_UART_SetFrequency+0xb6>
1000f8aa:	2a04      	cmp	r2, #4
1000f8ac:	d013      	beq.n	1000f8d6 <MXC_UART_SetFrequency+0x56>
1000f8ae:	2a00      	cmp	r2, #0
1000f8b0:	d041      	beq.n	1000f936 <MXC_UART_SetFrequency+0xb6>
        return E_BAD_PARAM;
1000f8b2:	f06f 0002 	mvn.w	r0, #2
        uart->ctrl |= MXC_F_UART_CTRL_BCLKEN;
        while (((uart->ctrl & MXC_F_UART_CTRL_BCLKRDY) >> MXC_F_UART_CTRL_BCLKRDY_POS) == 0) {}
    }

    return frequency;
}
1000f8b6:	bd10      	pop	{r4, pc}
        if (clock == MXC_UART_ERTCO_CLK) {
1000f8b8:	2a04      	cmp	r2, #4
1000f8ba:	d0fa      	beq.n	1000f8b2 <MXC_UART_SetFrequency+0x32>
        frequency = MXC_UART_RevB_SetFrequency((mxc_uart_revb_regs_t *)uart, baud, clock);
1000f8bc:	4620      	mov	r0, r4
1000f8be:	f000 f8f5 	bl	1000faac <MXC_UART_RevB_SetFrequency>
    if (frequency > 0) {
1000f8c2:	2800      	cmp	r0, #0
1000f8c4:	ddf7      	ble.n	1000f8b6 <MXC_UART_SetFrequency+0x36>
        uart->ctrl |= MXC_F_UART_CTRL_BCLKEN;
1000f8c6:	6823      	ldr	r3, [r4, #0]
1000f8c8:	f443 4300 	orr.w	r3, r3, #32768	@ 0x8000
1000f8cc:	6023      	str	r3, [r4, #0]
        while (((uart->ctrl & MXC_F_UART_CTRL_BCLKRDY) >> MXC_F_UART_CTRL_BCLKRDY_POS) == 0) {}
1000f8ce:	6823      	ldr	r3, [r4, #0]
1000f8d0:	031b      	lsls	r3, r3, #12
1000f8d2:	d5fc      	bpl.n	1000f8ce <MXC_UART_SetFrequency+0x4e>
}
1000f8d4:	bd10      	pop	{r4, pc}
            uart->ctrl |= MXC_S_UART_CTRL_BCLKSRC_EXTERNAL_CLOCK;
1000f8d6:	6802      	ldr	r2, [r0, #0]
            clkDiv = ((ERTCO_FREQ * 2) / baud);
1000f8d8:	f44f 3380 	mov.w	r3, #65536	@ 0x10000
            uart->ctrl |= MXC_S_UART_CTRL_BCLKSRC_EXTERNAL_CLOCK;
1000f8dc:	431a      	orrs	r2, r3
1000f8de:	6002      	str	r2, [r0, #0]
            uart->ctrl |= MXC_F_UART_CTRL_FDM;
1000f8e0:	6800      	ldr	r0, [r0, #0]
            clkDiv = ((ERTCO_FREQ * 2) / baud);
1000f8e2:	fbb3 f3f1 	udiv	r3, r3, r1
            uart->ctrl |= MXC_F_UART_CTRL_FDM;
1000f8e6:	f440 1000 	orr.w	r0, r0, #2097152	@ 0x200000
            mod = ((ERTCO_FREQ * 2) % baud);
1000f8ea:	fb01 f203 	mul.w	r2, r1, r3
            if (baud > 2400) {
1000f8ee:	f5b1 6f16 	cmp.w	r1, #2400	@ 0x960
            uart->ctrl |= MXC_F_UART_CTRL_FDM;
1000f8f2:	6020      	str	r0, [r4, #0]
            mod = ((ERTCO_FREQ * 2) % baud);
1000f8f4:	f5c2 3280 	rsb	r2, r2, #65536	@ 0x10000
            if (baud > 2400) {
1000f8f8:	d916      	bls.n	1000f928 <MXC_UART_SetFrequency+0xa8>
                uart->osr = 0;
1000f8fa:	2000      	movs	r0, #0
1000f8fc:	6160      	str	r0, [r4, #20]
        if (!clkDiv || mod > (baud / 2)) {
1000f8fe:	b9ab      	cbnz	r3, 1000f92c <MXC_UART_SetFrequency+0xac>
1000f900:	2301      	movs	r3, #1
        uart->clkdiv = clkDiv;
1000f902:	4a12      	ldr	r2, [pc, #72]	@ (1000f94c <MXC_UART_SetFrequency+0xcc>)
1000f904:	6113      	str	r3, [r2, #16]
        return E_BAD_PARAM;
    }

    // check if UARt is LP UART
    if (uart == MXC_UART3) {
        if ((uart->ctrl & MXC_F_UART_CTRL_BCLKSRC) == MXC_S_UART_CTRL_BCLKSRC_EXTERNAL_CLOCK) {
1000f906:	6810      	ldr	r0, [r2, #0]
1000f908:	f400 3040 	and.w	r0, r0, #196608	@ 0x30000
1000f90c:	f5b0 3f80 	cmp.w	r0, #65536	@ 0x10000
1000f910:	d005      	beq.n	1000f91e <MXC_UART_SetFrequency+0x9e>
            periphClock = ERTCO_FREQ * 2;
        } else if ((uart->ctrl & MXC_F_UART_CTRL_BCLKSRC) ==
1000f912:	6813      	ldr	r3, [r2, #0]
1000f914:	f413 3f40 	tst.w	r3, #196608	@ 0x30000
1000f918:	d1cb      	bne.n	1000f8b2 <MXC_UART_SetFrequency+0x32>
1000f91a:	f44f 00e1 	mov.w	r0, #7372800	@ 0x708000
                   MXC_S_UART_CTRL_BCLKSRC_PERIPHERAL_CLOCK) {
            periphClock = IBRO_FREQ;
        } else {
            return E_BAD_PARAM;
        }
        return (periphClock / uart->clkdiv);
1000f91e:	4b0b      	ldr	r3, [pc, #44]	@ (1000f94c <MXC_UART_SetFrequency+0xcc>)
1000f920:	691b      	ldr	r3, [r3, #16]
1000f922:	fbb0 f0f3 	udiv	r0, r0, r3
1000f926:	e7cc      	b.n	1000f8c2 <MXC_UART_SetFrequency+0x42>
                uart->osr = 1;
1000f928:	2001      	movs	r0, #1
1000f92a:	6160      	str	r0, [r4, #20]
        if (!clkDiv || mod > (baud / 2)) {
1000f92c:	ebb2 0f51 	cmp.w	r2, r1, lsr #1
1000f930:	d9e7      	bls.n	1000f902 <MXC_UART_SetFrequency+0x82>
            clkDiv++;
1000f932:	3301      	adds	r3, #1
1000f934:	e7e5      	b.n	1000f902 <MXC_UART_SetFrequency+0x82>
            clkDiv = ((IBRO_FREQ) / baud);
1000f936:	f44f 03e1 	mov.w	r3, #7372800	@ 0x708000
1000f93a:	fbb3 f3f1 	udiv	r3, r3, r1
            mod = ((IBRO_FREQ) % baud);
1000f93e:	fb01 f203 	mul.w	r2, r1, r3
1000f942:	f5c2 02e1 	rsb	r2, r2, #7372800	@ 0x708000
            break;
1000f946:	e7da      	b.n	1000f8fe <MXC_UART_SetFrequency+0x7e>
1000f948:	40042000 	.word	0x40042000
1000f94c:	40081400 	.word	0x40081400

1000f950 <MXC_UART_GetFrequency>:
    if (MXC_UART_GET_IDX(uart) < 0) {
1000f950:	4b12      	ldr	r3, [pc, #72]	@ (1000f99c <MXC_UART_GetFrequency+0x4c>)
1000f952:	4298      	cmp	r0, r3
1000f954:	d01c      	beq.n	1000f990 <MXC_UART_GetFrequency+0x40>
1000f956:	f503 5380 	add.w	r3, r3, #4096	@ 0x1000
1000f95a:	4298      	cmp	r0, r3
1000f95c:	d018      	beq.n	1000f990 <MXC_UART_GetFrequency+0x40>
1000f95e:	f503 5380 	add.w	r3, r3, #4096	@ 0x1000
1000f962:	4298      	cmp	r0, r3
1000f964:	d014      	beq.n	1000f990 <MXC_UART_GetFrequency+0x40>
1000f966:	f503 3375 	add.w	r3, r3, #250880	@ 0x3d400
1000f96a:	4298      	cmp	r0, r3
1000f96c:	d112      	bne.n	1000f994 <MXC_UART_GetFrequency+0x44>
        if ((uart->ctrl & MXC_F_UART_CTRL_BCLKSRC) == MXC_S_UART_CTRL_BCLKSRC_EXTERNAL_CLOCK) {
1000f96e:	6803      	ldr	r3, [r0, #0]
1000f970:	f403 3340 	and.w	r3, r3, #196608	@ 0x30000
1000f974:	f5b3 3f80 	cmp.w	r3, #65536	@ 0x10000
1000f978:	d005      	beq.n	1000f986 <MXC_UART_GetFrequency+0x36>
        } else if ((uart->ctrl & MXC_F_UART_CTRL_BCLKSRC) ==
1000f97a:	6803      	ldr	r3, [r0, #0]
1000f97c:	f413 3f40 	tst.w	r3, #196608	@ 0x30000
1000f980:	d108      	bne.n	1000f994 <MXC_UART_GetFrequency+0x44>
1000f982:	f44f 03e1 	mov.w	r3, #7372800	@ 0x708000
        return (periphClock / uart->clkdiv);
1000f986:	4a06      	ldr	r2, [pc, #24]	@ (1000f9a0 <MXC_UART_GetFrequency+0x50>)
1000f988:	6910      	ldr	r0, [r2, #16]
1000f98a:	fbb3 f0f0 	udiv	r0, r3, r0
1000f98e:	4770      	bx	lr
    } else {
        return MXC_UART_RevB_GetFrequency((mxc_uart_revb_regs_t *)uart);
1000f990:	f000 b8c4 	b.w	1000fb1c <MXC_UART_RevB_GetFrequency>
        return E_BAD_PARAM;
1000f994:	f06f 0002 	mvn.w	r0, #2
    }
}
1000f998:	4770      	bx	lr
1000f99a:	bf00      	nop
1000f99c:	40042000 	.word	0x40042000
1000f9a0:	40081400 	.word	0x40081400

1000f9a4 <MXC_UART_SetDataSize>:

int MXC_UART_SetDataSize(mxc_uart_regs_t *uart, int dataSize)
{
    return MXC_UART_RevB_SetDataSize((mxc_uart_revb_regs_t *)uart, dataSize);
1000f9a4:	f000 b8e6 	b.w	1000fb74 <MXC_UART_RevB_SetDataSize>

1000f9a8 <MXC_UART_SetStopBits>:
}

int MXC_UART_SetStopBits(mxc_uart_regs_t *uart, mxc_uart_stop_t stopBits)
{
    return MXC_UART_RevB_SetStopBits((mxc_uart_revb_regs_t *)uart, stopBits);
1000f9a8:	f000 b8f4 	b.w	1000fb94 <MXC_UART_RevB_SetStopBits>

1000f9ac <MXC_UART_SetParity>:
}

int MXC_UART_SetParity(mxc_uart_regs_t *uart, mxc_uart_parity_t parity)
{
    return MXC_UART_RevB_SetParity((mxc_uart_revb_regs_t *)uart, parity);
1000f9ac:	f000 b904 	b.w	1000fbb8 <MXC_UART_RevB_SetParity>

1000f9b0 <MXC_UART_ReadCharacterRaw>:
    return MXC_UART_RevB_AbortTransmission((mxc_uart_revb_regs_t *)uart);
}

int MXC_UART_ReadCharacterRaw(mxc_uart_regs_t *uart)
{
    return MXC_UART_RevB_ReadCharacterRaw((mxc_uart_revb_regs_t *)uart);
1000f9b0:	f000 b948 	b.w	1000fc44 <MXC_UART_RevB_ReadCharacterRaw>

1000f9b4 <MXC_UART_WriteCharacterRaw>:
}

int MXC_UART_WriteCharacterRaw(mxc_uart_regs_t *uart, uint8_t character)
{
    return MXC_UART_RevB_WriteCharacterRaw((mxc_uart_revb_regs_t *)uart, character);
1000f9b4:	f000 b94e 	b.w	1000fc54 <MXC_UART_RevB_WriteCharacterRaw>

1000f9b8 <MXC_UART_ReadCharacter>:
}

int MXC_UART_ReadCharacter(mxc_uart_regs_t *uart)
{
    return MXC_UART_Common_ReadCharacter(uart);
1000f9b8:	f000 b808 	b.w	1000f9cc <MXC_UART_Common_ReadCharacter>

1000f9bc <MXC_UART_WriteCharacter>:
}

int MXC_UART_WriteCharacter(mxc_uart_regs_t *uart, uint8_t character)
{
    return MXC_UART_Common_WriteCharacter(uart, character);
1000f9bc:	f000 b812 	b.w	1000f9e4 <MXC_UART_Common_WriteCharacter>

1000f9c0 <MXC_UART_GetRXFIFOAvailable>:
    return MXC_UART_RevB_ReadRXFIFODMA((mxc_uart_revb_regs_t *)uart, bytes, len, callback, config);
}

unsigned int MXC_UART_GetRXFIFOAvailable(mxc_uart_regs_t *uart)
{
    return MXC_UART_RevB_GetRXFIFOAvailable((mxc_uart_revb_regs_t *)uart);
1000f9c0:	f000 b952 	b.w	1000fc68 <MXC_UART_RevB_GetRXFIFOAvailable>

1000f9c4 <MXC_UART_GetTXFIFOAvailable>:
    return MXC_UART_RevB_WriteTXFIFODMA((mxc_uart_revb_regs_t *)uart, bytes, len, callback, config);
}

unsigned int MXC_UART_GetTXFIFOAvailable(mxc_uart_regs_t *uart)
{
    return MXC_UART_RevB_GetTXFIFOAvailable((mxc_uart_revb_regs_t *)uart);
1000f9c4:	f000 b954 	b.w	1000fc70 <MXC_UART_RevB_GetTXFIFOAvailable>

1000f9c8 <MXC_UART_SetRXThreshold>:
    return MXC_UART_RevB_ClearTXFIFO((mxc_uart_revb_regs_t *)uart);
}

int MXC_UART_SetRXThreshold(mxc_uart_regs_t *uart, unsigned int numBytes)
{
    return MXC_UART_RevB_SetRXThreshold((mxc_uart_revb_regs_t *)uart, numBytes);
1000f9c8:	f000 b958 	b.w	1000fc7c <MXC_UART_RevB_SetRXThreshold>

1000f9cc <MXC_UART_Common_ReadCharacter>:

#include "uart_common.h"
#include "uart.h"

int MXC_UART_Common_ReadCharacter(mxc_uart_regs_t *uart)
{
1000f9cc:	b510      	push	{r4, lr}
1000f9ce:	4604      	mov	r4, r0
    // Wait until FIFO has a character ready.
    while (MXC_UART_GetRXFIFOAvailable(uart) < 1) {}
1000f9d0:	4620      	mov	r0, r4
1000f9d2:	f7ff fff5 	bl	1000f9c0 <MXC_UART_GetRXFIFOAvailable>
1000f9d6:	2800      	cmp	r0, #0
1000f9d8:	d0fa      	beq.n	1000f9d0 <MXC_UART_Common_ReadCharacter+0x4>

    // Read the character using the non-blocking function.
    return MXC_UART_ReadCharacterRaw(uart);
1000f9da:	4620      	mov	r0, r4
}
1000f9dc:	e8bd 4010 	ldmia.w	sp!, {r4, lr}
    return MXC_UART_ReadCharacterRaw(uart);
1000f9e0:	f7ff bfe6 	b.w	1000f9b0 <MXC_UART_ReadCharacterRaw>

1000f9e4 <MXC_UART_Common_WriteCharacter>:

int MXC_UART_Common_WriteCharacter(mxc_uart_regs_t *uart, uint8_t character)
{
1000f9e4:	b538      	push	{r3, r4, r5, lr}
1000f9e6:	4604      	mov	r4, r0
1000f9e8:	460d      	mov	r5, r1
    // Wait until FIFO has space for the character.
    while (MXC_UART_GetTXFIFOAvailable(uart) < 1) {}
1000f9ea:	4620      	mov	r0, r4
1000f9ec:	f7ff ffea 	bl	1000f9c4 <MXC_UART_GetTXFIFOAvailable>
1000f9f0:	2800      	cmp	r0, #0
1000f9f2:	d0fa      	beq.n	1000f9ea <MXC_UART_Common_WriteCharacter+0x6>

    // Write the character using the non-blocking function.
    return MXC_UART_WriteCharacterRaw(uart, character);
1000f9f4:	4629      	mov	r1, r5
1000f9f6:	4620      	mov	r0, r4
}
1000f9f8:	e8bd 4038 	ldmia.w	sp!, {r3, r4, r5, lr}
    return MXC_UART_WriteCharacterRaw(uart, character);
1000f9fc:	f7ff bfda 	b.w	1000f9b4 <MXC_UART_WriteCharacterRaw>

1000fa00 <MXC_UART_RevB_Init>:

/* ************************************************************************* */
/* Control/Configuration functions                                           */
/* ************************************************************************* */
int MXC_UART_RevB_Init(mxc_uart_revb_regs_t *uart, unsigned int baud, mxc_uart_revb_clock_t clock)
{
1000fa00:	b5f8      	push	{r3, r4, r5, r6, r7, lr}
1000fa02:	460f      	mov	r7, r1
    int err;

    MXC_ASSERT(MXC_UART_GET_IDX((mxc_uart_regs_t *)uart) >= 0)

    // Initialize UART
    if ((err = MXC_UART_SetRXThreshold((mxc_uart_regs_t *)uart, 1)) !=
1000fa04:	2101      	movs	r1, #1
{
1000fa06:	4606      	mov	r6, r0
1000fa08:	4615      	mov	r5, r2
    if ((err = MXC_UART_SetRXThreshold((mxc_uart_regs_t *)uart, 1)) !=
1000fa0a:	f7ff ffdd 	bl	1000f9c8 <MXC_UART_SetRXThreshold>
1000fa0e:	4604      	mov	r4, r0
1000fa10:	b108      	cbz	r0, 1000fa16 <MXC_UART_RevB_Init+0x16>
    states[i].tx_req = NULL;
    states[i].rx_req = NULL;
    states[i].auto_dma_handlers = false;

    return E_NO_ERROR;
}
1000fa12:	4620      	mov	r0, r4
1000fa14:	bdf8      	pop	{r3, r4, r5, r6, r7, pc}
    if ((err = MXC_UART_SetDataSize((mxc_uart_regs_t *)uart, 8)) !=
1000fa16:	2108      	movs	r1, #8
1000fa18:	4630      	mov	r0, r6
1000fa1a:	f7ff ffc3 	bl	1000f9a4 <MXC_UART_SetDataSize>
1000fa1e:	4604      	mov	r4, r0
1000fa20:	2800      	cmp	r0, #0
1000fa22:	d1f6      	bne.n	1000fa12 <MXC_UART_RevB_Init+0x12>
    if ((err = MXC_UART_SetParity((mxc_uart_regs_t *)uart, MXC_UART_PARITY_DISABLE)) !=
1000fa24:	4601      	mov	r1, r0
1000fa26:	4630      	mov	r0, r6
1000fa28:	f7ff ffc0 	bl	1000f9ac <MXC_UART_SetParity>
1000fa2c:	4604      	mov	r4, r0
1000fa2e:	2800      	cmp	r0, #0
1000fa30:	d1ef      	bne.n	1000fa12 <MXC_UART_RevB_Init+0x12>
    if ((err = MXC_UART_SetStopBits((mxc_uart_regs_t *)uart, MXC_UART_STOP_1)) != E_NO_ERROR) {
1000fa32:	4601      	mov	r1, r0
1000fa34:	4630      	mov	r0, r6
1000fa36:	f7ff ffb7 	bl	1000f9a8 <MXC_UART_SetStopBits>
1000fa3a:	4604      	mov	r4, r0
1000fa3c:	2800      	cmp	r0, #0
1000fa3e:	d1e8      	bne.n	1000fa12 <MXC_UART_RevB_Init+0x12>
    if ((err = MXC_UART_SetFrequency((mxc_uart_regs_t *)uart, baud, (mxc_uart_clock_t)clock)) <
1000fa40:	462a      	mov	r2, r5
1000fa42:	4639      	mov	r1, r7
1000fa44:	4630      	mov	r0, r6
1000fa46:	f7ff ff1b 	bl	1000f880 <MXC_UART_SetFrequency>
1000fa4a:	2800      	cmp	r0, #0
1000fa4c:	db22      	blt.n	1000fa94 <MXC_UART_RevB_Init+0x94>
    unsigned int i = MXC_UART_GET_IDX((mxc_uart_regs_t *)uart);
1000fa4e:	4b15      	ldr	r3, [pc, #84]	@ (1000faa4 <MXC_UART_RevB_Init+0xa4>)
1000fa50:	429e      	cmp	r6, r3
1000fa52:	d021      	beq.n	1000fa98 <MXC_UART_RevB_Init+0x98>
1000fa54:	f503 5380 	add.w	r3, r3, #4096	@ 0x1000
1000fa58:	429e      	cmp	r6, r3
1000fa5a:	d01f      	beq.n	1000fa9c <MXC_UART_RevB_Init+0x9c>
1000fa5c:	f503 5380 	add.w	r3, r3, #4096	@ 0x1000
1000fa60:	429e      	cmp	r6, r3
1000fa62:	d01d      	beq.n	1000faa0 <MXC_UART_RevB_Init+0xa0>
1000fa64:	f503 3375 	add.w	r3, r3, #250880	@ 0x3d400
1000fa68:	429e      	cmp	r6, r3
1000fa6a:	bf14      	ite	ne
1000fa6c:	f04f 33ff 	movne.w	r3, #4294967295	@ 0xffffffff
1000fa70:	2303      	moveq	r3, #3
    states[i].channelTx = -1;
1000fa72:	eb03 0383 	add.w	r3, r3, r3, lsl #2
1000fa76:	4a0c      	ldr	r2, [pc, #48]	@ (1000faa8 <MXC_UART_RevB_Init+0xa8>)
1000fa78:	009b      	lsls	r3, r3, #2
1000fa7a:	f103 0608 	add.w	r6, r3, #8
    states[i].tx_req = NULL;
1000fa7e:	18d0      	adds	r0, r2, r3
    states[i].channelTx = -1;
1000fa80:	18b7      	adds	r7, r6, r2
    states[i].tx_req = NULL;
1000fa82:	2100      	movs	r1, #0
    states[i].channelTx = -1;
1000fa84:	f04f 35ff 	mov.w	r5, #4294967295	@ 0xffffffff
1000fa88:	5195      	str	r5, [r2, r6]
1000fa8a:	607d      	str	r5, [r7, #4]
    states[i].tx_req = NULL;
1000fa8c:	50d1      	str	r1, [r2, r3]
1000fa8e:	6041      	str	r1, [r0, #4]
    states[i].auto_dma_handlers = false;
1000fa90:	7401      	strb	r1, [r0, #16]
    return E_NO_ERROR;
1000fa92:	e7be      	b.n	1000fa12 <MXC_UART_RevB_Init+0x12>
        return err;
1000fa94:	4604      	mov	r4, r0
1000fa96:	e7bc      	b.n	1000fa12 <MXC_UART_RevB_Init+0x12>
    unsigned int i = MXC_UART_GET_IDX((mxc_uart_regs_t *)uart);
1000fa98:	4623      	mov	r3, r4
1000fa9a:	e7ea      	b.n	1000fa72 <MXC_UART_RevB_Init+0x72>
1000fa9c:	2301      	movs	r3, #1
1000fa9e:	e7e8      	b.n	1000fa72 <MXC_UART_RevB_Init+0x72>
1000faa0:	2302      	movs	r3, #2
1000faa2:	e7e6      	b.n	1000fa72 <MXC_UART_RevB_Init+0x72>
1000faa4:	40042000 	.word	0x40042000
1000faa8:	20000fe0 	.word	0x20000fe0

1000faac <MXC_UART_RevB_SetFrequency>:
                               mxc_uart_revb_clock_t clock)
{
    unsigned clkDiv = 0, mod = 0;

    // OSR default value
    uart->osr = 5;
1000faac:	2305      	movs	r3, #5

    switch (clock) {
1000faae:	2a01      	cmp	r2, #1
{
1000fab0:	b410      	push	{r4}
    uart->osr = 5;
1000fab2:	6143      	str	r3, [r0, #20]
    switch (clock) {
1000fab4:	d023      	beq.n	1000fafe <MXC_UART_RevB_SetFrequency+0x52>
1000fab6:	2a02      	cmp	r2, #2
1000fab8:	d010      	beq.n	1000fadc <MXC_UART_RevB_SetFrequency+0x30>
1000faba:	b9e2      	cbnz	r2, 1000faf6 <MXC_UART_RevB_SetFrequency+0x4a>
    case MXC_UART_REVB_APB_CLK:
        clkDiv = (PeripheralClock / baud);
1000fabc:	4b15      	ldr	r3, [pc, #84]	@ (1000fb14 <MXC_UART_RevB_SetFrequency+0x68>)
1000fabe:	681a      	ldr	r2, [r3, #0]
1000fac0:	0852      	lsrs	r2, r2, #1
1000fac2:	fbb2 f3f1 	udiv	r3, r2, r1
        mod = (PeripheralClock % baud);
1000fac6:	fb01 2213 	mls	r2, r1, r3, r2

    default:
        return E_BAD_PARAM;
    }

    if (!clkDiv || mod > (baud / 2)) {
1000faca:	b113      	cbz	r3, 1000fad2 <MXC_UART_RevB_SetFrequency+0x26>
1000facc:	ebb2 0f51 	cmp.w	r2, r1, lsr #1
1000fad0:	d900      	bls.n	1000fad4 <MXC_UART_RevB_SetFrequency+0x28>
        clkDiv++;
1000fad2:	3301      	adds	r3, #1
    }
    uart->clkdiv = clkDiv;
    return MXC_UART_GetFrequency((mxc_uart_regs_t *)uart);
}
1000fad4:	bc10      	pop	{r4}
    uart->clkdiv = clkDiv;
1000fad6:	6103      	str	r3, [r0, #16]
    return MXC_UART_GetFrequency((mxc_uart_regs_t *)uart);
1000fad8:	f7ff bf3a 	b.w	1000f950 <MXC_UART_GetFrequency>
        uart->ctrl |= MXC_S_UART_REVB_CTRL_BCLKSRC_CLK2;
1000fadc:	6804      	ldr	r4, [r0, #0]
        clkDiv = (IBRO_FREQ / baud);
1000fade:	f44f 03e1 	mov.w	r3, #7372800	@ 0x708000
        uart->ctrl |= MXC_S_UART_REVB_CTRL_BCLKSRC_CLK2;
1000fae2:	f444 3400 	orr.w	r4, r4, #131072	@ 0x20000
        clkDiv = (IBRO_FREQ / baud);
1000fae6:	fbb3 f3f1 	udiv	r3, r3, r1
        mod = (IBRO_FREQ % baud);
1000faea:	fb01 f203 	mul.w	r2, r1, r3
1000faee:	f5c2 02e1 	rsb	r2, r2, #7372800	@ 0x708000
        uart->ctrl |= MXC_S_UART_REVB_CTRL_BCLKSRC_CLK2;
1000faf2:	6004      	str	r4, [r0, #0]
        break;
1000faf4:	e7e9      	b.n	1000faca <MXC_UART_RevB_SetFrequency+0x1e>
}
1000faf6:	f06f 0002 	mvn.w	r0, #2
1000fafa:	bc10      	pop	{r4}
1000fafc:	4770      	bx	lr
        uart->ctrl |= MXC_S_UART_REVB_CTRL_BCLKSRC_EXTERNAL_CLOCK;
1000fafe:	6804      	ldr	r4, [r0, #0]
        clkDiv = UART_EXTCLK_FREQ / baud;
1000fb00:	4a05      	ldr	r2, [pc, #20]	@ (1000fb18 <MXC_UART_RevB_SetFrequency+0x6c>)
1000fb02:	fbb2 f3f1 	udiv	r3, r2, r1
        uart->ctrl |= MXC_S_UART_REVB_CTRL_BCLKSRC_EXTERNAL_CLOCK;
1000fb06:	f444 3480 	orr.w	r4, r4, #65536	@ 0x10000
1000fb0a:	6004      	str	r4, [r0, #0]
        mod = UART_EXTCLK_FREQ % baud;
1000fb0c:	fb01 2213 	mls	r2, r1, r3, r2
        break;
1000fb10:	e7db      	b.n	1000faca <MXC_UART_RevB_SetFrequency+0x1e>
1000fb12:	bf00      	nop
1000fb14:	2000173c 	.word	0x2000173c
1000fb18:	047868c0 	.word	0x047868c0

1000fb1c <MXC_UART_RevB_GetFrequency>:

int MXC_UART_RevB_GetFrequency(mxc_uart_revb_regs_t *uart)
{
    int periphClock = 0;

    if ((uart->ctrl & MXC_F_UART_REVB_CTRL_BCLKSRC) ==
1000fb1c:	6803      	ldr	r3, [r0, #0]
1000fb1e:	f403 3340 	and.w	r3, r3, #196608	@ 0x30000
1000fb22:	f5b3 3f80 	cmp.w	r3, #65536	@ 0x10000
1000fb26:	d017      	beq.n	1000fb58 <MXC_UART_RevB_GetFrequency+0x3c>
        MXC_S_UART_REVB_CTRL_BCLKSRC_EXTERNAL_CLOCK) {
        periphClock = UART_EXTCLK_FREQ;
    } else if ((uart->ctrl & MXC_F_UART_REVB_CTRL_BCLKSRC) ==
1000fb28:	6803      	ldr	r3, [r0, #0]
1000fb2a:	f413 3f40 	tst.w	r3, #196608	@ 0x30000
1000fb2e:	d00c      	beq.n	1000fb4a <MXC_UART_RevB_GetFrequency+0x2e>
               MXC_S_UART_REVB_CTRL_BCLKSRC_PERIPHERAL_CLOCK) {
        periphClock = PeripheralClock;
    } else if ((uart->ctrl & MXC_F_UART_REVB_CTRL_BCLKSRC) == MXC_S_UART_REVB_CTRL_BCLKSRC_CLK2) {
1000fb30:	6803      	ldr	r3, [r0, #0]
1000fb32:	f403 3340 	and.w	r3, r3, #196608	@ 0x30000
1000fb36:	f5b3 3f00 	cmp.w	r3, #131072	@ 0x20000
1000fb3a:	bf08      	it	eq
1000fb3c:	f44f 03e1 	moveq.w	r3, #7372800	@ 0x708000
1000fb40:	d10f      	bne.n	1000fb62 <MXC_UART_RevB_GetFrequency+0x46>
#endif
    } else {
        return E_BAD_PARAM;
    }

    return (periphClock / uart->clkdiv);
1000fb42:	6900      	ldr	r0, [r0, #16]
1000fb44:	fbb3 f0f0 	udiv	r0, r3, r0
}
1000fb48:	4770      	bx	lr
        periphClock = PeripheralClock;
1000fb4a:	4b08      	ldr	r3, [pc, #32]	@ (1000fb6c <MXC_UART_RevB_GetFrequency+0x50>)
    return (periphClock / uart->clkdiv);
1000fb4c:	6900      	ldr	r0, [r0, #16]
        periphClock = PeripheralClock;
1000fb4e:	681b      	ldr	r3, [r3, #0]
1000fb50:	085b      	lsrs	r3, r3, #1
    return (periphClock / uart->clkdiv);
1000fb52:	fbb3 f0f0 	udiv	r0, r3, r0
}
1000fb56:	4770      	bx	lr
1000fb58:	4b05      	ldr	r3, [pc, #20]	@ (1000fb70 <MXC_UART_RevB_GetFrequency+0x54>)
    return (periphClock / uart->clkdiv);
1000fb5a:	6900      	ldr	r0, [r0, #16]
1000fb5c:	fbb3 f0f0 	udiv	r0, r3, r0
}
1000fb60:	4770      	bx	lr
    } else if ((uart->ctrl & MXC_F_UART_REVB_CTRL_BCLKSRC) == MXC_S_UART_REVB_CTRL_BCLKSRC_CLK3) {
1000fb62:	6803      	ldr	r3, [r0, #0]
        return E_BAD_PARAM;
1000fb64:	f06f 0002 	mvn.w	r0, #2
        return E_BAD_PARAM;
1000fb68:	4770      	bx	lr
1000fb6a:	bf00      	nop
1000fb6c:	2000173c 	.word	0x2000173c
1000fb70:	047868c0 	.word	0x047868c0

1000fb74 <MXC_UART_RevB_SetDataSize>:

int MXC_UART_RevB_SetDataSize(mxc_uart_revb_regs_t *uart, int dataSize)
{
    if (dataSize < 5 || dataSize > 8) {
1000fb74:	3905      	subs	r1, #5
1000fb76:	2903      	cmp	r1, #3
{
1000fb78:	4602      	mov	r2, r0
    if (dataSize < 5 || dataSize > 8) {
1000fb7a:	d807      	bhi.n	1000fb8c <MXC_UART_RevB_SetDataSize+0x18>
        return E_BAD_PARAM;
    }

    dataSize = (dataSize - 5) << MXC_F_UART_REVB_CTRL_CHAR_SIZE_POS;

    MXC_SETFIELD(uart->ctrl, MXC_F_UART_REVB_CTRL_CHAR_SIZE, dataSize);
1000fb7c:	6803      	ldr	r3, [r0, #0]
1000fb7e:	f423 6340 	bic.w	r3, r3, #3072	@ 0xc00
1000fb82:	ea43 2381 	orr.w	r3, r3, r1, lsl #10

    return E_NO_ERROR;
1000fb86:	2000      	movs	r0, #0
    MXC_SETFIELD(uart->ctrl, MXC_F_UART_REVB_CTRL_CHAR_SIZE, dataSize);
1000fb88:	6013      	str	r3, [r2, #0]
    return E_NO_ERROR;
1000fb8a:	4770      	bx	lr
        return E_BAD_PARAM;
1000fb8c:	f06f 0002 	mvn.w	r0, #2
}
1000fb90:	4770      	bx	lr
1000fb92:	bf00      	nop

1000fb94 <MXC_UART_RevB_SetStopBits>:

int MXC_UART_RevB_SetStopBits(mxc_uart_revb_regs_t *uart, mxc_uart_stop_t stopBits)
{
    switch (stopBits) {
1000fb94:	b151      	cbz	r1, 1000fbac <MXC_UART_RevB_SetStopBits+0x18>
1000fb96:	2901      	cmp	r1, #1
1000fb98:	d105      	bne.n	1000fba6 <MXC_UART_RevB_SetStopBits+0x12>
        MXC_SETFIELD(uart->ctrl, MXC_F_UART_REVB_CTRL_STOPBITS,
                     0 << MXC_F_UART_REVB_CTRL_STOPBITS_POS);
        break;

    case MXC_UART_STOP_2:
        MXC_SETFIELD(uart->ctrl, MXC_F_UART_REVB_CTRL_STOPBITS,
1000fb9a:	6803      	ldr	r3, [r0, #0]
1000fb9c:	f443 5380 	orr.w	r3, r3, #4096	@ 0x1000
1000fba0:	6003      	str	r3, [r0, #0]
    default:
        return E_BAD_PARAM;
        break;
    }

    return E_NO_ERROR;
1000fba2:	2000      	movs	r0, #0
}
1000fba4:	4770      	bx	lr
    switch (stopBits) {
1000fba6:	f06f 0002 	mvn.w	r0, #2
1000fbaa:	4770      	bx	lr
        MXC_SETFIELD(uart->ctrl, MXC_F_UART_REVB_CTRL_STOPBITS,
1000fbac:	6803      	ldr	r3, [r0, #0]
1000fbae:	f423 5380 	bic.w	r3, r3, #4096	@ 0x1000
1000fbb2:	6003      	str	r3, [r0, #0]
    return E_NO_ERROR;
1000fbb4:	2000      	movs	r0, #0
}
1000fbb6:	4770      	bx	lr

1000fbb8 <MXC_UART_RevB_SetParity>:

int MXC_UART_RevB_SetParity(mxc_uart_revb_regs_t *uart, mxc_uart_parity_t parity)
{
    switch (parity) {
1000fbb8:	2904      	cmp	r1, #4
1000fbba:	d83f      	bhi.n	1000fc3c <MXC_UART_RevB_SetParity+0x84>
1000fbbc:	e8df f001 	tbb	[pc, r1]
1000fbc0:	31241711 	.word	0x31241711
1000fbc4:	03          	.byte	0x03
1000fbc5:	00          	.byte	0x00
        MXC_SETFIELD(uart->ctrl, MXC_F_UART_REVB_CTRL_PAR_EO, 1 << MXC_F_UART_REVB_CTRL_PAR_EO_POS);
        MXC_SETFIELD(uart->ctrl, MXC_F_UART_REVB_CTRL_PAR_MD, 0 << MXC_F_UART_REVB_CTRL_PAR_MD_POS);
        break;

    case MXC_UART_PARITY_ODD_1:
        MXC_SETFIELD(uart->ctrl, MXC_F_UART_REVB_CTRL_PAR_EN, 1 << MXC_F_UART_REVB_CTRL_PAR_EN_POS);
1000fbc6:	6803      	ldr	r3, [r0, #0]
1000fbc8:	f043 0310 	orr.w	r3, r3, #16
1000fbcc:	6003      	str	r3, [r0, #0]
        MXC_SETFIELD(uart->ctrl, MXC_F_UART_REVB_CTRL_PAR_EO, 1 << MXC_F_UART_REVB_CTRL_PAR_EO_POS);
1000fbce:	6803      	ldr	r3, [r0, #0]
1000fbd0:	f043 0320 	orr.w	r3, r3, #32
1000fbd4:	6003      	str	r3, [r0, #0]
        MXC_SETFIELD(uart->ctrl, MXC_F_UART_REVB_CTRL_PAR_MD, 1 << MXC_F_UART_REVB_CTRL_PAR_MD_POS);
1000fbd6:	6803      	ldr	r3, [r0, #0]
1000fbd8:	f043 0340 	orr.w	r3, r3, #64	@ 0x40
1000fbdc:	6003      	str	r3, [r0, #0]
    default:
        return E_BAD_PARAM;
        break;
    }

    return E_NO_ERROR;
1000fbde:	2000      	movs	r0, #0
1000fbe0:	4770      	bx	lr
        MXC_SETFIELD(uart->ctrl, MXC_F_UART_REVB_CTRL_PAR_EN, 0 << MXC_F_UART_REVB_CTRL_PAR_EN_POS);
1000fbe2:	6803      	ldr	r3, [r0, #0]
1000fbe4:	f023 0310 	bic.w	r3, r3, #16
1000fbe8:	6003      	str	r3, [r0, #0]
    return E_NO_ERROR;
1000fbea:	2000      	movs	r0, #0
1000fbec:	4770      	bx	lr
        MXC_SETFIELD(uart->ctrl, MXC_F_UART_REVB_CTRL_PAR_EN, 1 << MXC_F_UART_REVB_CTRL_PAR_EN_POS);
1000fbee:	6803      	ldr	r3, [r0, #0]
1000fbf0:	f043 0310 	orr.w	r3, r3, #16
1000fbf4:	6003      	str	r3, [r0, #0]
        MXC_SETFIELD(uart->ctrl, MXC_F_UART_REVB_CTRL_PAR_EO, 0 << MXC_F_UART_REVB_CTRL_PAR_EO_POS);
1000fbf6:	6803      	ldr	r3, [r0, #0]
1000fbf8:	f023 0320 	bic.w	r3, r3, #32
1000fbfc:	6003      	str	r3, [r0, #0]
        MXC_SETFIELD(uart->ctrl, MXC_F_UART_REVB_CTRL_PAR_MD, 0 << MXC_F_UART_REVB_CTRL_PAR_MD_POS);
1000fbfe:	6803      	ldr	r3, [r0, #0]
1000fc00:	f023 0340 	bic.w	r3, r3, #64	@ 0x40
1000fc04:	6003      	str	r3, [r0, #0]
        break;
1000fc06:	e7ea      	b.n	1000fbde <MXC_UART_RevB_SetParity+0x26>
        MXC_SETFIELD(uart->ctrl, MXC_F_UART_REVB_CTRL_PAR_EN, 1 << MXC_F_UART_REVB_CTRL_PAR_EN_POS);
1000fc08:	6803      	ldr	r3, [r0, #0]
1000fc0a:	f043 0310 	orr.w	r3, r3, #16
1000fc0e:	6003      	str	r3, [r0, #0]
        MXC_SETFIELD(uart->ctrl, MXC_F_UART_REVB_CTRL_PAR_EO, 0 << MXC_F_UART_REVB_CTRL_PAR_EO_POS);
1000fc10:	6803      	ldr	r3, [r0, #0]
1000fc12:	f023 0320 	bic.w	r3, r3, #32
1000fc16:	6003      	str	r3, [r0, #0]
        MXC_SETFIELD(uart->ctrl, MXC_F_UART_REVB_CTRL_PAR_MD, 1 << MXC_F_UART_REVB_CTRL_PAR_MD_POS);
1000fc18:	6803      	ldr	r3, [r0, #0]
1000fc1a:	f043 0340 	orr.w	r3, r3, #64	@ 0x40
1000fc1e:	6003      	str	r3, [r0, #0]
        break;
1000fc20:	e7dd      	b.n	1000fbde <MXC_UART_RevB_SetParity+0x26>
        MXC_SETFIELD(uart->ctrl, MXC_F_UART_REVB_CTRL_PAR_EN, 1 << MXC_F_UART_REVB_CTRL_PAR_EN_POS);
1000fc22:	6803      	ldr	r3, [r0, #0]
1000fc24:	f043 0310 	orr.w	r3, r3, #16
1000fc28:	6003      	str	r3, [r0, #0]
        MXC_SETFIELD(uart->ctrl, MXC_F_UART_REVB_CTRL_PAR_EO, 1 << MXC_F_UART_REVB_CTRL_PAR_EO_POS);
1000fc2a:	6803      	ldr	r3, [r0, #0]
1000fc2c:	f043 0320 	orr.w	r3, r3, #32
1000fc30:	6003      	str	r3, [r0, #0]
        MXC_SETFIELD(uart->ctrl, MXC_F_UART_REVB_CTRL_PAR_MD, 0 << MXC_F_UART_REVB_CTRL_PAR_MD_POS);
1000fc32:	6803      	ldr	r3, [r0, #0]
1000fc34:	f023 0340 	bic.w	r3, r3, #64	@ 0x40
1000fc38:	6003      	str	r3, [r0, #0]
        break;
1000fc3a:	e7d0      	b.n	1000fbde <MXC_UART_RevB_SetParity+0x26>
    switch (parity) {
1000fc3c:	f06f 0002 	mvn.w	r0, #2
}
1000fc40:	4770      	bx	lr
1000fc42:	bf00      	nop

1000fc44 <MXC_UART_RevB_ReadCharacterRaw>:
    return E_NO_ERROR;
}

int MXC_UART_RevB_ReadCharacterRaw(mxc_uart_revb_regs_t *uart)
{
    if (uart->status & MXC_F_UART_REVB_STATUS_RX_EM) {
1000fc44:	6843      	ldr	r3, [r0, #4]
1000fc46:	06db      	lsls	r3, r3, #27
        return E_UNDERFLOW;
    }

    return uart->fifo;
1000fc48:	bf54      	ite	pl
1000fc4a:	6a00      	ldrpl	r0, [r0, #32]
        return E_UNDERFLOW;
1000fc4c:	f06f 000c 	mvnmi.w	r0, #12
}
1000fc50:	4770      	bx	lr
1000fc52:	bf00      	nop

1000fc54 <MXC_UART_RevB_WriteCharacterRaw>:

int MXC_UART_RevB_WriteCharacterRaw(mxc_uart_revb_regs_t *uart, uint8_t character)
{
1000fc54:	4602      	mov	r2, r0
    // Require the TX FIFO to be empty, so that we write out the expected character
    // Return error if the FIFO is full
    if (uart->status & MXC_F_UART_REVB_STATUS_TX_FULL) {
1000fc56:	6840      	ldr	r0, [r0, #4]
1000fc58:	f010 0080 	ands.w	r0, r0, #128	@ 0x80
        return E_OVERFLOW;
    }

    uart->fifo = character;
1000fc5c:	bf0c      	ite	eq
1000fc5e:	6211      	streq	r1, [r2, #32]
        return E_OVERFLOW;
1000fc60:	f06f 000b 	mvnne.w	r0, #11

    return E_NO_ERROR;
}
1000fc64:	4770      	bx	lr
1000fc66:	bf00      	nop

1000fc68 <MXC_UART_RevB_GetRXFIFOAvailable>:
    return read;
}

unsigned int MXC_UART_RevB_GetRXFIFOAvailable(mxc_uart_revb_regs_t *uart)
{
    return (uart->status & MXC_F_UART_REVB_STATUS_RX_LVL) >> MXC_F_UART_REVB_STATUS_RX_LVL_POS;
1000fc68:	6840      	ldr	r0, [r0, #4]
}
1000fc6a:	f3c0 2003 	ubfx	r0, r0, #8, #4
1000fc6e:	4770      	bx	lr

1000fc70 <MXC_UART_RevB_GetTXFIFOAvailable>:
    return written;
}

unsigned int MXC_UART_RevB_GetTXFIFOAvailable(mxc_uart_revb_regs_t *uart)
{
    int txCnt = (uart->status & MXC_F_UART_REVB_STATUS_TX_LVL) >> MXC_F_UART_REVB_STATUS_TX_LVL_POS;
1000fc70:	6840      	ldr	r0, [r0, #4]
1000fc72:	f3c0 3003 	ubfx	r0, r0, #12, #4
    return MXC_UART_FIFO_DEPTH - txCnt;
}
1000fc76:	f1c0 0008 	rsb	r0, r0, #8
1000fc7a:	4770      	bx	lr

1000fc7c <MXC_UART_RevB_SetRXThreshold>:
    return E_NO_ERROR;
}

int MXC_UART_RevB_SetRXThreshold(mxc_uart_revb_regs_t *uart, unsigned int numBytes)
{
    if (numBytes < 1 || numBytes > MXC_UART_FIFO_DEPTH) {
1000fc7c:	1e4b      	subs	r3, r1, #1
1000fc7e:	2b07      	cmp	r3, #7
{
1000fc80:	4602      	mov	r2, r0
    if (numBytes < 1 || numBytes > MXC_UART_FIFO_DEPTH) {
1000fc82:	d806      	bhi.n	1000fc92 <MXC_UART_RevB_SetRXThreshold+0x16>
        return E_BAD_PARAM;
    }

    numBytes <<= MXC_F_UART_REVB_CTRL_RX_THD_VAL_POS;
    MXC_SETFIELD(uart->ctrl, MXC_F_UART_REVB_CTRL_RX_THD_VAL, numBytes);
1000fc84:	6803      	ldr	r3, [r0, #0]
1000fc86:	f023 030f 	bic.w	r3, r3, #15
1000fc8a:	4319      	orrs	r1, r3

    return E_NO_ERROR;
1000fc8c:	2000      	movs	r0, #0
    MXC_SETFIELD(uart->ctrl, MXC_F_UART_REVB_CTRL_RX_THD_VAL, numBytes);
1000fc8e:	6011      	str	r1, [r2, #0]
    return E_NO_ERROR;
1000fc90:	4770      	bx	lr
        return E_BAD_PARAM;
1000fc92:	f06f 0002 	mvn.w	r0, #2
}
1000fc96:	4770      	bx	lr

1000fc98 <MXC_GPIO_Common_Init>:
static void *cbparam[MXC_CFG_GPIO_INSTANCES][MXC_CFG_GPIO_PINS_PORT];
static uint8_t initialized = 0;

/* **** Functions **** */
int MXC_GPIO_Common_Init(uint32_t portmask)
{
1000fc98:	b510      	push	{r4, lr}
    if (!initialized) {
1000fc9a:	4c06      	ldr	r4, [pc, #24]	@ (1000fcb4 <MXC_GPIO_Common_Init+0x1c>)
1000fc9c:	7821      	ldrb	r1, [r4, #0]
1000fc9e:	b931      	cbnz	r1, 1000fcae <MXC_GPIO_Common_Init+0x16>
        int i, j;

        for (i = 0; i < MXC_CFG_GPIO_INSTANCES; i++) {
            // Initialize call back arrays
            for (j = 0; j < MXC_CFG_GPIO_PINS_PORT; j++) {
                callback[i][j] = NULL;
1000fca0:	4805      	ldr	r0, [pc, #20]	@ (1000fcb8 <MXC_GPIO_Common_Init+0x20>)
1000fca2:	f44f 7200 	mov.w	r2, #512	@ 0x200
1000fca6:	f000 f8b7 	bl	1000fe18 <memset>
            }
        }

        initialized = 1;
1000fcaa:	2301      	movs	r3, #1
1000fcac:	7023      	strb	r3, [r4, #0]
    }

    return E_NO_ERROR;
}
1000fcae:	2000      	movs	r0, #0
1000fcb0:	bd10      	pop	{r4, pc}
1000fcb2:	bf00      	nop
1000fcb4:	20001030 	.word	0x20001030
1000fcb8:	20001234 	.word	0x20001234

1000fcbc <MXC_GPIO_Common_Handler>:
    uint32_t stat;
    unsigned int pin;

    MXC_ASSERT(port < MXC_CFG_GPIO_INSTANCES);

    mxc_gpio_regs_t *gpio = MXC_GPIO_GET_GPIO(port);
1000fcbc:	2803      	cmp	r0, #3
{
1000fcbe:	b5f8      	push	{r3, r4, r5, r6, r7, lr}
1000fcc0:	bf9a      	itte	ls
1000fcc2:	4b10      	ldrls	r3, [pc, #64]	@ (1000fd04 <MXC_GPIO_Common_Handler+0x48>)
1000fcc4:	f853 5020 	ldrls.w	r5, [r3, r0, lsl #2]
1000fcc8:	2500      	movhi	r5, #0
1000fcca:	4607      	mov	r7, r0

    stat = MXC_GPIO_GetFlags(gpio);
1000fccc:	4628      	mov	r0, r5
1000fcce:	f7ff fc87 	bl	1000f5e0 <MXC_GPIO_GetFlags>
1000fcd2:	4604      	mov	r4, r0
    MXC_GPIO_ClearFlags(gpio, stat);
1000fcd4:	4601      	mov	r1, r0
1000fcd6:	4628      	mov	r0, r5
1000fcd8:	f7ff fc76 	bl	1000f5c8 <MXC_GPIO_ClearFlags>

    pin = 0;

    while (stat) {
1000fcdc:	b18c      	cbz	r4, 1000fd02 <MXC_GPIO_Common_Handler+0x46>
1000fcde:	4e0a      	ldr	r6, [pc, #40]	@ (1000fd08 <MXC_GPIO_Common_Handler+0x4c>)
1000fce0:	4d0a      	ldr	r5, [pc, #40]	@ (1000fd0c <MXC_GPIO_Common_Handler+0x50>)
1000fce2:	eb06 16c7 	add.w	r6, r6, r7, lsl #7
1000fce6:	eb05 15c7 	add.w	r5, r5, r7, lsl #7
        if (stat & 1) {
1000fcea:	07e3      	lsls	r3, r4, #31
1000fcec:	d503      	bpl.n	1000fcf6 <MXC_GPIO_Common_Handler+0x3a>
            if (callback[port][pin]) {
1000fcee:	682b      	ldr	r3, [r5, #0]
1000fcf0:	b10b      	cbz	r3, 1000fcf6 <MXC_GPIO_Common_Handler+0x3a>
                callback[port][pin](cbparam[port][pin]);
1000fcf2:	6830      	ldr	r0, [r6, #0]
1000fcf4:	4798      	blx	r3
    while (stat) {
1000fcf6:	0864      	lsrs	r4, r4, #1
1000fcf8:	f106 0604 	add.w	r6, r6, #4
1000fcfc:	f105 0504 	add.w	r5, r5, #4
1000fd00:	d1f3      	bne.n	1000fcea <MXC_GPIO_Common_Handler+0x2e>
        }

        pin++;
        stat >>= 1;
    }
}
1000fd02:	bdf8      	pop	{r3, r4, r5, r6, r7, pc}
1000fd04:	10017e50 	.word	0x10017e50
1000fd08:	20001034 	.word	0x20001034
1000fd0c:	20001234 	.word	0x20001234
	...

1000fd40 <strlen>:
1000fd40:	b430      	push	{r4, r5}
1000fd42:	f890 f000 	pld	[r0]
1000fd46:	f020 0107 	bic.w	r1, r0, #7
1000fd4a:	f06f 0c00 	mvn.w	ip, #0
1000fd4e:	f010 0407 	ands.w	r4, r0, #7
1000fd52:	f891 f020 	pld	[r1, #32]
1000fd56:	f040 8048 	bne.w	1000fdea <strlen+0xaa>
1000fd5a:	f04f 0400 	mov.w	r4, #0
1000fd5e:	f06f 0007 	mvn.w	r0, #7
1000fd62:	e9d1 2300 	ldrd	r2, r3, [r1]
1000fd66:	f891 f040 	pld	[r1, #64]	@ 0x40
1000fd6a:	f100 0008 	add.w	r0, r0, #8
1000fd6e:	fa82 f24c 	uadd8	r2, r2, ip
1000fd72:	faa4 f28c 	sel	r2, r4, ip
1000fd76:	fa83 f34c 	uadd8	r3, r3, ip
1000fd7a:	faa2 f38c 	sel	r3, r2, ip
1000fd7e:	bb4b      	cbnz	r3, 1000fdd4 <strlen+0x94>
1000fd80:	e9d1 2302 	ldrd	r2, r3, [r1, #8]
1000fd84:	fa82 f24c 	uadd8	r2, r2, ip
1000fd88:	f100 0008 	add.w	r0, r0, #8
1000fd8c:	faa4 f28c 	sel	r2, r4, ip
1000fd90:	fa83 f34c 	uadd8	r3, r3, ip
1000fd94:	faa2 f38c 	sel	r3, r2, ip
1000fd98:	b9e3      	cbnz	r3, 1000fdd4 <strlen+0x94>
1000fd9a:	e9d1 2304 	ldrd	r2, r3, [r1, #16]
1000fd9e:	fa82 f24c 	uadd8	r2, r2, ip
1000fda2:	f100 0008 	add.w	r0, r0, #8
1000fda6:	faa4 f28c 	sel	r2, r4, ip
1000fdaa:	fa83 f34c 	uadd8	r3, r3, ip
1000fdae:	faa2 f38c 	sel	r3, r2, ip
1000fdb2:	b97b      	cbnz	r3, 1000fdd4 <strlen+0x94>
1000fdb4:	e9d1 2306 	ldrd	r2, r3, [r1, #24]
1000fdb8:	f101 0120 	add.w	r1, r1, #32
1000fdbc:	fa82 f24c 	uadd8	r2, r2, ip
1000fdc0:	f100 0008 	add.w	r0, r0, #8
1000fdc4:	faa4 f28c 	sel	r2, r4, ip
1000fdc8:	fa83 f34c 	uadd8	r3, r3, ip
1000fdcc:	faa2 f38c 	sel	r3, r2, ip
1000fdd0:	2b00      	cmp	r3, #0
1000fdd2:	d0c6      	beq.n	1000fd62 <strlen+0x22>
1000fdd4:	2a00      	cmp	r2, #0
1000fdd6:	bf04      	itt	eq
1000fdd8:	3004      	addeq	r0, #4
1000fdda:	461a      	moveq	r2, r3
1000fddc:	ba12      	rev	r2, r2
1000fdde:	fab2 f282 	clz	r2, r2
1000fde2:	eb00 00d2 	add.w	r0, r0, r2, lsr #3
1000fde6:	bc30      	pop	{r4, r5}
1000fde8:	4770      	bx	lr
1000fdea:	e9d1 2300 	ldrd	r2, r3, [r1]
1000fdee:	f004 0503 	and.w	r5, r4, #3
1000fdf2:	f1c4 0000 	rsb	r0, r4, #0
1000fdf6:	ea4f 05c5 	mov.w	r5, r5, lsl #3
1000fdfa:	f014 0f04 	tst.w	r4, #4
1000fdfe:	f891 f040 	pld	[r1, #64]	@ 0x40
1000fe02:	fa0c f505 	lsl.w	r5, ip, r5
1000fe06:	ea62 0205 	orn	r2, r2, r5
1000fe0a:	bf1c      	itt	ne
1000fe0c:	ea63 0305 	ornne	r3, r3, r5
1000fe10:	4662      	movne	r2, ip
1000fe12:	f04f 0400 	mov.w	r4, #0
1000fe16:	e7aa      	b.n	1000fd6e <strlen+0x2e>

1000fe18 <memset>:
1000fe18:	0783      	lsls	r3, r0, #30
1000fe1a:	b530      	push	{r4, r5, lr}
1000fe1c:	d047      	beq.n	1000feae <memset+0x96>
1000fe1e:	1e54      	subs	r4, r2, #1
1000fe20:	2a00      	cmp	r2, #0
1000fe22:	d03e      	beq.n	1000fea2 <memset+0x8a>
1000fe24:	b2ca      	uxtb	r2, r1
1000fe26:	4603      	mov	r3, r0
1000fe28:	e001      	b.n	1000fe2e <memset+0x16>
1000fe2a:	3c01      	subs	r4, #1
1000fe2c:	d339      	bcc.n	1000fea2 <memset+0x8a>
1000fe2e:	f803 2b01 	strb.w	r2, [r3], #1
1000fe32:	079d      	lsls	r5, r3, #30
1000fe34:	d1f9      	bne.n	1000fe2a <memset+0x12>
1000fe36:	2c03      	cmp	r4, #3
1000fe38:	d92c      	bls.n	1000fe94 <memset+0x7c>
1000fe3a:	b2cd      	uxtb	r5, r1
1000fe3c:	eb05 2505 	add.w	r5, r5, r5, lsl #8
1000fe40:	2c0f      	cmp	r4, #15
1000fe42:	eb05 4505 	add.w	r5, r5, r5, lsl #16
1000fe46:	d935      	bls.n	1000feb4 <memset+0x9c>
1000fe48:	f1a4 0210 	sub.w	r2, r4, #16
1000fe4c:	f022 0c0f 	bic.w	ip, r2, #15
1000fe50:	f103 0e10 	add.w	lr, r3, #16
1000fe54:	44e6      	add	lr, ip
1000fe56:	ea4f 1c12 	mov.w	ip, r2, lsr #4
1000fe5a:	461a      	mov	r2, r3
1000fe5c:	e9c2 5500 	strd	r5, r5, [r2]
1000fe60:	e9c2 5502 	strd	r5, r5, [r2, #8]
1000fe64:	3210      	adds	r2, #16
1000fe66:	4572      	cmp	r2, lr
1000fe68:	d1f8      	bne.n	1000fe5c <memset+0x44>
1000fe6a:	f10c 0201 	add.w	r2, ip, #1
1000fe6e:	f014 0f0c 	tst.w	r4, #12
1000fe72:	eb03 1202 	add.w	r2, r3, r2, lsl #4
1000fe76:	f004 0c0f 	and.w	ip, r4, #15
1000fe7a:	d013      	beq.n	1000fea4 <memset+0x8c>
1000fe7c:	f1ac 0304 	sub.w	r3, ip, #4
1000fe80:	f023 0303 	bic.w	r3, r3, #3
1000fe84:	3304      	adds	r3, #4
1000fe86:	4413      	add	r3, r2
1000fe88:	f842 5b04 	str.w	r5, [r2], #4
1000fe8c:	4293      	cmp	r3, r2
1000fe8e:	d1fb      	bne.n	1000fe88 <memset+0x70>
1000fe90:	f00c 0403 	and.w	r4, ip, #3
1000fe94:	b12c      	cbz	r4, 1000fea2 <memset+0x8a>
1000fe96:	b2c9      	uxtb	r1, r1
1000fe98:	441c      	add	r4, r3
1000fe9a:	f803 1b01 	strb.w	r1, [r3], #1
1000fe9e:	42a3      	cmp	r3, r4
1000fea0:	d1fb      	bne.n	1000fe9a <memset+0x82>
1000fea2:	bd30      	pop	{r4, r5, pc}
1000fea4:	4664      	mov	r4, ip
1000fea6:	4613      	mov	r3, r2
1000fea8:	2c00      	cmp	r4, #0
1000feaa:	d1f4      	bne.n	1000fe96 <memset+0x7e>
1000feac:	e7f9      	b.n	1000fea2 <memset+0x8a>
1000feae:	4603      	mov	r3, r0
1000feb0:	4614      	mov	r4, r2
1000feb2:	e7c0      	b.n	1000fe36 <memset+0x1e>
1000feb4:	461a      	mov	r2, r3
1000feb6:	46a4      	mov	ip, r4
1000feb8:	e7e0      	b.n	1000fe7c <memset+0x64>
1000feba:	bf00      	nop

1000febc <__sflush_r>:
1000febc:	f9b1 200c 	ldrsh.w	r2, [r1, #12]
1000fec0:	b5f8      	push	{r3, r4, r5, r6, r7, lr}
1000fec2:	0716      	lsls	r6, r2, #28
1000fec4:	460c      	mov	r4, r1
1000fec6:	4607      	mov	r7, r0
1000fec8:	d449      	bmi.n	1000ff5e <__sflush_r+0xa2>
1000feca:	6849      	ldr	r1, [r1, #4]
1000fecc:	f442 6300 	orr.w	r3, r2, #2048	@ 0x800
1000fed0:	2900      	cmp	r1, #0
1000fed2:	81a3      	strh	r3, [r4, #12]
1000fed4:	dd5f      	ble.n	1000ff96 <__sflush_r+0xda>
1000fed6:	6aa5      	ldr	r5, [r4, #40]	@ 0x28
1000fed8:	2d00      	cmp	r5, #0
1000feda:	d03e      	beq.n	1000ff5a <__sflush_r+0x9e>
1000fedc:	2100      	movs	r1, #0
1000fede:	f412 5280 	ands.w	r2, r2, #4096	@ 0x1000
1000fee2:	683e      	ldr	r6, [r7, #0]
1000fee4:	6039      	str	r1, [r7, #0]
1000fee6:	69e1      	ldr	r1, [r4, #28]
1000fee8:	d161      	bne.n	1000ffae <__sflush_r+0xf2>
1000feea:	2301      	movs	r3, #1
1000feec:	4638      	mov	r0, r7
1000feee:	47a8      	blx	r5
1000fef0:	1c45      	adds	r5, r0, #1
1000fef2:	4602      	mov	r2, r0
1000fef4:	d06b      	beq.n	1000ffce <__sflush_r+0x112>
1000fef6:	f9b4 300c 	ldrsh.w	r3, [r4, #12]
1000fefa:	6aa5      	ldr	r5, [r4, #40]	@ 0x28
1000fefc:	69e1      	ldr	r1, [r4, #28]
1000fefe:	0758      	lsls	r0, r3, #29
1000ff00:	d505      	bpl.n	1000ff0e <__sflush_r+0x52>
1000ff02:	6863      	ldr	r3, [r4, #4]
1000ff04:	1ad2      	subs	r2, r2, r3
1000ff06:	6b23      	ldr	r3, [r4, #48]	@ 0x30
1000ff08:	b10b      	cbz	r3, 1000ff0e <__sflush_r+0x52>
1000ff0a:	6be3      	ldr	r3, [r4, #60]	@ 0x3c
1000ff0c:	1ad2      	subs	r2, r2, r3
1000ff0e:	2300      	movs	r3, #0
1000ff10:	4638      	mov	r0, r7
1000ff12:	47a8      	blx	r5
1000ff14:	1c41      	adds	r1, r0, #1
1000ff16:	d14c      	bne.n	1000ffb2 <__sflush_r+0xf6>
1000ff18:	6839      	ldr	r1, [r7, #0]
1000ff1a:	f9b4 300c 	ldrsh.w	r3, [r4, #12]
1000ff1e:	291d      	cmp	r1, #29
1000ff20:	d83f      	bhi.n	1000ffa2 <__sflush_r+0xe6>
1000ff22:	4a2f      	ldr	r2, [pc, #188]	@ (1000ffe0 <__sflush_r+0x124>)
1000ff24:	40ca      	lsrs	r2, r1
1000ff26:	07d2      	lsls	r2, r2, #31
1000ff28:	d53b      	bpl.n	1000ffa2 <__sflush_r+0xe6>
1000ff2a:	6922      	ldr	r2, [r4, #16]
1000ff2c:	6022      	str	r2, [r4, #0]
1000ff2e:	f423 6200 	bic.w	r2, r3, #2048	@ 0x800
1000ff32:	81a2      	strh	r2, [r4, #12]
1000ff34:	04dd      	lsls	r5, r3, #19
1000ff36:	f04f 0200 	mov.w	r2, #0
1000ff3a:	6062      	str	r2, [r4, #4]
1000ff3c:	d501      	bpl.n	1000ff42 <__sflush_r+0x86>
1000ff3e:	2900      	cmp	r1, #0
1000ff40:	d043      	beq.n	1000ffca <__sflush_r+0x10e>
1000ff42:	6b21      	ldr	r1, [r4, #48]	@ 0x30
1000ff44:	603e      	str	r6, [r7, #0]
1000ff46:	b141      	cbz	r1, 1000ff5a <__sflush_r+0x9e>
1000ff48:	f104 0340 	add.w	r3, r4, #64	@ 0x40
1000ff4c:	4299      	cmp	r1, r3
1000ff4e:	d002      	beq.n	1000ff56 <__sflush_r+0x9a>
1000ff50:	4638      	mov	r0, r7
1000ff52:	f000 f8e3 	bl	1001011c <_free_r>
1000ff56:	2300      	movs	r3, #0
1000ff58:	6323      	str	r3, [r4, #48]	@ 0x30
1000ff5a:	2000      	movs	r0, #0
1000ff5c:	bdf8      	pop	{r3, r4, r5, r6, r7, pc}
1000ff5e:	690e      	ldr	r6, [r1, #16]
1000ff60:	2e00      	cmp	r6, #0
1000ff62:	d0fa      	beq.n	1000ff5a <__sflush_r+0x9e>
1000ff64:	680d      	ldr	r5, [r1, #0]
1000ff66:	600e      	str	r6, [r1, #0]
1000ff68:	0792      	lsls	r2, r2, #30
1000ff6a:	bf0c      	ite	eq
1000ff6c:	694b      	ldreq	r3, [r1, #20]
1000ff6e:	2300      	movne	r3, #0
1000ff70:	1bad      	subs	r5, r5, r6
1000ff72:	608b      	str	r3, [r1, #8]
1000ff74:	e00c      	b.n	1000ff90 <__sflush_r+0xd4>
1000ff76:	f8d4 c024 	ldr.w	ip, [r4, #36]	@ 0x24
1000ff7a:	69e1      	ldr	r1, [r4, #28]
1000ff7c:	462b      	mov	r3, r5
1000ff7e:	4632      	mov	r2, r6
1000ff80:	4638      	mov	r0, r7
1000ff82:	47e0      	blx	ip
1000ff84:	f1b0 0c00 	subs.w	ip, r0, #0
1000ff88:	eba5 050c 	sub.w	r5, r5, ip
1000ff8c:	4466      	add	r6, ip
1000ff8e:	dd06      	ble.n	1000ff9e <__sflush_r+0xe2>
1000ff90:	2d00      	cmp	r5, #0
1000ff92:	dcf0      	bgt.n	1000ff76 <__sflush_r+0xba>
1000ff94:	e7e1      	b.n	1000ff5a <__sflush_r+0x9e>
1000ff96:	6be1      	ldr	r1, [r4, #60]	@ 0x3c
1000ff98:	2900      	cmp	r1, #0
1000ff9a:	dc9c      	bgt.n	1000fed6 <__sflush_r+0x1a>
1000ff9c:	e7dd      	b.n	1000ff5a <__sflush_r+0x9e>
1000ff9e:	f9b4 300c 	ldrsh.w	r3, [r4, #12]
1000ffa2:	f043 0340 	orr.w	r3, r3, #64	@ 0x40
1000ffa6:	81a3      	strh	r3, [r4, #12]
1000ffa8:	f04f 30ff 	mov.w	r0, #4294967295	@ 0xffffffff
1000ffac:	bdf8      	pop	{r3, r4, r5, r6, r7, pc}
1000ffae:	6d22      	ldr	r2, [r4, #80]	@ 0x50
1000ffb0:	e7a5      	b.n	1000fefe <__sflush_r+0x42>
1000ffb2:	f9b4 300c 	ldrsh.w	r3, [r4, #12]
1000ffb6:	6922      	ldr	r2, [r4, #16]
1000ffb8:	6022      	str	r2, [r4, #0]
1000ffba:	f423 6200 	bic.w	r2, r3, #2048	@ 0x800
1000ffbe:	81a2      	strh	r2, [r4, #12]
1000ffc0:	04db      	lsls	r3, r3, #19
1000ffc2:	f04f 0200 	mov.w	r2, #0
1000ffc6:	6062      	str	r2, [r4, #4]
1000ffc8:	d5bb      	bpl.n	1000ff42 <__sflush_r+0x86>
1000ffca:	6520      	str	r0, [r4, #80]	@ 0x50
1000ffcc:	e7b9      	b.n	1000ff42 <__sflush_r+0x86>
1000ffce:	683b      	ldr	r3, [r7, #0]
1000ffd0:	2b00      	cmp	r3, #0
1000ffd2:	d090      	beq.n	1000fef6 <__sflush_r+0x3a>
1000ffd4:	2b1d      	cmp	r3, #29
1000ffd6:	d001      	beq.n	1000ffdc <__sflush_r+0x120>
1000ffd8:	2b16      	cmp	r3, #22
1000ffda:	d1e0      	bne.n	1000ff9e <__sflush_r+0xe2>
1000ffdc:	603e      	str	r6, [r7, #0]
1000ffde:	e7bc      	b.n	1000ff5a <__sflush_r+0x9e>
1000ffe0:	20400001 	.word	0x20400001

1000ffe4 <_fflush_r>:
1000ffe4:	b510      	push	{r4, lr}
1000ffe6:	4604      	mov	r4, r0
1000ffe8:	b082      	sub	sp, #8
1000ffea:	b108      	cbz	r0, 1000fff0 <_fflush_r+0xc>
1000ffec:	6b43      	ldr	r3, [r0, #52]	@ 0x34
1000ffee:	b153      	cbz	r3, 10010006 <_fflush_r+0x22>
1000fff0:	f9b1 000c 	ldrsh.w	r0, [r1, #12]
1000fff4:	b908      	cbnz	r0, 1000fffa <_fflush_r+0x16>
1000fff6:	b002      	add	sp, #8
1000fff8:	bd10      	pop	{r4, pc}
1000fffa:	4620      	mov	r0, r4
1000fffc:	b002      	add	sp, #8
1000fffe:	e8bd 4010 	ldmia.w	sp!, {r4, lr}
10010002:	f7ff bf5b 	b.w	1000febc <__sflush_r>
10010006:	9101      	str	r1, [sp, #4]
10010008:	f000 fb42 	bl	10010690 <__sinit>
1001000c:	9901      	ldr	r1, [sp, #4]
1001000e:	e7ef      	b.n	1000fff0 <_fflush_r+0xc>

10010010 <fflush>:
10010010:	b1a0      	cbz	r0, 1001003c <fflush+0x2c>
10010012:	b538      	push	{r3, r4, r5, lr}
10010014:	4b0c      	ldr	r3, [pc, #48]	@ (10010048 <fflush+0x38>)
10010016:	681d      	ldr	r5, [r3, #0]
10010018:	4604      	mov	r4, r0
1001001a:	b10d      	cbz	r5, 10010020 <fflush+0x10>
1001001c:	6b6b      	ldr	r3, [r5, #52]	@ 0x34
1001001e:	b14b      	cbz	r3, 10010034 <fflush+0x24>
10010020:	f9b4 000c 	ldrsh.w	r0, [r4, #12]
10010024:	b900      	cbnz	r0, 10010028 <fflush+0x18>
10010026:	bd38      	pop	{r3, r4, r5, pc}
10010028:	4621      	mov	r1, r4
1001002a:	4628      	mov	r0, r5
1001002c:	e8bd 4038 	ldmia.w	sp!, {r3, r4, r5, lr}
10010030:	f7ff bf44 	b.w	1000febc <__sflush_r>
10010034:	4628      	mov	r0, r5
10010036:	f000 fb2b 	bl	10010690 <__sinit>
1001003a:	e7f1      	b.n	10010020 <fflush+0x10>
1001003c:	4a03      	ldr	r2, [pc, #12]	@ (1001004c <fflush+0x3c>)
1001003e:	4904      	ldr	r1, [pc, #16]	@ (10010050 <fflush+0x40>)
10010040:	4804      	ldr	r0, [pc, #16]	@ (10010054 <fflush+0x44>)
10010042:	f000 bd97 	b.w	10010b74 <_fwalk_sglue>
10010046:	bf00      	nop
10010048:	20000010 	.word	0x20000010
1001004c:	20000138 	.word	0x20000138
10010050:	1000ffe5 	.word	0x1000ffe5
10010054:	20000018 	.word	0x20000018

10010058 <__errno>:
10010058:	4b01      	ldr	r3, [pc, #4]	@ (10010060 <__errno+0x8>)
1001005a:	6818      	ldr	r0, [r3, #0]
1001005c:	4770      	bx	lr
1001005e:	bf00      	nop
10010060:	20000010 	.word	0x20000010

10010064 <_malloc_trim_r>:
10010064:	e92d 43f8 	stmdb	sp!, {r3, r4, r5, r6, r7, r8, r9, lr}
10010068:	4606      	mov	r6, r0
1001006a:	2008      	movs	r0, #8
1001006c:	4689      	mov	r9, r1
1001006e:	f000 f9eb 	bl	10010448 <sysconf>
10010072:	f8df 809c 	ldr.w	r8, [pc, #156]	@ 10010110 <_malloc_trim_r+0xac>
10010076:	4605      	mov	r5, r0
10010078:	4630      	mov	r0, r6
1001007a:	f000 fa1b 	bl	100104b4 <__malloc_lock>
1001007e:	f8d8 3008 	ldr.w	r3, [r8, #8]
10010082:	685f      	ldr	r7, [r3, #4]
10010084:	f027 0703 	bic.w	r7, r7, #3
10010088:	f1a7 0411 	sub.w	r4, r7, #17
1001008c:	eba4 0409 	sub.w	r4, r4, r9
10010090:	442c      	add	r4, r5
10010092:	fbb4 f4f5 	udiv	r4, r4, r5
10010096:	3c01      	subs	r4, #1
10010098:	fb05 f404 	mul.w	r4, r5, r4
1001009c:	42a5      	cmp	r5, r4
1001009e:	dc08      	bgt.n	100100b2 <_malloc_trim_r+0x4e>
100100a0:	2100      	movs	r1, #0
100100a2:	4630      	mov	r0, r6
100100a4:	f000 fd40 	bl	10010b28 <_sbrk_r>
100100a8:	f8d8 3008 	ldr.w	r3, [r8, #8]
100100ac:	443b      	add	r3, r7
100100ae:	4298      	cmp	r0, r3
100100b0:	d005      	beq.n	100100be <_malloc_trim_r+0x5a>
100100b2:	4630      	mov	r0, r6
100100b4:	f000 fa00 	bl	100104b8 <__malloc_unlock>
100100b8:	2000      	movs	r0, #0
100100ba:	e8bd 83f8 	ldmia.w	sp!, {r3, r4, r5, r6, r7, r8, r9, pc}
100100be:	4261      	negs	r1, r4
100100c0:	4630      	mov	r0, r6
100100c2:	f000 fd31 	bl	10010b28 <_sbrk_r>
100100c6:	3001      	adds	r0, #1
100100c8:	d00f      	beq.n	100100ea <_malloc_trim_r+0x86>
100100ca:	4a12      	ldr	r2, [pc, #72]	@ (10010114 <_malloc_trim_r+0xb0>)
100100cc:	f8d8 3008 	ldr.w	r3, [r8, #8]
100100d0:	1b3f      	subs	r7, r7, r4
100100d2:	f047 0701 	orr.w	r7, r7, #1
100100d6:	605f      	str	r7, [r3, #4]
100100d8:	6813      	ldr	r3, [r2, #0]
100100da:	4630      	mov	r0, r6
100100dc:	1b1b      	subs	r3, r3, r4
100100de:	6013      	str	r3, [r2, #0]
100100e0:	f000 f9ea 	bl	100104b8 <__malloc_unlock>
100100e4:	2001      	movs	r0, #1
100100e6:	e8bd 83f8 	ldmia.w	sp!, {r3, r4, r5, r6, r7, r8, r9, pc}
100100ea:	2100      	movs	r1, #0
100100ec:	4630      	mov	r0, r6
100100ee:	f000 fd1b 	bl	10010b28 <_sbrk_r>
100100f2:	f8d8 2008 	ldr.w	r2, [r8, #8]
100100f6:	1a83      	subs	r3, r0, r2
100100f8:	2b0f      	cmp	r3, #15
100100fa:	ddda      	ble.n	100100b2 <_malloc_trim_r+0x4e>
100100fc:	f043 0301 	orr.w	r3, r3, #1
10010100:	6053      	str	r3, [r2, #4]
10010102:	4b05      	ldr	r3, [pc, #20]	@ (10010118 <_malloc_trim_r+0xb4>)
10010104:	4903      	ldr	r1, [pc, #12]	@ (10010114 <_malloc_trim_r+0xb0>)
10010106:	681b      	ldr	r3, [r3, #0]
10010108:	1ac0      	subs	r0, r0, r3
1001010a:	6008      	str	r0, [r1, #0]
1001010c:	e7d1      	b.n	100100b2 <_malloc_trim_r+0x4e>
1001010e:	bf00      	nop
10010110:	20000148 	.word	0x20000148
10010114:	20001574 	.word	0x20001574
10010118:	20000550 	.word	0x20000550

1001011c <_free_r>:
1001011c:	2900      	cmp	r1, #0
1001011e:	d07c      	beq.n	1001021a <_free_r+0xfe>
10010120:	b5f8      	push	{r3, r4, r5, r6, r7, lr}
10010122:	460c      	mov	r4, r1
10010124:	4606      	mov	r6, r0
10010126:	f000 f9c5 	bl	100104b4 <__malloc_lock>
1001012a:	f854 3c04 	ldr.w	r3, [r4, #-4]
1001012e:	4f76      	ldr	r7, [pc, #472]	@ (10010308 <_free_r+0x1ec>)
10010130:	f1a4 0508 	sub.w	r5, r4, #8
10010134:	f023 0101 	bic.w	r1, r3, #1
10010138:	1868      	adds	r0, r5, r1
1001013a:	f8d7 c008 	ldr.w	ip, [r7, #8]
1001013e:	6842      	ldr	r2, [r0, #4]
10010140:	4584      	cmp	ip, r0
10010142:	f022 0203 	bic.w	r2, r2, #3
10010146:	f000 8083 	beq.w	10010250 <_free_r+0x134>
1001014a:	07db      	lsls	r3, r3, #31
1001014c:	6042      	str	r2, [r0, #4]
1001014e:	eb00 0c02 	add.w	ip, r0, r2
10010152:	d433      	bmi.n	100101bc <_free_r+0xa0>
10010154:	f854 4c08 	ldr.w	r4, [r4, #-8]
10010158:	f8dc 3004 	ldr.w	r3, [ip, #4]
1001015c:	1b2d      	subs	r5, r5, r4
1001015e:	4421      	add	r1, r4
10010160:	68ac      	ldr	r4, [r5, #8]
10010162:	f107 0c08 	add.w	ip, r7, #8
10010166:	4564      	cmp	r4, ip
10010168:	f003 0301 	and.w	r3, r3, #1
1001016c:	d064      	beq.n	10010238 <_free_r+0x11c>
1001016e:	f8d5 e00c 	ldr.w	lr, [r5, #12]
10010172:	f8c4 e00c 	str.w	lr, [r4, #12]
10010176:	f8ce 4008 	str.w	r4, [lr, #8]
1001017a:	2b00      	cmp	r3, #0
1001017c:	f000 8081 	beq.w	10010282 <_free_r+0x166>
10010180:	f041 0301 	orr.w	r3, r1, #1
10010184:	606b      	str	r3, [r5, #4]
10010186:	6001      	str	r1, [r0, #0]
10010188:	f5b1 7f00 	cmp.w	r1, #512	@ 0x200
1001018c:	d222      	bcs.n	100101d4 <_free_r+0xb8>
1001018e:	6878      	ldr	r0, [r7, #4]
10010190:	08cb      	lsrs	r3, r1, #3
10010192:	2201      	movs	r2, #1
10010194:	0949      	lsrs	r1, r1, #5
10010196:	3301      	adds	r3, #1
10010198:	408a      	lsls	r2, r1
1001019a:	4302      	orrs	r2, r0
1001019c:	f857 1033 	ldr.w	r1, [r7, r3, lsl #3]
100101a0:	607a      	str	r2, [r7, #4]
100101a2:	eb07 02c3 	add.w	r2, r7, r3, lsl #3
100101a6:	3a08      	subs	r2, #8
100101a8:	e9c5 1202 	strd	r1, r2, [r5, #8]
100101ac:	f847 5033 	str.w	r5, [r7, r3, lsl #3]
100101b0:	60cd      	str	r5, [r1, #12]
100101b2:	4630      	mov	r0, r6
100101b4:	e8bd 40f8 	ldmia.w	sp!, {r3, r4, r5, r6, r7, lr}
100101b8:	f000 b97e 	b.w	100104b8 <__malloc_unlock>
100101bc:	f8dc 3004 	ldr.w	r3, [ip, #4]
100101c0:	07db      	lsls	r3, r3, #31
100101c2:	d52b      	bpl.n	1001021c <_free_r+0x100>
100101c4:	f041 0301 	orr.w	r3, r1, #1
100101c8:	f5b1 7f00 	cmp.w	r1, #512	@ 0x200
100101cc:	f844 3c04 	str.w	r3, [r4, #-4]
100101d0:	6001      	str	r1, [r0, #0]
100101d2:	d3dc      	bcc.n	1001018e <_free_r+0x72>
100101d4:	f5b1 6f20 	cmp.w	r1, #2560	@ 0xa00
100101d8:	ea4f 2351 	mov.w	r3, r1, lsr #9
100101dc:	d253      	bcs.n	10010286 <_free_r+0x16a>
100101de:	098b      	lsrs	r3, r1, #6
100101e0:	f103 0039 	add.w	r0, r3, #57	@ 0x39
100101e4:	f103 0238 	add.w	r2, r3, #56	@ 0x38
100101e8:	00c3      	lsls	r3, r0, #3
100101ea:	18f8      	adds	r0, r7, r3
100101ec:	58fb      	ldr	r3, [r7, r3]
100101ee:	3808      	subs	r0, #8
100101f0:	4298      	cmp	r0, r3
100101f2:	d103      	bne.n	100101fc <_free_r+0xe0>
100101f4:	e061      	b.n	100102ba <_free_r+0x19e>
100101f6:	689b      	ldr	r3, [r3, #8]
100101f8:	4298      	cmp	r0, r3
100101fa:	d004      	beq.n	10010206 <_free_r+0xea>
100101fc:	685a      	ldr	r2, [r3, #4]
100101fe:	f022 0203 	bic.w	r2, r2, #3
10010202:	428a      	cmp	r2, r1
10010204:	d8f7      	bhi.n	100101f6 <_free_r+0xda>
10010206:	68d8      	ldr	r0, [r3, #12]
10010208:	e9c5 3002 	strd	r3, r0, [r5, #8]
1001020c:	6085      	str	r5, [r0, #8]
1001020e:	60dd      	str	r5, [r3, #12]
10010210:	4630      	mov	r0, r6
10010212:	e8bd 40f8 	ldmia.w	sp!, {r3, r4, r5, r6, r7, lr}
10010216:	f000 b94f 	b.w	100104b8 <__malloc_unlock>
1001021a:	4770      	bx	lr
1001021c:	4411      	add	r1, r2
1001021e:	f107 0c08 	add.w	ip, r7, #8
10010222:	6883      	ldr	r3, [r0, #8]
10010224:	4563      	cmp	r3, ip
10010226:	d03f      	beq.n	100102a8 <_free_r+0x18c>
10010228:	68c2      	ldr	r2, [r0, #12]
1001022a:	60da      	str	r2, [r3, #12]
1001022c:	6093      	str	r3, [r2, #8]
1001022e:	f041 0301 	orr.w	r3, r1, #1
10010232:	606b      	str	r3, [r5, #4]
10010234:	5069      	str	r1, [r5, r1]
10010236:	e7a7      	b.n	10010188 <_free_r+0x6c>
10010238:	2b00      	cmp	r3, #0
1001023a:	d15f      	bne.n	100102fc <_free_r+0x1e0>
1001023c:	440a      	add	r2, r1
1001023e:	e9d0 1302 	ldrd	r1, r3, [r0, #8]
10010242:	60cb      	str	r3, [r1, #12]
10010244:	6099      	str	r1, [r3, #8]
10010246:	f042 0301 	orr.w	r3, r2, #1
1001024a:	606b      	str	r3, [r5, #4]
1001024c:	50aa      	str	r2, [r5, r2]
1001024e:	e7b0      	b.n	100101b2 <_free_r+0x96>
10010250:	440a      	add	r2, r1
10010252:	07d9      	lsls	r1, r3, #31
10010254:	d407      	bmi.n	10010266 <_free_r+0x14a>
10010256:	f854 3c08 	ldr.w	r3, [r4, #-8]
1001025a:	1aed      	subs	r5, r5, r3
1001025c:	441a      	add	r2, r3
1001025e:	e9d5 1302 	ldrd	r1, r3, [r5, #8]
10010262:	60cb      	str	r3, [r1, #12]
10010264:	6099      	str	r1, [r3, #8]
10010266:	f042 0301 	orr.w	r3, r2, #1
1001026a:	606b      	str	r3, [r5, #4]
1001026c:	4b27      	ldr	r3, [pc, #156]	@ (1001030c <_free_r+0x1f0>)
1001026e:	60bd      	str	r5, [r7, #8]
10010270:	681b      	ldr	r3, [r3, #0]
10010272:	4293      	cmp	r3, r2
10010274:	d89d      	bhi.n	100101b2 <_free_r+0x96>
10010276:	4b26      	ldr	r3, [pc, #152]	@ (10010310 <_free_r+0x1f4>)
10010278:	4630      	mov	r0, r6
1001027a:	6819      	ldr	r1, [r3, #0]
1001027c:	f7ff fef2 	bl	10010064 <_malloc_trim_r>
10010280:	e797      	b.n	100101b2 <_free_r+0x96>
10010282:	4411      	add	r1, r2
10010284:	e7cd      	b.n	10010222 <_free_r+0x106>
10010286:	2b14      	cmp	r3, #20
10010288:	d908      	bls.n	1001029c <_free_r+0x180>
1001028a:	2b54      	cmp	r3, #84	@ 0x54
1001028c:	d81d      	bhi.n	100102ca <_free_r+0x1ae>
1001028e:	0b0b      	lsrs	r3, r1, #12
10010290:	f103 006f 	add.w	r0, r3, #111	@ 0x6f
10010294:	f103 026e 	add.w	r2, r3, #110	@ 0x6e
10010298:	00c3      	lsls	r3, r0, #3
1001029a:	e7a6      	b.n	100101ea <_free_r+0xce>
1001029c:	f103 005c 	add.w	r0, r3, #92	@ 0x5c
100102a0:	f103 025b 	add.w	r2, r3, #91	@ 0x5b
100102a4:	00c3      	lsls	r3, r0, #3
100102a6:	e7a0      	b.n	100101ea <_free_r+0xce>
100102a8:	f041 0301 	orr.w	r3, r1, #1
100102ac:	e9c7 5504 	strd	r5, r5, [r7, #16]
100102b0:	e9c5 cc02 	strd	ip, ip, [r5, #8]
100102b4:	606b      	str	r3, [r5, #4]
100102b6:	5069      	str	r1, [r5, r1]
100102b8:	e77b      	b.n	100101b2 <_free_r+0x96>
100102ba:	6879      	ldr	r1, [r7, #4]
100102bc:	1092      	asrs	r2, r2, #2
100102be:	2401      	movs	r4, #1
100102c0:	fa04 f202 	lsl.w	r2, r4, r2
100102c4:	430a      	orrs	r2, r1
100102c6:	607a      	str	r2, [r7, #4]
100102c8:	e79e      	b.n	10010208 <_free_r+0xec>
100102ca:	f5b3 7faa 	cmp.w	r3, #340	@ 0x154
100102ce:	d806      	bhi.n	100102de <_free_r+0x1c2>
100102d0:	0bcb      	lsrs	r3, r1, #15
100102d2:	f103 0078 	add.w	r0, r3, #120	@ 0x78
100102d6:	f103 0277 	add.w	r2, r3, #119	@ 0x77
100102da:	00c3      	lsls	r3, r0, #3
100102dc:	e785      	b.n	100101ea <_free_r+0xce>
100102de:	f240 5254 	movw	r2, #1364	@ 0x554
100102e2:	4293      	cmp	r3, r2
100102e4:	d806      	bhi.n	100102f4 <_free_r+0x1d8>
100102e6:	0c8b      	lsrs	r3, r1, #18
100102e8:	f103 007d 	add.w	r0, r3, #125	@ 0x7d
100102ec:	f103 027c 	add.w	r2, r3, #124	@ 0x7c
100102f0:	00c3      	lsls	r3, r0, #3
100102f2:	e77a      	b.n	100101ea <_free_r+0xce>
100102f4:	f44f 737e 	mov.w	r3, #1016	@ 0x3f8
100102f8:	227e      	movs	r2, #126	@ 0x7e
100102fa:	e776      	b.n	100101ea <_free_r+0xce>
100102fc:	f041 0301 	orr.w	r3, r1, #1
10010300:	606b      	str	r3, [r5, #4]
10010302:	6001      	str	r1, [r0, #0]
10010304:	e755      	b.n	100101b2 <_free_r+0x96>
10010306:	bf00      	nop
10010308:	20000148 	.word	0x20000148
1001030c:	20000554 	.word	0x20000554
10010310:	20001570 	.word	0x20001570

10010314 <memcpy>:
10010314:	4684      	mov	ip, r0
10010316:	ea41 0300 	orr.w	r3, r1, r0
1001031a:	f013 0303 	ands.w	r3, r3, #3
1001031e:	d16d      	bne.n	100103fc <memcpy+0xe8>
10010320:	3a40      	subs	r2, #64	@ 0x40
10010322:	d341      	bcc.n	100103a8 <memcpy+0x94>
10010324:	f851 3b04 	ldr.w	r3, [r1], #4
10010328:	f840 3b04 	str.w	r3, [r0], #4
1001032c:	f851 3b04 	ldr.w	r3, [r1], #4
10010330:	f840 3b04 	str.w	r3, [r0], #4
10010334:	f851 3b04 	ldr.w	r3, [r1], #4
10010338:	f840 3b04 	str.w	r3, [r0], #4
1001033c:	f851 3b04 	ldr.w	r3, [r1], #4
10010340:	f840 3b04 	str.w	r3, [r0], #4
10010344:	f851 3b04 	ldr.w	r3, [r1], #4
10010348:	f840 3b04 	str.w	r3, [r0], #4
1001034c:	f851 3b04 	ldr.w	r3, [r1], #4
10010350:	f840 3b04 	str.w	r3, [r0], #4
10010354:	f851 3b04 	ldr.w	r3, [r1], #4
10010358:	f840 3b04 	str.w	r3, [r0], #4
1001035c:	f851 3b04 	ldr.w	r3, [r1], #4
10010360:	f840 3b04 	str.w	r3, [r0], #4
10010364:	f851 3b04 	ldr.w	r3, [r1], #4
10010368:	f840 3b04 	str.w	r3, [r0], #4
1001036c:	f851 3b04 	ldr.w	r3, [r1], #4
10010370:	f840 3b04 	str.w	r3, [r0], #4
10010374:	f851 3b04 	ldr.w	r3, [r1], #4
10010378:	f840 3b04 	str.w	r3, [r0], #4
1001037c:	f851 3b04 	ldr.w	r3, [r1], #4
10010380:	f840 3b04 	str.w	r3, [r0], #4
10010384:	f851 3b04 	ldr.w	r3, [r1], #4
10010388:	f840 3b04 	str.w	r3, [r0], #4
1001038c:	f851 3b04 	ldr.w	r3, [r1], #4
10010390:	f840 3b04 	str.w	r3, [r0], #4
10010394:	f851 3b04 	ldr.w	r3, [r1], #4
10010398:	f840 3b04 	str.w	r3, [r0], #4
1001039c:	f851 3b04 	ldr.w	r3, [r1], #4
100103a0:	f840 3b04 	str.w	r3, [r0], #4
100103a4:	3a40      	subs	r2, #64	@ 0x40
100103a6:	d2bd      	bcs.n	10010324 <memcpy+0x10>
100103a8:	3230      	adds	r2, #48	@ 0x30
100103aa:	d311      	bcc.n	100103d0 <memcpy+0xbc>
100103ac:	f851 3b04 	ldr.w	r3, [r1], #4
100103b0:	f840 3b04 	str.w	r3, [r0], #4
100103b4:	f851 3b04 	ldr.w	r3, [r1], #4
100103b8:	f840 3b04 	str.w	r3, [r0], #4
100103bc:	f851 3b04 	ldr.w	r3, [r1], #4
100103c0:	f840 3b04 	str.w	r3, [r0], #4
100103c4:	f851 3b04 	ldr.w	r3, [r1], #4
100103c8:	f840 3b04 	str.w	r3, [r0], #4
100103cc:	3a10      	subs	r2, #16
100103ce:	d2ed      	bcs.n	100103ac <memcpy+0x98>
100103d0:	320c      	adds	r2, #12
100103d2:	d305      	bcc.n	100103e0 <memcpy+0xcc>
100103d4:	f851 3b04 	ldr.w	r3, [r1], #4
100103d8:	f840 3b04 	str.w	r3, [r0], #4
100103dc:	3a04      	subs	r2, #4
100103de:	d2f9      	bcs.n	100103d4 <memcpy+0xc0>
100103e0:	3204      	adds	r2, #4
100103e2:	d008      	beq.n	100103f6 <memcpy+0xe2>
100103e4:	07d2      	lsls	r2, r2, #31
100103e6:	bf1c      	itt	ne
100103e8:	f811 3b01 	ldrbne.w	r3, [r1], #1
100103ec:	f800 3b01 	strbne.w	r3, [r0], #1
100103f0:	d301      	bcc.n	100103f6 <memcpy+0xe2>
100103f2:	880b      	ldrh	r3, [r1, #0]
100103f4:	8003      	strh	r3, [r0, #0]
100103f6:	4660      	mov	r0, ip
100103f8:	4770      	bx	lr
100103fa:	bf00      	nop
100103fc:	2a08      	cmp	r2, #8
100103fe:	d313      	bcc.n	10010428 <memcpy+0x114>
10010400:	078b      	lsls	r3, r1, #30
10010402:	d08d      	beq.n	10010320 <memcpy+0xc>
10010404:	f010 0303 	ands.w	r3, r0, #3
10010408:	d08a      	beq.n	10010320 <memcpy+0xc>
1001040a:	f1c3 0304 	rsb	r3, r3, #4
1001040e:	1ad2      	subs	r2, r2, r3
10010410:	07db      	lsls	r3, r3, #31
10010412:	bf1c      	itt	ne
10010414:	f811 3b01 	ldrbne.w	r3, [r1], #1
10010418:	f800 3b01 	strbne.w	r3, [r0], #1
1001041c:	d380      	bcc.n	10010320 <memcpy+0xc>
1001041e:	f831 3b02 	ldrh.w	r3, [r1], #2
10010422:	f820 3b02 	strh.w	r3, [r0], #2
10010426:	e77b      	b.n	10010320 <memcpy+0xc>
10010428:	3a04      	subs	r2, #4
1001042a:	d3d9      	bcc.n	100103e0 <memcpy+0xcc>
1001042c:	3a01      	subs	r2, #1
1001042e:	f811 3b01 	ldrb.w	r3, [r1], #1
10010432:	f800 3b01 	strb.w	r3, [r0], #1
10010436:	d2f9      	bcs.n	1001042c <memcpy+0x118>
10010438:	780b      	ldrb	r3, [r1, #0]
1001043a:	7003      	strb	r3, [r0, #0]
1001043c:	784b      	ldrb	r3, [r1, #1]
1001043e:	7043      	strb	r3, [r0, #1]
10010440:	788b      	ldrb	r3, [r1, #2]
10010442:	7083      	strb	r3, [r0, #2]
10010444:	4660      	mov	r0, ip
10010446:	4770      	bx	lr

10010448 <sysconf>:
10010448:	2808      	cmp	r0, #8
1001044a:	d102      	bne.n	10010452 <sysconf+0xa>
1001044c:	f44f 5080 	mov.w	r0, #4096	@ 0x1000
10010450:	4770      	bx	lr
10010452:	b508      	push	{r3, lr}
10010454:	f7ff fe00 	bl	10010058 <__errno>
10010458:	2316      	movs	r3, #22
1001045a:	6003      	str	r3, [r0, #0]
1001045c:	f04f 30ff 	mov.w	r0, #4294967295	@ 0xffffffff
10010460:	bd08      	pop	{r3, pc}
10010462:	bf00      	nop

10010464 <__libc_init_array>:
10010464:	b570      	push	{r4, r5, r6, lr}
10010466:	4b0f      	ldr	r3, [pc, #60]	@ (100104a4 <__libc_init_array+0x40>)
10010468:	4d0f      	ldr	r5, [pc, #60]	@ (100104a8 <__libc_init_array+0x44>)
1001046a:	42ab      	cmp	r3, r5
1001046c:	eba3 0605 	sub.w	r6, r3, r5
10010470:	d007      	beq.n	10010482 <__libc_init_array+0x1e>
10010472:	10b6      	asrs	r6, r6, #2
10010474:	2400      	movs	r4, #0
10010476:	f855 3b04 	ldr.w	r3, [r5], #4
1001047a:	3401      	adds	r4, #1
1001047c:	4798      	blx	r3
1001047e:	42a6      	cmp	r6, r4
10010480:	d8f9      	bhi.n	10010476 <__libc_init_array+0x12>
10010482:	f007 fe33 	bl	100180ec <_init>
10010486:	4d09      	ldr	r5, [pc, #36]	@ (100104ac <__libc_init_array+0x48>)
10010488:	4b09      	ldr	r3, [pc, #36]	@ (100104b0 <__libc_init_array+0x4c>)
1001048a:	1b5e      	subs	r6, r3, r5
1001048c:	42ab      	cmp	r3, r5
1001048e:	ea4f 06a6 	mov.w	r6, r6, asr #2
10010492:	d006      	beq.n	100104a2 <__libc_init_array+0x3e>
10010494:	2400      	movs	r4, #0
10010496:	f855 3b04 	ldr.w	r3, [r5], #4
1001049a:	3401      	adds	r4, #1
1001049c:	4798      	blx	r3
1001049e:	42a6      	cmp	r6, r4
100104a0:	d8f9      	bhi.n	10010496 <__libc_init_array+0x32>
100104a2:	bd70      	pop	{r4, r5, r6, pc}
100104a4:	20000bb8 	.word	0x20000bb8
100104a8:	20000bb8 	.word	0x20000bb8
100104ac:	20000bb8 	.word	0x20000bb8
100104b0:	20000bc0 	.word	0x20000bc0

100104b4 <__malloc_lock>:
100104b4:	4770      	bx	lr
100104b6:	bf00      	nop

100104b8 <__malloc_unlock>:
100104b8:	4770      	bx	lr
100104ba:	bf00      	nop

100104bc <__fp_lock>:
100104bc:	2000      	movs	r0, #0
100104be:	4770      	bx	lr

100104c0 <stdio_exit_handler>:
100104c0:	4a02      	ldr	r2, [pc, #8]	@ (100104cc <stdio_exit_handler+0xc>)
100104c2:	4903      	ldr	r1, [pc, #12]	@ (100104d0 <stdio_exit_handler+0x10>)
100104c4:	4803      	ldr	r0, [pc, #12]	@ (100104d4 <stdio_exit_handler+0x14>)
100104c6:	f000 bb55 	b.w	10010b74 <_fwalk_sglue>
100104ca:	bf00      	nop
100104cc:	20000138 	.word	0x20000138
100104d0:	10014bad 	.word	0x10014bad
100104d4:	20000018 	.word	0x20000018

100104d8 <cleanup_stdio>:
100104d8:	4b0c      	ldr	r3, [pc, #48]	@ (1001050c <cleanup_stdio+0x34>)
100104da:	6841      	ldr	r1, [r0, #4]
100104dc:	4299      	cmp	r1, r3
100104de:	b510      	push	{r4, lr}
100104e0:	4604      	mov	r4, r0
100104e2:	d001      	beq.n	100104e8 <cleanup_stdio+0x10>
100104e4:	f004 fb62 	bl	10014bac <_fclose_r>
100104e8:	68a1      	ldr	r1, [r4, #8]
100104ea:	4b09      	ldr	r3, [pc, #36]	@ (10010510 <cleanup_stdio+0x38>)
100104ec:	4299      	cmp	r1, r3
100104ee:	d002      	beq.n	100104f6 <cleanup_stdio+0x1e>
100104f0:	4620      	mov	r0, r4
100104f2:	f004 fb5b 	bl	10014bac <_fclose_r>
100104f6:	68e1      	ldr	r1, [r4, #12]
100104f8:	4b06      	ldr	r3, [pc, #24]	@ (10010514 <cleanup_stdio+0x3c>)
100104fa:	4299      	cmp	r1, r3
100104fc:	d004      	beq.n	10010508 <cleanup_stdio+0x30>
100104fe:	4620      	mov	r0, r4
10010500:	e8bd 4010 	ldmia.w	sp!, {r4, lr}
10010504:	f004 bb52 	b.w	10014bac <_fclose_r>
10010508:	bd10      	pop	{r4, pc}
1001050a:	bf00      	nop
1001050c:	20001434 	.word	0x20001434
10010510:	2000149c 	.word	0x2000149c
10010514:	20001504 	.word	0x20001504

10010518 <__fp_unlock>:
10010518:	2000      	movs	r0, #0
1001051a:	4770      	bx	lr

1001051c <global_stdio_init.part.0>:
1001051c:	e92d 43f8 	stmdb	sp!, {r3, r4, r5, r6, r7, r8, r9, lr}
10010520:	4c2a      	ldr	r4, [pc, #168]	@ (100105cc <global_stdio_init.part.0+0xb0>)
10010522:	492b      	ldr	r1, [pc, #172]	@ (100105d0 <global_stdio_init.part.0+0xb4>)
10010524:	f8df 90ac 	ldr.w	r9, [pc, #172]	@ 100105d4 <global_stdio_init.part.0+0xb8>
10010528:	f8df 80ac 	ldr.w	r8, [pc, #172]	@ 100105d8 <global_stdio_init.part.0+0xbc>
1001052c:	4f2b      	ldr	r7, [pc, #172]	@ (100105dc <global_stdio_init.part.0+0xc0>)
1001052e:	f8c4 1138 	str.w	r1, [r4, #312]	@ 0x138
10010532:	2500      	movs	r5, #0
10010534:	2304      	movs	r3, #4
10010536:	2208      	movs	r2, #8
10010538:	4629      	mov	r1, r5
1001053a:	f104 005c 	add.w	r0, r4, #92	@ 0x5c
1001053e:	4e28      	ldr	r6, [pc, #160]	@ (100105e0 <global_stdio_init.part.0+0xc4>)
10010540:	60e3      	str	r3, [r4, #12]
10010542:	e9c4 5500 	strd	r5, r5, [r4]
10010546:	e9c4 5504 	strd	r5, r5, [r4, #16]
1001054a:	60a5      	str	r5, [r4, #8]
1001054c:	6665      	str	r5, [r4, #100]	@ 0x64
1001054e:	61a5      	str	r5, [r4, #24]
10010550:	f7ff fc62 	bl	1000fe18 <memset>
10010554:	4b23      	ldr	r3, [pc, #140]	@ (100105e4 <global_stdio_init.part.0+0xc8>)
10010556:	6763      	str	r3, [r4, #116]	@ 0x74
10010558:	2208      	movs	r2, #8
1001055a:	4629      	mov	r1, r5
1001055c:	f104 00c4 	add.w	r0, r4, #196	@ 0xc4
10010560:	e9c4 4907 	strd	r4, r9, [r4, #28]
10010564:	e9c4 8709 	strd	r8, r7, [r4, #36]	@ 0x24
10010568:	e9c4 551a 	strd	r5, r5, [r4, #104]	@ 0x68
1001056c:	e9c4 551e 	strd	r5, r5, [r4, #120]	@ 0x78
10010570:	6725      	str	r5, [r4, #112]	@ 0x70
10010572:	f8c4 50cc 	str.w	r5, [r4, #204]	@ 0xcc
10010576:	f8c4 5080 	str.w	r5, [r4, #128]	@ 0x80
1001057a:	62e6      	str	r6, [r4, #44]	@ 0x2c
1001057c:	f7ff fc4c 	bl	1000fe18 <memset>
10010580:	4b19      	ldr	r3, [pc, #100]	@ (100105e8 <global_stdio_init.part.0+0xcc>)
10010582:	f8c4 30dc 	str.w	r3, [r4, #220]	@ 0xdc
10010586:	4629      	mov	r1, r5
10010588:	f104 0368 	add.w	r3, r4, #104	@ 0x68
1001058c:	2208      	movs	r2, #8
1001058e:	f504 7096 	add.w	r0, r4, #300	@ 0x12c
10010592:	f8c4 3084 	str.w	r3, [r4, #132]	@ 0x84
10010596:	e9c4 9822 	strd	r9, r8, [r4, #136]	@ 0x88
1001059a:	e9c4 7624 	strd	r7, r6, [r4, #144]	@ 0x90
1001059e:	e9c4 5534 	strd	r5, r5, [r4, #208]	@ 0xd0
100105a2:	e9c4 5538 	strd	r5, r5, [r4, #224]	@ 0xe0
100105a6:	f8c4 50d8 	str.w	r5, [r4, #216]	@ 0xd8
100105aa:	f8c4 5134 	str.w	r5, [r4, #308]	@ 0x134
100105ae:	f8c4 50e8 	str.w	r5, [r4, #232]	@ 0xe8
100105b2:	f7ff fc31 	bl	1000fe18 <memset>
100105b6:	f104 03d0 	add.w	r3, r4, #208	@ 0xd0
100105ba:	e9c4 983c 	strd	r9, r8, [r4, #240]	@ 0xf0
100105be:	e9c4 763e 	strd	r7, r6, [r4, #248]	@ 0xf8
100105c2:	f8c4 30ec 	str.w	r3, [r4, #236]	@ 0xec
100105c6:	e8bd 83f8 	ldmia.w	sp!, {r3, r4, r5, r6, r7, r8, r9, pc}
100105ca:	bf00      	nop
100105cc:	20001434 	.word	0x20001434
100105d0:	100104c1 	.word	0x100104c1
100105d4:	10014c51 	.word	0x10014c51
100105d8:	10014c79 	.word	0x10014c79
100105dc:	10014cb9 	.word	0x10014cb9
100105e0:	10014cdd 	.word	0x10014cdd
100105e4:	00010009 	.word	0x00010009
100105e8:	00020012 	.word	0x00020012

100105ec <__sfp>:
100105ec:	b5f8      	push	{r3, r4, r5, r6, r7, lr}
100105ee:	4b25      	ldr	r3, [pc, #148]	@ (10010684 <__sfp+0x98>)
100105f0:	f8d3 3138 	ldr.w	r3, [r3, #312]	@ 0x138
100105f4:	4606      	mov	r6, r0
100105f6:	2b00      	cmp	r3, #0
100105f8:	d03c      	beq.n	10010674 <__sfp+0x88>
100105fa:	4f23      	ldr	r7, [pc, #140]	@ (10010688 <__sfp+0x9c>)
100105fc:	e9d7 3401 	ldrd	r3, r4, [r7, #4]
10010600:	3b01      	subs	r3, #1
10010602:	d504      	bpl.n	1001060e <__sfp+0x22>
10010604:	e01d      	b.n	10010642 <__sfp+0x56>
10010606:	1c5a      	adds	r2, r3, #1
10010608:	f104 0468 	add.w	r4, r4, #104	@ 0x68
1001060c:	d019      	beq.n	10010642 <__sfp+0x56>
1001060e:	f9b4 500c 	ldrsh.w	r5, [r4, #12]
10010612:	3b01      	subs	r3, #1
10010614:	2d00      	cmp	r5, #0
10010616:	d1f6      	bne.n	10010606 <__sfp+0x1a>
10010618:	4b1c      	ldr	r3, [pc, #112]	@ (1001068c <__sfp+0xa0>)
1001061a:	60e3      	str	r3, [r4, #12]
1001061c:	e9c4 5501 	strd	r5, r5, [r4, #4]
10010620:	e9c4 5504 	strd	r5, r5, [r4, #16]
10010624:	6665      	str	r5, [r4, #100]	@ 0x64
10010626:	6025      	str	r5, [r4, #0]
10010628:	61a5      	str	r5, [r4, #24]
1001062a:	2208      	movs	r2, #8
1001062c:	4629      	mov	r1, r5
1001062e:	f104 005c 	add.w	r0, r4, #92	@ 0x5c
10010632:	f7ff fbf1 	bl	1000fe18 <memset>
10010636:	e9c4 550c 	strd	r5, r5, [r4, #48]	@ 0x30
1001063a:	e9c4 5511 	strd	r5, r5, [r4, #68]	@ 0x44
1001063e:	4620      	mov	r0, r4
10010640:	bdf8      	pop	{r3, r4, r5, r6, r7, pc}
10010642:	683d      	ldr	r5, [r7, #0]
10010644:	b10d      	cbz	r5, 1001064a <__sfp+0x5e>
10010646:	462f      	mov	r7, r5
10010648:	e7d8      	b.n	100105fc <__sfp+0x10>
1001064a:	f44f 71d6 	mov.w	r1, #428	@ 0x1ac
1001064e:	4630      	mov	r0, r6
10010650:	f002 ffc2 	bl	100135d8 <_malloc_r>
10010654:	4604      	mov	r4, r0
10010656:	b180      	cbz	r0, 1001067a <__sfp+0x8e>
10010658:	2304      	movs	r3, #4
1001065a:	e9c0 5300 	strd	r5, r3, [r0]
1001065e:	300c      	adds	r0, #12
10010660:	4629      	mov	r1, r5
10010662:	60a0      	str	r0, [r4, #8]
10010664:	f44f 72d0 	mov.w	r2, #416	@ 0x1a0
10010668:	4625      	mov	r5, r4
1001066a:	f7ff fbd5 	bl	1000fe18 <memset>
1001066e:	603c      	str	r4, [r7, #0]
10010670:	462f      	mov	r7, r5
10010672:	e7c3      	b.n	100105fc <__sfp+0x10>
10010674:	f7ff ff52 	bl	1001051c <global_stdio_init.part.0>
10010678:	e7bf      	b.n	100105fa <__sfp+0xe>
1001067a:	230c      	movs	r3, #12
1001067c:	6038      	str	r0, [r7, #0]
1001067e:	6033      	str	r3, [r6, #0]
10010680:	e7dd      	b.n	1001063e <__sfp+0x52>
10010682:	bf00      	nop
10010684:	20001434 	.word	0x20001434
10010688:	20000138 	.word	0x20000138
1001068c:	ffff0001 	.word	0xffff0001

10010690 <__sinit>:
10010690:	6b43      	ldr	r3, [r0, #52]	@ 0x34
10010692:	b103      	cbz	r3, 10010696 <__sinit+0x6>
10010694:	4770      	bx	lr
10010696:	4b04      	ldr	r3, [pc, #16]	@ (100106a8 <__sinit+0x18>)
10010698:	4a04      	ldr	r2, [pc, #16]	@ (100106ac <__sinit+0x1c>)
1001069a:	f8d3 3138 	ldr.w	r3, [r3, #312]	@ 0x138
1001069e:	6342      	str	r2, [r0, #52]	@ 0x34
100106a0:	2b00      	cmp	r3, #0
100106a2:	d1f7      	bne.n	10010694 <__sinit+0x4>
100106a4:	e73a      	b.n	1001051c <global_stdio_init.part.0>
100106a6:	bf00      	nop
100106a8:	20001434 	.word	0x20001434
100106ac:	100104d9 	.word	0x100104d9

100106b0 <__sfp_lock_acquire>:
100106b0:	4770      	bx	lr
100106b2:	bf00      	nop

100106b4 <__sfp_lock_release>:
100106b4:	4770      	bx	lr
100106b6:	bf00      	nop

100106b8 <__fp_lock_all>:
100106b8:	4a02      	ldr	r2, [pc, #8]	@ (100106c4 <__fp_lock_all+0xc>)
100106ba:	4903      	ldr	r1, [pc, #12]	@ (100106c8 <__fp_lock_all+0x10>)
100106bc:	2000      	movs	r0, #0
100106be:	f000 ba59 	b.w	10010b74 <_fwalk_sglue>
100106c2:	bf00      	nop
100106c4:	20000138 	.word	0x20000138
100106c8:	100104bd 	.word	0x100104bd

100106cc <__fp_unlock_all>:
100106cc:	4a02      	ldr	r2, [pc, #8]	@ (100106d8 <__fp_unlock_all+0xc>)
100106ce:	4903      	ldr	r1, [pc, #12]	@ (100106dc <__fp_unlock_all+0x10>)
100106d0:	2000      	movs	r0, #0
100106d2:	f000 ba4f 	b.w	10010b74 <_fwalk_sglue>
100106d6:	bf00      	nop
100106d8:	20000138 	.word	0x20000138
100106dc:	10010519 	.word	0x10010519

100106e0 <_puts_r>:
100106e0:	b570      	push	{r4, r5, r6, lr}
100106e2:	4604      	mov	r4, r0
100106e4:	b08a      	sub	sp, #40	@ 0x28
100106e6:	4608      	mov	r0, r1
100106e8:	460d      	mov	r5, r1
100106ea:	f7ff fb29 	bl	1000fd40 <strlen>
100106ee:	4e16      	ldr	r6, [pc, #88]	@ (10010748 <_puts_r+0x68>)
100106f0:	6b62      	ldr	r2, [r4, #52]	@ 0x34
100106f2:	9007      	str	r0, [sp, #28]
100106f4:	2101      	movs	r1, #1
100106f6:	1843      	adds	r3, r0, r1
100106f8:	e9cd 6108 	strd	r6, r1, [sp, #32]
100106fc:	2002      	movs	r0, #2
100106fe:	a906      	add	r1, sp, #24
10010700:	9103      	str	r1, [sp, #12]
10010702:	9506      	str	r5, [sp, #24]
10010704:	68a1      	ldr	r1, [r4, #8]
10010706:	9305      	str	r3, [sp, #20]
10010708:	9004      	str	r0, [sp, #16]
1001070a:	b1a2      	cbz	r2, 10010736 <_puts_r+0x56>
1001070c:	f9b1 200c 	ldrsh.w	r2, [r1, #12]
10010710:	6e4b      	ldr	r3, [r1, #100]	@ 0x64
10010712:	0490      	lsls	r0, r2, #18
10010714:	d405      	bmi.n	10010722 <_puts_r+0x42>
10010716:	f442 5200 	orr.w	r2, r2, #8192	@ 0x2000
1001071a:	f423 5300 	bic.w	r3, r3, #8192	@ 0x2000
1001071e:	818a      	strh	r2, [r1, #12]
10010720:	664b      	str	r3, [r1, #100]	@ 0x64
10010722:	049b      	lsls	r3, r3, #18
10010724:	d40d      	bmi.n	10010742 <_puts_r+0x62>
10010726:	aa03      	add	r2, sp, #12
10010728:	4620      	mov	r0, r4
1001072a:	f000 f817 	bl	1001075c <__sfvwrite_r>
1001072e:	b940      	cbnz	r0, 10010742 <_puts_r+0x62>
10010730:	200a      	movs	r0, #10
10010732:	b00a      	add	sp, #40	@ 0x28
10010734:	bd70      	pop	{r4, r5, r6, pc}
10010736:	4620      	mov	r0, r4
10010738:	9101      	str	r1, [sp, #4]
1001073a:	f7ff ffa9 	bl	10010690 <__sinit>
1001073e:	9901      	ldr	r1, [sp, #4]
10010740:	e7e4      	b.n	1001070c <_puts_r+0x2c>
10010742:	f04f 30ff 	mov.w	r0, #4294967295	@ 0xffffffff
10010746:	e7f4      	b.n	10010732 <_puts_r+0x52>
10010748:	10017b18 	.word	0x10017b18

1001074c <puts>:
1001074c:	4b02      	ldr	r3, [pc, #8]	@ (10010758 <puts+0xc>)
1001074e:	4601      	mov	r1, r0
10010750:	6818      	ldr	r0, [r3, #0]
10010752:	f7ff bfc5 	b.w	100106e0 <_puts_r>
10010756:	bf00      	nop
10010758:	20000010 	.word	0x20000010

1001075c <__sfvwrite_r>:
1001075c:	6893      	ldr	r3, [r2, #8]
1001075e:	2b00      	cmp	r3, #0
10010760:	f000 80f6 	beq.w	10010950 <__sfvwrite_r+0x1f4>
10010764:	e92d 4ff0 	stmdb	sp!, {r4, r5, r6, r7, r8, r9, sl, fp, lr}
10010768:	f9b1 c00c 	ldrsh.w	ip, [r1, #12]
1001076c:	f01c 0f08 	tst.w	ip, #8
10010770:	b083      	sub	sp, #12
10010772:	4690      	mov	r8, r2
10010774:	4681      	mov	r9, r0
10010776:	460c      	mov	r4, r1
10010778:	d031      	beq.n	100107de <__sfvwrite_r+0x82>
1001077a:	690b      	ldr	r3, [r1, #16]
1001077c:	b37b      	cbz	r3, 100107de <__sfvwrite_r+0x82>
1001077e:	f01c 0702 	ands.w	r7, ip, #2
10010782:	f8d8 6000 	ldr.w	r6, [r8]
10010786:	d038      	beq.n	100107fa <__sfvwrite_r+0x9e>
10010788:	2700      	movs	r7, #0
1001078a:	f8d4 b024 	ldr.w	fp, [r4, #36]	@ 0x24
1001078e:	69e1      	ldr	r1, [r4, #28]
10010790:	f8df a2bc 	ldr.w	sl, [pc, #700]	@ 10010a50 <__sfvwrite_r+0x2f4>
10010794:	463d      	mov	r5, r7
10010796:	4555      	cmp	r5, sl
10010798:	462b      	mov	r3, r5
1001079a:	463a      	mov	r2, r7
1001079c:	bf28      	it	cs
1001079e:	4653      	movcs	r3, sl
100107a0:	4648      	mov	r0, r9
100107a2:	b1c5      	cbz	r5, 100107d6 <__sfvwrite_r+0x7a>
100107a4:	47d8      	blx	fp
100107a6:	2800      	cmp	r0, #0
100107a8:	f340 80c8 	ble.w	1001093c <__sfvwrite_r+0x1e0>
100107ac:	f8d8 3008 	ldr.w	r3, [r8, #8]
100107b0:	1a1b      	subs	r3, r3, r0
100107b2:	4407      	add	r7, r0
100107b4:	1a2d      	subs	r5, r5, r0
100107b6:	f8c8 3008 	str.w	r3, [r8, #8]
100107ba:	2b00      	cmp	r3, #0
100107bc:	f000 80b4 	beq.w	10010928 <__sfvwrite_r+0x1cc>
100107c0:	4555      	cmp	r5, sl
100107c2:	462b      	mov	r3, r5
100107c4:	f8d4 b024 	ldr.w	fp, [r4, #36]	@ 0x24
100107c8:	69e1      	ldr	r1, [r4, #28]
100107ca:	bf28      	it	cs
100107cc:	4653      	movcs	r3, sl
100107ce:	463a      	mov	r2, r7
100107d0:	4648      	mov	r0, r9
100107d2:	2d00      	cmp	r5, #0
100107d4:	d1e6      	bne.n	100107a4 <__sfvwrite_r+0x48>
100107d6:	e9d6 7500 	ldrd	r7, r5, [r6]
100107da:	3608      	adds	r6, #8
100107dc:	e7db      	b.n	10010796 <__sfvwrite_r+0x3a>
100107de:	4621      	mov	r1, r4
100107e0:	4648      	mov	r0, r9
100107e2:	f004 f981 	bl	10014ae8 <__swsetup_r>
100107e6:	2800      	cmp	r0, #0
100107e8:	f040 80ad 	bne.w	10010946 <__sfvwrite_r+0x1ea>
100107ec:	f9b4 c00c 	ldrsh.w	ip, [r4, #12]
100107f0:	f8d8 6000 	ldr.w	r6, [r8]
100107f4:	f01c 0702 	ands.w	r7, ip, #2
100107f8:	d1c6      	bne.n	10010788 <__sfvwrite_r+0x2c>
100107fa:	f01c 0a01 	ands.w	sl, ip, #1
100107fe:	d163      	bne.n	100108c8 <__sfvwrite_r+0x16c>
10010800:	6823      	ldr	r3, [r4, #0]
10010802:	68a1      	ldr	r1, [r4, #8]
10010804:	4657      	mov	r7, sl
10010806:	4618      	mov	r0, r3
10010808:	468b      	mov	fp, r1
1001080a:	2f00      	cmp	r7, #0
1001080c:	d058      	beq.n	100108c0 <__sfvwrite_r+0x164>
1001080e:	f41c 7f00 	tst.w	ip, #512	@ 0x200
10010812:	f000 80b1 	beq.w	10010978 <__sfvwrite_r+0x21c>
10010816:	42b9      	cmp	r1, r7
10010818:	460a      	mov	r2, r1
1001081a:	f200 80dd 	bhi.w	100109d8 <__sfvwrite_r+0x27c>
1001081e:	f41c 6f90 	tst.w	ip, #1152	@ 0x480
10010822:	d02f      	beq.n	10010884 <__sfvwrite_r+0x128>
10010824:	6921      	ldr	r1, [r4, #16]
10010826:	6962      	ldr	r2, [r4, #20]
10010828:	1a5d      	subs	r5, r3, r1
1001082a:	eb02 0242 	add.w	r2, r2, r2, lsl #1
1001082e:	eb02 72d2 	add.w	r2, r2, r2, lsr #31
10010832:	1c6b      	adds	r3, r5, #1
10010834:	1052      	asrs	r2, r2, #1
10010836:	443b      	add	r3, r7
10010838:	4293      	cmp	r3, r2
1001083a:	bf92      	itee	ls
1001083c:	4693      	movls	fp, r2
1001083e:	469b      	movhi	fp, r3
10010840:	461a      	movhi	r2, r3
10010842:	f41c 6f80 	tst.w	ip, #1024	@ 0x400
10010846:	f000 80e6 	beq.w	10010a16 <__sfvwrite_r+0x2ba>
1001084a:	4611      	mov	r1, r2
1001084c:	4648      	mov	r0, r9
1001084e:	f002 fec3 	bl	100135d8 <_malloc_r>
10010852:	2800      	cmp	r0, #0
10010854:	f000 80f5 	beq.w	10010a42 <__sfvwrite_r+0x2e6>
10010858:	462a      	mov	r2, r5
1001085a:	6921      	ldr	r1, [r4, #16]
1001085c:	9001      	str	r0, [sp, #4]
1001085e:	f7ff fd59 	bl	10010314 <memcpy>
10010862:	89a2      	ldrh	r2, [r4, #12]
10010864:	9b01      	ldr	r3, [sp, #4]
10010866:	f422 6290 	bic.w	r2, r2, #1152	@ 0x480
1001086a:	f042 0280 	orr.w	r2, r2, #128	@ 0x80
1001086e:	81a2      	strh	r2, [r4, #12]
10010870:	1958      	adds	r0, r3, r5
10010872:	ebab 0505 	sub.w	r5, fp, r5
10010876:	f8c4 b014 	str.w	fp, [r4, #20]
1001087a:	6123      	str	r3, [r4, #16]
1001087c:	60a5      	str	r5, [r4, #8]
1001087e:	6020      	str	r0, [r4, #0]
10010880:	46bb      	mov	fp, r7
10010882:	463a      	mov	r2, r7
10010884:	4651      	mov	r1, sl
10010886:	9201      	str	r2, [sp, #4]
10010888:	f002 fe26 	bl	100134d8 <memmove>
1001088c:	68a1      	ldr	r1, [r4, #8]
1001088e:	6823      	ldr	r3, [r4, #0]
10010890:	9a01      	ldr	r2, [sp, #4]
10010892:	eba1 010b 	sub.w	r1, r1, fp
10010896:	441a      	add	r2, r3
10010898:	463d      	mov	r5, r7
1001089a:	60a1      	str	r1, [r4, #8]
1001089c:	6022      	str	r2, [r4, #0]
1001089e:	2700      	movs	r7, #0
100108a0:	f8d8 3008 	ldr.w	r3, [r8, #8]
100108a4:	1b5b      	subs	r3, r3, r5
100108a6:	44aa      	add	sl, r5
100108a8:	f8c8 3008 	str.w	r3, [r8, #8]
100108ac:	2b00      	cmp	r3, #0
100108ae:	d03b      	beq.n	10010928 <__sfvwrite_r+0x1cc>
100108b0:	6823      	ldr	r3, [r4, #0]
100108b2:	68a1      	ldr	r1, [r4, #8]
100108b4:	f9b4 c00c 	ldrsh.w	ip, [r4, #12]
100108b8:	4618      	mov	r0, r3
100108ba:	468b      	mov	fp, r1
100108bc:	2f00      	cmp	r7, #0
100108be:	d1a6      	bne.n	1001080e <__sfvwrite_r+0xb2>
100108c0:	e9d6 a700 	ldrd	sl, r7, [r6]
100108c4:	3608      	adds	r6, #8
100108c6:	e79e      	b.n	10010806 <__sfvwrite_r+0xaa>
100108c8:	4638      	mov	r0, r7
100108ca:	46bb      	mov	fp, r7
100108cc:	463d      	mov	r5, r7
100108ce:	2d00      	cmp	r5, #0
100108d0:	d040      	beq.n	10010954 <__sfvwrite_r+0x1f8>
100108d2:	2800      	cmp	r0, #0
100108d4:	d045      	beq.n	10010962 <__sfvwrite_r+0x206>
100108d6:	463a      	mov	r2, r7
100108d8:	e9d4 c304 	ldrd	ip, r3, [r4, #16]
100108dc:	6820      	ldr	r0, [r4, #0]
100108de:	68a1      	ldr	r1, [r4, #8]
100108e0:	42aa      	cmp	r2, r5
100108e2:	bf28      	it	cs
100108e4:	462a      	movcs	r2, r5
100108e6:	4560      	cmp	r0, ip
100108e8:	d904      	bls.n	100108f4 <__sfvwrite_r+0x198>
100108ea:	eb01 0a03 	add.w	sl, r1, r3
100108ee:	4552      	cmp	r2, sl
100108f0:	f300 8082 	bgt.w	100109f8 <__sfvwrite_r+0x29c>
100108f4:	4293      	cmp	r3, r2
100108f6:	dc72      	bgt.n	100109de <__sfvwrite_r+0x282>
100108f8:	69e1      	ldr	r1, [r4, #28]
100108fa:	f8d4 c024 	ldr.w	ip, [r4, #36]	@ 0x24
100108fe:	465a      	mov	r2, fp
10010900:	4648      	mov	r0, r9
10010902:	47e0      	blx	ip
10010904:	f1b0 0a00 	subs.w	sl, r0, #0
10010908:	dd18      	ble.n	1001093c <__sfvwrite_r+0x1e0>
1001090a:	ebb7 070a 	subs.w	r7, r7, sl
1001090e:	d00f      	beq.n	10010930 <__sfvwrite_r+0x1d4>
10010910:	2001      	movs	r0, #1
10010912:	f8d8 3008 	ldr.w	r3, [r8, #8]
10010916:	eba3 030a 	sub.w	r3, r3, sl
1001091a:	44d3      	add	fp, sl
1001091c:	eba5 050a 	sub.w	r5, r5, sl
10010920:	f8c8 3008 	str.w	r3, [r8, #8]
10010924:	2b00      	cmp	r3, #0
10010926:	d1d2      	bne.n	100108ce <__sfvwrite_r+0x172>
10010928:	2000      	movs	r0, #0
1001092a:	b003      	add	sp, #12
1001092c:	e8bd 8ff0 	ldmia.w	sp!, {r4, r5, r6, r7, r8, r9, sl, fp, pc}
10010930:	4621      	mov	r1, r4
10010932:	4648      	mov	r0, r9
10010934:	f7ff fb56 	bl	1000ffe4 <_fflush_r>
10010938:	2800      	cmp	r0, #0
1001093a:	d0ea      	beq.n	10010912 <__sfvwrite_r+0x1b6>
1001093c:	f9b4 300c 	ldrsh.w	r3, [r4, #12]
10010940:	f043 0340 	orr.w	r3, r3, #64	@ 0x40
10010944:	81a3      	strh	r3, [r4, #12]
10010946:	f04f 30ff 	mov.w	r0, #4294967295	@ 0xffffffff
1001094a:	b003      	add	sp, #12
1001094c:	e8bd 8ff0 	ldmia.w	sp!, {r4, r5, r6, r7, r8, r9, sl, fp, pc}
10010950:	2000      	movs	r0, #0
10010952:	4770      	bx	lr
10010954:	6875      	ldr	r5, [r6, #4]
10010956:	4633      	mov	r3, r6
10010958:	3608      	adds	r6, #8
1001095a:	2d00      	cmp	r5, #0
1001095c:	d0fa      	beq.n	10010954 <__sfvwrite_r+0x1f8>
1001095e:	f8d3 b000 	ldr.w	fp, [r3]
10010962:	462a      	mov	r2, r5
10010964:	210a      	movs	r1, #10
10010966:	4658      	mov	r0, fp
10010968:	f001 fb82 	bl	10012070 <memchr>
1001096c:	2800      	cmp	r0, #0
1001096e:	d065      	beq.n	10010a3c <__sfvwrite_r+0x2e0>
10010970:	3001      	adds	r0, #1
10010972:	eba0 070b 	sub.w	r7, r0, fp
10010976:	e7ae      	b.n	100108d6 <__sfvwrite_r+0x17a>
10010978:	6922      	ldr	r2, [r4, #16]
1001097a:	429a      	cmp	r2, r3
1001097c:	d314      	bcc.n	100109a8 <__sfvwrite_r+0x24c>
1001097e:	6962      	ldr	r2, [r4, #20]
10010980:	42ba      	cmp	r2, r7
10010982:	d811      	bhi.n	100109a8 <__sfvwrite_r+0x24c>
10010984:	f06f 4300 	mvn.w	r3, #2147483648	@ 0x80000000
10010988:	42bb      	cmp	r3, r7
1001098a:	bf28      	it	cs
1001098c:	463b      	movcs	r3, r7
1001098e:	6a65      	ldr	r5, [r4, #36]	@ 0x24
10010990:	fb93 f3f2 	sdiv	r3, r3, r2
10010994:	69e1      	ldr	r1, [r4, #28]
10010996:	fb02 f303 	mul.w	r3, r2, r3
1001099a:	4648      	mov	r0, r9
1001099c:	4652      	mov	r2, sl
1001099e:	47a8      	blx	r5
100109a0:	1e05      	subs	r5, r0, #0
100109a2:	ddcb      	ble.n	1001093c <__sfvwrite_r+0x1e0>
100109a4:	1b7f      	subs	r7, r7, r5
100109a6:	e77b      	b.n	100108a0 <__sfvwrite_r+0x144>
100109a8:	42b9      	cmp	r1, r7
100109aa:	bf28      	it	cs
100109ac:	4639      	movcs	r1, r7
100109ae:	460d      	mov	r5, r1
100109b0:	4618      	mov	r0, r3
100109b2:	460a      	mov	r2, r1
100109b4:	4651      	mov	r1, sl
100109b6:	f002 fd8f 	bl	100134d8 <memmove>
100109ba:	68a1      	ldr	r1, [r4, #8]
100109bc:	6823      	ldr	r3, [r4, #0]
100109be:	1b49      	subs	r1, r1, r5
100109c0:	442b      	add	r3, r5
100109c2:	60a1      	str	r1, [r4, #8]
100109c4:	6023      	str	r3, [r4, #0]
100109c6:	2900      	cmp	r1, #0
100109c8:	d1ec      	bne.n	100109a4 <__sfvwrite_r+0x248>
100109ca:	4621      	mov	r1, r4
100109cc:	4648      	mov	r0, r9
100109ce:	f7ff fb09 	bl	1000ffe4 <_fflush_r>
100109d2:	2800      	cmp	r0, #0
100109d4:	d0e6      	beq.n	100109a4 <__sfvwrite_r+0x248>
100109d6:	e7b1      	b.n	1001093c <__sfvwrite_r+0x1e0>
100109d8:	46bb      	mov	fp, r7
100109da:	463a      	mov	r2, r7
100109dc:	e752      	b.n	10010884 <__sfvwrite_r+0x128>
100109de:	4659      	mov	r1, fp
100109e0:	9201      	str	r2, [sp, #4]
100109e2:	f002 fd79 	bl	100134d8 <memmove>
100109e6:	9a01      	ldr	r2, [sp, #4]
100109e8:	68a3      	ldr	r3, [r4, #8]
100109ea:	1a9b      	subs	r3, r3, r2
100109ec:	60a3      	str	r3, [r4, #8]
100109ee:	6823      	ldr	r3, [r4, #0]
100109f0:	4413      	add	r3, r2
100109f2:	6023      	str	r3, [r4, #0]
100109f4:	4692      	mov	sl, r2
100109f6:	e788      	b.n	1001090a <__sfvwrite_r+0x1ae>
100109f8:	4659      	mov	r1, fp
100109fa:	4652      	mov	r2, sl
100109fc:	f002 fd6c 	bl	100134d8 <memmove>
10010a00:	6823      	ldr	r3, [r4, #0]
10010a02:	4453      	add	r3, sl
10010a04:	6023      	str	r3, [r4, #0]
10010a06:	4621      	mov	r1, r4
10010a08:	4648      	mov	r0, r9
10010a0a:	f7ff faeb 	bl	1000ffe4 <_fflush_r>
10010a0e:	2800      	cmp	r0, #0
10010a10:	f43f af7b 	beq.w	1001090a <__sfvwrite_r+0x1ae>
10010a14:	e792      	b.n	1001093c <__sfvwrite_r+0x1e0>
10010a16:	4648      	mov	r0, r9
10010a18:	f004 f996 	bl	10014d48 <_realloc_r>
10010a1c:	4603      	mov	r3, r0
10010a1e:	2800      	cmp	r0, #0
10010a20:	f47f af26 	bne.w	10010870 <__sfvwrite_r+0x114>
10010a24:	6921      	ldr	r1, [r4, #16]
10010a26:	4648      	mov	r0, r9
10010a28:	f7ff fb78 	bl	1001011c <_free_r>
10010a2c:	f9b4 300c 	ldrsh.w	r3, [r4, #12]
10010a30:	220c      	movs	r2, #12
10010a32:	f8c9 2000 	str.w	r2, [r9]
10010a36:	f023 0380 	bic.w	r3, r3, #128	@ 0x80
10010a3a:	e781      	b.n	10010940 <__sfvwrite_r+0x1e4>
10010a3c:	1c6a      	adds	r2, r5, #1
10010a3e:	4617      	mov	r7, r2
10010a40:	e74a      	b.n	100108d8 <__sfvwrite_r+0x17c>
10010a42:	220c      	movs	r2, #12
10010a44:	f9b4 300c 	ldrsh.w	r3, [r4, #12]
10010a48:	f8c9 2000 	str.w	r2, [r9]
10010a4c:	e778      	b.n	10010940 <__sfvwrite_r+0x1e4>
10010a4e:	bf00      	nop
10010a50:	7ffffc00 	.word	0x7ffffc00

10010a54 <atexit>:
10010a54:	2300      	movs	r3, #0
10010a56:	4601      	mov	r1, r0
10010a58:	461a      	mov	r2, r3
10010a5a:	4618      	mov	r0, r3
10010a5c:	f004 b942 	b.w	10014ce4 <__register_exitproc>

10010a60 <_sprintf_r>:
10010a60:	b40c      	push	{r2, r3}
10010a62:	b510      	push	{r4, lr}
10010a64:	b09c      	sub	sp, #112	@ 0x70
10010a66:	ab1e      	add	r3, sp, #120	@ 0x78
10010a68:	9102      	str	r1, [sp, #8]
10010a6a:	9106      	str	r1, [sp, #24]
10010a6c:	f06f 4100 	mvn.w	r1, #2147483648	@ 0x80000000
10010a70:	9104      	str	r1, [sp, #16]
10010a72:	9107      	str	r1, [sp, #28]
10010a74:	4908      	ldr	r1, [pc, #32]	@ (10010a98 <_sprintf_r+0x38>)
10010a76:	f853 2b04 	ldr.w	r2, [r3], #4
10010a7a:	9105      	str	r1, [sp, #20]
10010a7c:	2400      	movs	r4, #0
10010a7e:	a902      	add	r1, sp, #8
10010a80:	9301      	str	r3, [sp, #4]
10010a82:	941b      	str	r4, [sp, #108]	@ 0x6c
10010a84:	f001 fb44 	bl	10012110 <_svfprintf_r>
10010a88:	9b02      	ldr	r3, [sp, #8]
10010a8a:	701c      	strb	r4, [r3, #0]
10010a8c:	b01c      	add	sp, #112	@ 0x70
10010a8e:	e8bd 4010 	ldmia.w	sp!, {r4, lr}
10010a92:	b002      	add	sp, #8
10010a94:	4770      	bx	lr
10010a96:	bf00      	nop
10010a98:	ffff0208 	.word	0xffff0208

10010a9c <sprintf>:
10010a9c:	b40e      	push	{r1, r2, r3}
10010a9e:	b530      	push	{r4, r5, lr}
10010aa0:	b09c      	sub	sp, #112	@ 0x70
10010aa2:	f06f 4100 	mvn.w	r1, #2147483648	@ 0x80000000
10010aa6:	ab1f      	add	r3, sp, #124	@ 0x7c
10010aa8:	9104      	str	r1, [sp, #16]
10010aaa:	9107      	str	r1, [sp, #28]
10010aac:	490a      	ldr	r1, [pc, #40]	@ (10010ad8 <sprintf+0x3c>)
10010aae:	f853 2b04 	ldr.w	r2, [r3], #4
10010ab2:	9002      	str	r0, [sp, #8]
10010ab4:	2400      	movs	r4, #0
10010ab6:	9006      	str	r0, [sp, #24]
10010ab8:	4d08      	ldr	r5, [pc, #32]	@ (10010adc <sprintf+0x40>)
10010aba:	6808      	ldr	r0, [r1, #0]
10010abc:	9301      	str	r3, [sp, #4]
10010abe:	a902      	add	r1, sp, #8
10010ac0:	9505      	str	r5, [sp, #20]
10010ac2:	941b      	str	r4, [sp, #108]	@ 0x6c
10010ac4:	f001 fb24 	bl	10012110 <_svfprintf_r>
10010ac8:	9b02      	ldr	r3, [sp, #8]
10010aca:	701c      	strb	r4, [r3, #0]
10010acc:	b01c      	add	sp, #112	@ 0x70
10010ace:	e8bd 4030 	ldmia.w	sp!, {r4, r5, lr}
10010ad2:	b003      	add	sp, #12
10010ad4:	4770      	bx	lr
10010ad6:	bf00      	nop
10010ad8:	20000010 	.word	0x20000010
10010adc:	ffff0208 	.word	0xffff0208

10010ae0 <_printf_r>:
10010ae0:	b40e      	push	{r1, r2, r3}
10010ae2:	b500      	push	{lr}
10010ae4:	b082      	sub	sp, #8
10010ae6:	ab03      	add	r3, sp, #12
10010ae8:	6881      	ldr	r1, [r0, #8]
10010aea:	f853 2b04 	ldr.w	r2, [r3], #4
10010aee:	9301      	str	r3, [sp, #4]
10010af0:	f000 f862 	bl	10010bb8 <_vfprintf_r>
10010af4:	b002      	add	sp, #8
10010af6:	f85d eb04 	ldr.w	lr, [sp], #4
10010afa:	b003      	add	sp, #12
10010afc:	4770      	bx	lr
10010afe:	bf00      	nop

10010b00 <printf>:
10010b00:	b40f      	push	{r0, r1, r2, r3}
10010b02:	b500      	push	{lr}
10010b04:	4907      	ldr	r1, [pc, #28]	@ (10010b24 <printf+0x24>)
10010b06:	b083      	sub	sp, #12
10010b08:	ab04      	add	r3, sp, #16
10010b0a:	6808      	ldr	r0, [r1, #0]
10010b0c:	f853 2b04 	ldr.w	r2, [r3], #4
10010b10:	6881      	ldr	r1, [r0, #8]
10010b12:	9301      	str	r3, [sp, #4]
10010b14:	f000 f850 	bl	10010bb8 <_vfprintf_r>
10010b18:	b003      	add	sp, #12
10010b1a:	f85d eb04 	ldr.w	lr, [sp], #4
10010b1e:	b004      	add	sp, #16
10010b20:	4770      	bx	lr
10010b22:	bf00      	nop
10010b24:	20000010 	.word	0x20000010

10010b28 <_sbrk_r>:
10010b28:	b538      	push	{r3, r4, r5, lr}
10010b2a:	4d07      	ldr	r5, [pc, #28]	@ (10010b48 <_sbrk_r+0x20>)
10010b2c:	2200      	movs	r2, #0
10010b2e:	4604      	mov	r4, r0
10010b30:	4608      	mov	r0, r1
10010b32:	602a      	str	r2, [r5, #0]
10010b34:	f7fe f91e 	bl	1000ed74 <_sbrk>
10010b38:	1c43      	adds	r3, r0, #1
10010b3a:	d000      	beq.n	10010b3e <_sbrk_r+0x16>
10010b3c:	bd38      	pop	{r3, r4, r5, pc}
10010b3e:	682b      	ldr	r3, [r5, #0]
10010b40:	2b00      	cmp	r3, #0
10010b42:	d0fb      	beq.n	10010b3c <_sbrk_r+0x14>
10010b44:	6023      	str	r3, [r4, #0]
10010b46:	bd38      	pop	{r3, r4, r5, pc}
10010b48:	200015a8 	.word	0x200015a8

10010b4c <__libc_fini_array>:
10010b4c:	b538      	push	{r3, r4, r5, lr}
10010b4e:	4d07      	ldr	r5, [pc, #28]	@ (10010b6c <__libc_fini_array+0x20>)
10010b50:	4c07      	ldr	r4, [pc, #28]	@ (10010b70 <__libc_fini_array+0x24>)
10010b52:	1b2c      	subs	r4, r5, r4
10010b54:	10a4      	asrs	r4, r4, #2
10010b56:	d005      	beq.n	10010b64 <__libc_fini_array+0x18>
10010b58:	3c01      	subs	r4, #1
10010b5a:	f855 3d04 	ldr.w	r3, [r5, #-4]!
10010b5e:	4798      	blx	r3
10010b60:	2c00      	cmp	r4, #0
10010b62:	d1f9      	bne.n	10010b58 <__libc_fini_array+0xc>
10010b64:	e8bd 4038 	ldmia.w	sp!, {r3, r4, r5, lr}
10010b68:	f007 bac6 	b.w	100180f8 <_fini>
10010b6c:	20000bc4 	.word	0x20000bc4
10010b70:	20000bc0 	.word	0x20000bc0

10010b74 <_fwalk_sglue>:
10010b74:	e92d 43f8 	stmdb	sp!, {r3, r4, r5, r6, r7, r8, r9, lr}
10010b78:	4607      	mov	r7, r0
10010b7a:	4688      	mov	r8, r1
10010b7c:	4616      	mov	r6, r2
10010b7e:	f04f 0900 	mov.w	r9, #0
10010b82:	e9d6 5401 	ldrd	r5, r4, [r6, #4]
10010b86:	3d01      	subs	r5, #1
10010b88:	d410      	bmi.n	10010bac <_fwalk_sglue+0x38>
10010b8a:	89a3      	ldrh	r3, [r4, #12]
10010b8c:	2b01      	cmp	r3, #1
10010b8e:	d908      	bls.n	10010ba2 <_fwalk_sglue+0x2e>
10010b90:	f9b4 300e 	ldrsh.w	r3, [r4, #14]
10010b94:	3301      	adds	r3, #1
10010b96:	4621      	mov	r1, r4
10010b98:	4638      	mov	r0, r7
10010b9a:	d002      	beq.n	10010ba2 <_fwalk_sglue+0x2e>
10010b9c:	47c0      	blx	r8
10010b9e:	ea49 0900 	orr.w	r9, r9, r0
10010ba2:	3d01      	subs	r5, #1
10010ba4:	1c6b      	adds	r3, r5, #1
10010ba6:	f104 0468 	add.w	r4, r4, #104	@ 0x68
10010baa:	d1ee      	bne.n	10010b8a <_fwalk_sglue+0x16>
10010bac:	6836      	ldr	r6, [r6, #0]
10010bae:	2e00      	cmp	r6, #0
10010bb0:	d1e7      	bne.n	10010b82 <_fwalk_sglue+0xe>
10010bb2:	4648      	mov	r0, r9
10010bb4:	e8bd 83f8 	ldmia.w	sp!, {r3, r4, r5, r6, r7, r8, r9, pc}

10010bb8 <_vfprintf_r>:
10010bb8:	e92d 4ff0 	stmdb	sp!, {r4, r5, r6, r7, r8, r9, sl, fp, lr}
10010bbc:	b0c3      	sub	sp, #268	@ 0x10c
10010bbe:	461c      	mov	r4, r3
10010bc0:	9108      	str	r1, [sp, #32]
10010bc2:	4691      	mov	r9, r2
10010bc4:	930d      	str	r3, [sp, #52]	@ 0x34
10010bc6:	4605      	mov	r5, r0
10010bc8:	900c      	str	r0, [sp, #48]	@ 0x30
10010bca:	f005 f831 	bl	10015c30 <_localeconv_r>
10010bce:	6802      	ldr	r2, [r0, #0]
10010bd0:	9214      	str	r2, [sp, #80]	@ 0x50
10010bd2:	4610      	mov	r0, r2
10010bd4:	f7ff f8b4 	bl	1000fd40 <strlen>
10010bd8:	9013      	str	r0, [sp, #76]	@ 0x4c
10010bda:	b11d      	cbz	r5, 10010be4 <_vfprintf_r+0x2c>
10010bdc:	6b6b      	ldr	r3, [r5, #52]	@ 0x34
10010bde:	2b00      	cmp	r3, #0
10010be0:	f001 801b 	beq.w	10011c1a <_vfprintf_r+0x1062>
10010be4:	9908      	ldr	r1, [sp, #32]
10010be6:	f9b1 200c 	ldrsh.w	r2, [r1, #12]
10010bea:	6e4b      	ldr	r3, [r1, #100]	@ 0x64
10010bec:	0490      	lsls	r0, r2, #18
10010bee:	d405      	bmi.n	10010bfc <_vfprintf_r+0x44>
10010bf0:	f442 5200 	orr.w	r2, r2, #8192	@ 0x2000
10010bf4:	f423 5300 	bic.w	r3, r3, #8192	@ 0x2000
10010bf8:	818a      	strh	r2, [r1, #12]
10010bfa:	664b      	str	r3, [r1, #100]	@ 0x64
10010bfc:	049f      	lsls	r7, r3, #18
10010bfe:	f101 8143 	bmi.w	10011e88 <_vfprintf_r+0x12d0>
10010c02:	9a08      	ldr	r2, [sp, #32]
10010c04:	f9b2 300c 	ldrsh.w	r3, [r2, #12]
10010c08:	071e      	lsls	r6, r3, #28
10010c0a:	f140 80dd 	bpl.w	10010dc8 <_vfprintf_r+0x210>
10010c0e:	6912      	ldr	r2, [r2, #16]
10010c10:	2a00      	cmp	r2, #0
10010c12:	f000 80d9 	beq.w	10010dc8 <_vfprintf_r+0x210>
10010c16:	f003 031a 	and.w	r3, r3, #26
10010c1a:	2b0a      	cmp	r3, #10
10010c1c:	f000 80e3 	beq.w	10010de6 <_vfprintf_r+0x22e>
10010c20:	2300      	movs	r3, #0
10010c22:	e9cd 3326 	strd	r3, r3, [sp, #152]	@ 0x98
10010c26:	e9cd 3315 	strd	r3, r3, [sp, #84]	@ 0x54
10010c2a:	9312      	str	r3, [sp, #72]	@ 0x48
10010c2c:	930a      	str	r3, [sp, #40]	@ 0x28
10010c2e:	2400      	movs	r4, #0
10010c30:	2300      	movs	r3, #0
10010c32:	e9cd 3410 	strd	r3, r4, [sp, #64]	@ 0x40
10010c36:	aa32      	add	r2, sp, #200	@ 0xc8
10010c38:	9225      	str	r2, [sp, #148]	@ 0x94
10010c3a:	4692      	mov	sl, r2
10010c3c:	46cb      	mov	fp, r9
10010c3e:	f89b 3000 	ldrb.w	r3, [fp]
10010c42:	2b00      	cmp	r3, #0
10010c44:	f000 815f 	beq.w	10010f06 <_vfprintf_r+0x34e>
10010c48:	465c      	mov	r4, fp
10010c4a:	e004      	b.n	10010c56 <_vfprintf_r+0x9e>
10010c4c:	f814 3f01 	ldrb.w	r3, [r4, #1]!
10010c50:	2b00      	cmp	r3, #0
10010c52:	f000 813c 	beq.w	10010ece <_vfprintf_r+0x316>
10010c56:	2b25      	cmp	r3, #37	@ 0x25
10010c58:	d1f8      	bne.n	10010c4c <_vfprintf_r+0x94>
10010c5a:	ebb4 050b 	subs.w	r5, r4, fp
10010c5e:	f040 8139 	bne.w	10010ed4 <_vfprintf_r+0x31c>
10010c62:	7823      	ldrb	r3, [r4, #0]
10010c64:	2b00      	cmp	r3, #0
10010c66:	f000 814e 	beq.w	10010f06 <_vfprintf_r+0x34e>
10010c6a:	f04f 0300 	mov.w	r3, #0
10010c6e:	f88d 3077 	strb.w	r3, [sp, #119]	@ 0x77
10010c72:	2700      	movs	r7, #0
10010c74:	7863      	ldrb	r3, [r4, #1]
10010c76:	9709      	str	r7, [sp, #36]	@ 0x24
10010c78:	f104 0b01 	add.w	fp, r4, #1
10010c7c:	f04f 39ff 	mov.w	r9, #4294967295	@ 0xffffffff
10010c80:	f10b 0b01 	add.w	fp, fp, #1
10010c84:	4698      	mov	r8, r3
10010c86:	f1a8 0320 	sub.w	r3, r8, #32
10010c8a:	2b58      	cmp	r3, #88	@ 0x58
10010c8c:	f200 8148 	bhi.w	10010f20 <_vfprintf_r+0x368>
10010c90:	e8df f013 	tbh	[pc, r3, lsl #1]
10010c94:	0146027b 	.word	0x0146027b
10010c98:	02760146 	.word	0x02760146
10010c9c:	01460146 	.word	0x01460146
10010ca0:	01460146 	.word	0x01460146
10010ca4:	01460146 	.word	0x01460146
10010ca8:	0270023e 	.word	0x0270023e
10010cac:	02490146 	.word	0x02490146
10010cb0:	0146024e 	.word	0x0146024e
10010cb4:	0059026b 	.word	0x0059026b
10010cb8:	00590059 	.word	0x00590059
10010cbc:	00590059 	.word	0x00590059
10010cc0:	00590059 	.word	0x00590059
10010cc4:	00590059 	.word	0x00590059
10010cc8:	01460146 	.word	0x01460146
10010ccc:	01460146 	.word	0x01460146
10010cd0:	01460146 	.word	0x01460146
10010cd4:	01460146 	.word	0x01460146
10010cd8:	01460146 	.word	0x01460146
10010cdc:	01c10068 	.word	0x01c10068
10010ce0:	01c10146 	.word	0x01c10146
10010ce4:	01460146 	.word	0x01460146
10010ce8:	01460146 	.word	0x01460146
10010cec:	014602a6 	.word	0x014602a6
10010cf0:	00b80146 	.word	0x00b80146
10010cf4:	01460146 	.word	0x01460146
10010cf8:	01460146 	.word	0x01460146
10010cfc:	00c90146 	.word	0x00c90146
10010d00:	01460146 	.word	0x01460146
10010d04:	0146064d 	.word	0x0146064d
10010d08:	01460146 	.word	0x01460146
10010d0c:	01460146 	.word	0x01460146
10010d10:	01460146 	.word	0x01460146
10010d14:	01460146 	.word	0x01460146
10010d18:	02980146 	.word	0x02980146
10010d1c:	01c1006a 	.word	0x01c1006a
10010d20:	01c101c1 	.word	0x01c101c1
10010d24:	006a0293 	.word	0x006a0293
10010d28:	01460146 	.word	0x01460146
10010d2c:	01460286 	.word	0x01460286
10010d30:	00ba02e2 	.word	0x00ba02e2
10010d34:	02cc02d1 	.word	0x02cc02d1
10010d38:	02ab0146 	.word	0x02ab0146
10010d3c:	00cb0146 	.word	0x00cb0146
10010d40:	01460146 	.word	0x01460146
10010d44:	066d      	.short	0x066d
10010d46:	f1a8 0330 	sub.w	r3, r8, #48	@ 0x30
10010d4a:	2200      	movs	r2, #0
10010d4c:	f81b 8b01 	ldrb.w	r8, [fp], #1
10010d50:	eb02 0282 	add.w	r2, r2, r2, lsl #2
10010d54:	eb03 0242 	add.w	r2, r3, r2, lsl #1
10010d58:	f1a8 0330 	sub.w	r3, r8, #48	@ 0x30
10010d5c:	2b09      	cmp	r3, #9
10010d5e:	d9f5      	bls.n	10010d4c <_vfprintf_r+0x194>
10010d60:	9209      	str	r2, [sp, #36]	@ 0x24
10010d62:	e790      	b.n	10010c86 <_vfprintf_r+0xce>
10010d64:	f047 0710 	orr.w	r7, r7, #16
10010d68:	06bd      	lsls	r5, r7, #26
10010d6a:	f140 81aa 	bpl.w	100110c2 <_vfprintf_r+0x50a>
10010d6e:	9b0d      	ldr	r3, [sp, #52]	@ 0x34
10010d70:	3307      	adds	r3, #7
10010d72:	f023 0307 	bic.w	r3, r3, #7
10010d76:	461a      	mov	r2, r3
10010d78:	6859      	ldr	r1, [r3, #4]
10010d7a:	f852 3b08 	ldr.w	r3, [r2], #8
10010d7e:	920d      	str	r2, [sp, #52]	@ 0x34
10010d80:	460a      	mov	r2, r1
10010d82:	2900      	cmp	r1, #0
10010d84:	f2c0 81af 	blt.w	100110e6 <_vfprintf_r+0x52e>
10010d88:	f1b9 0f00 	cmp.w	r9, #0
10010d8c:	f89d 4077 	ldrb.w	r4, [sp, #119]	@ 0x77
10010d90:	f2c0 81b0 	blt.w	100110f4 <_vfprintf_r+0x53c>
10010d94:	f027 0180 	bic.w	r1, r7, #128	@ 0x80
10010d98:	9106      	str	r1, [sp, #24]
10010d9a:	ea53 0102 	orrs.w	r1, r3, r2
10010d9e:	f040 81a8 	bne.w	100110f2 <_vfprintf_r+0x53a>
10010da2:	2101      	movs	r1, #1
10010da4:	f1b9 0f00 	cmp.w	r9, #0
10010da8:	f040 834b 	bne.w	10011442 <_vfprintf_r+0x88a>
10010dac:	2900      	cmp	r1, #0
10010dae:	f040 84e9 	bne.w	10011784 <_vfprintf_r+0xbcc>
10010db2:	f017 0301 	ands.w	r3, r7, #1
10010db6:	930b      	str	r3, [sp, #44]	@ 0x2c
10010db8:	f000 8529 	beq.w	1001180e <_vfprintf_r+0xc56>
10010dbc:	2330      	movs	r3, #48	@ 0x30
10010dbe:	f88d 30c7 	strb.w	r3, [sp, #199]	@ 0xc7
10010dc2:	f10d 05c7 	add.w	r5, sp, #199	@ 0xc7
10010dc6:	e06e      	b.n	10010ea6 <_vfprintf_r+0x2ee>
10010dc8:	9d08      	ldr	r5, [sp, #32]
10010dca:	980c      	ldr	r0, [sp, #48]	@ 0x30
10010dcc:	4629      	mov	r1, r5
10010dce:	f003 fe8b 	bl	10014ae8 <__swsetup_r>
10010dd2:	2800      	cmp	r0, #0
10010dd4:	f041 8058 	bne.w	10011e88 <_vfprintf_r+0x12d0>
10010dd8:	f9b5 300c 	ldrsh.w	r3, [r5, #12]
10010ddc:	f003 031a 	and.w	r3, r3, #26
10010de0:	2b0a      	cmp	r3, #10
10010de2:	f47f af1d 	bne.w	10010c20 <_vfprintf_r+0x68>
10010de6:	9b08      	ldr	r3, [sp, #32]
10010de8:	f9b3 300e 	ldrsh.w	r3, [r3, #14]
10010dec:	2b00      	cmp	r3, #0
10010dee:	f6ff af17 	blt.w	10010c20 <_vfprintf_r+0x68>
10010df2:	9908      	ldr	r1, [sp, #32]
10010df4:	980c      	ldr	r0, [sp, #48]	@ 0x30
10010df6:	4623      	mov	r3, r4
10010df8:	464a      	mov	r2, r9
10010dfa:	b043      	add	sp, #268	@ 0x10c
10010dfc:	e8bd 4ff0 	ldmia.w	sp!, {r4, r5, r6, r7, r8, r9, sl, fp, lr}
10010e00:	f001 b8fe 	b.w	10012000 <__sbprintf>
10010e04:	f047 0710 	orr.w	r7, r7, #16
10010e08:	f017 0220 	ands.w	r2, r7, #32
10010e0c:	f000 814a 	beq.w	100110a4 <_vfprintf_r+0x4ec>
10010e10:	9b0d      	ldr	r3, [sp, #52]	@ 0x34
10010e12:	3307      	adds	r3, #7
10010e14:	f023 0307 	bic.w	r3, r3, #7
10010e18:	4619      	mov	r1, r3
10010e1a:	685a      	ldr	r2, [r3, #4]
10010e1c:	f851 3b08 	ldr.w	r3, [r1], #8
10010e20:	910d      	str	r1, [sp, #52]	@ 0x34
10010e22:	2100      	movs	r1, #0
10010e24:	e00f      	b.n	10010e46 <_vfprintf_r+0x28e>
10010e26:	f047 0710 	orr.w	r7, r7, #16
10010e2a:	f017 0220 	ands.w	r2, r7, #32
10010e2e:	f000 812f 	beq.w	10011090 <_vfprintf_r+0x4d8>
10010e32:	9b0d      	ldr	r3, [sp, #52]	@ 0x34
10010e34:	3307      	adds	r3, #7
10010e36:	f023 0307 	bic.w	r3, r3, #7
10010e3a:	4619      	mov	r1, r3
10010e3c:	685a      	ldr	r2, [r3, #4]
10010e3e:	f851 3b08 	ldr.w	r3, [r1], #8
10010e42:	910d      	str	r1, [sp, #52]	@ 0x34
10010e44:	2101      	movs	r1, #1
10010e46:	2400      	movs	r4, #0
10010e48:	f1b9 0f00 	cmp.w	r9, #0
10010e4c:	f88d 4077 	strb.w	r4, [sp, #119]	@ 0x77
10010e50:	db06      	blt.n	10010e60 <_vfprintf_r+0x2a8>
10010e52:	f027 0080 	bic.w	r0, r7, #128	@ 0x80
10010e56:	9006      	str	r0, [sp, #24]
10010e58:	ea53 0002 	orrs.w	r0, r3, r2
10010e5c:	d0a2      	beq.n	10010da4 <_vfprintf_r+0x1ec>
10010e5e:	9f06      	ldr	r7, [sp, #24]
10010e60:	2901      	cmp	r1, #1
10010e62:	f000 8147 	beq.w	100110f4 <_vfprintf_r+0x53c>
10010e66:	2902      	cmp	r1, #2
10010e68:	f000 82f5 	beq.w	10011456 <_vfprintf_r+0x89e>
10010e6c:	ad32      	add	r5, sp, #200	@ 0xc8
10010e6e:	f003 0107 	and.w	r1, r3, #7
10010e72:	08db      	lsrs	r3, r3, #3
10010e74:	ea43 7342 	orr.w	r3, r3, r2, lsl #29
10010e78:	08d2      	lsrs	r2, r2, #3
10010e7a:	3130      	adds	r1, #48	@ 0x30
10010e7c:	ea53 0602 	orrs.w	r6, r3, r2
10010e80:	4628      	mov	r0, r5
10010e82:	f805 1d01 	strb.w	r1, [r5, #-1]!
10010e86:	d1f2      	bne.n	10010e6e <_vfprintf_r+0x2b6>
10010e88:	07fb      	lsls	r3, r7, #31
10010e8a:	f140 82f2 	bpl.w	10011472 <_vfprintf_r+0x8ba>
10010e8e:	2930      	cmp	r1, #48	@ 0x30
10010e90:	f000 82ef 	beq.w	10011472 <_vfprintf_r+0x8ba>
10010e94:	2330      	movs	r3, #48	@ 0x30
10010e96:	3802      	subs	r0, #2
10010e98:	f805 3c01 	strb.w	r3, [r5, #-1]
10010e9c:	ab32      	add	r3, sp, #200	@ 0xc8
10010e9e:	1a1b      	subs	r3, r3, r0
10010ea0:	9706      	str	r7, [sp, #24]
10010ea2:	930b      	str	r3, [sp, #44]	@ 0x2c
10010ea4:	4605      	mov	r5, r0
10010ea6:	9b0b      	ldr	r3, [sp, #44]	@ 0x2c
10010ea8:	454b      	cmp	r3, r9
10010eaa:	bfb8      	it	lt
10010eac:	464b      	movlt	r3, r9
10010eae:	9307      	str	r3, [sp, #28]
10010eb0:	2300      	movs	r3, #0
10010eb2:	930f      	str	r3, [sp, #60]	@ 0x3c
10010eb4:	b114      	cbz	r4, 10010ebc <_vfprintf_r+0x304>
10010eb6:	9b07      	ldr	r3, [sp, #28]
10010eb8:	3301      	adds	r3, #1
10010eba:	9307      	str	r3, [sp, #28]
10010ebc:	9b06      	ldr	r3, [sp, #24]
10010ebe:	f013 0302 	ands.w	r3, r3, #2
10010ec2:	d03f      	beq.n	10010f44 <_vfprintf_r+0x38c>
10010ec4:	9b07      	ldr	r3, [sp, #28]
10010ec6:	3302      	adds	r3, #2
10010ec8:	9307      	str	r3, [sp, #28]
10010eca:	2302      	movs	r3, #2
10010ecc:	e03a      	b.n	10010f44 <_vfprintf_r+0x38c>
10010ece:	ebb4 050b 	subs.w	r5, r4, fp
10010ed2:	d018      	beq.n	10010f06 <_vfprintf_r+0x34e>
10010ed4:	9b27      	ldr	r3, [sp, #156]	@ 0x9c
10010ed6:	442b      	add	r3, r5
10010ed8:	9327      	str	r3, [sp, #156]	@ 0x9c
10010eda:	9b26      	ldr	r3, [sp, #152]	@ 0x98
10010edc:	3301      	adds	r3, #1
10010ede:	2b07      	cmp	r3, #7
10010ee0:	e9ca b500 	strd	fp, r5, [sl]
10010ee4:	9326      	str	r3, [sp, #152]	@ 0x98
10010ee6:	dc05      	bgt.n	10010ef4 <_vfprintf_r+0x33c>
10010ee8:	f10a 0a08 	add.w	sl, sl, #8
10010eec:	9b0a      	ldr	r3, [sp, #40]	@ 0x28
10010eee:	442b      	add	r3, r5
10010ef0:	930a      	str	r3, [sp, #40]	@ 0x28
10010ef2:	e6b6      	b.n	10010c62 <_vfprintf_r+0xaa>
10010ef4:	9908      	ldr	r1, [sp, #32]
10010ef6:	980c      	ldr	r0, [sp, #48]	@ 0x30
10010ef8:	aa25      	add	r2, sp, #148	@ 0x94
10010efa:	f004 f91b 	bl	10015134 <__sprint_r>
10010efe:	b930      	cbnz	r0, 10010f0e <_vfprintf_r+0x356>
10010f00:	f10d 0ac8 	add.w	sl, sp, #200	@ 0xc8
10010f04:	e7f2      	b.n	10010eec <_vfprintf_r+0x334>
10010f06:	9b27      	ldr	r3, [sp, #156]	@ 0x9c
10010f08:	2b00      	cmp	r3, #0
10010f0a:	f040 870d 	bne.w	10011d28 <_vfprintf_r+0x1170>
10010f0e:	9b08      	ldr	r3, [sp, #32]
10010f10:	899b      	ldrh	r3, [r3, #12]
10010f12:	065b      	lsls	r3, r3, #25
10010f14:	f100 87b8 	bmi.w	10011e88 <_vfprintf_r+0x12d0>
10010f18:	980a      	ldr	r0, [sp, #40]	@ 0x28
10010f1a:	b043      	add	sp, #268	@ 0x10c
10010f1c:	e8bd 8ff0 	ldmia.w	sp!, {r4, r5, r6, r7, r8, r9, sl, fp, pc}
10010f20:	f1b8 0f00 	cmp.w	r8, #0
10010f24:	d0ef      	beq.n	10010f06 <_vfprintf_r+0x34e>
10010f26:	2300      	movs	r3, #0
10010f28:	f88d 3077 	strb.w	r3, [sp, #119]	@ 0x77
10010f2c:	2301      	movs	r3, #1
10010f2e:	f88d 80a0 	strb.w	r8, [sp, #160]	@ 0xa0
10010f32:	9307      	str	r3, [sp, #28]
10010f34:	930b      	str	r3, [sp, #44]	@ 0x2c
10010f36:	ad28      	add	r5, sp, #160	@ 0xa0
10010f38:	f04f 0900 	mov.w	r9, #0
10010f3c:	9706      	str	r7, [sp, #24]
10010f3e:	f8cd 903c 	str.w	r9, [sp, #60]	@ 0x3c
10010f42:	464b      	mov	r3, r9
10010f44:	9a06      	ldr	r2, [sp, #24]
10010f46:	9c27      	ldr	r4, [sp, #156]	@ 0x9c
10010f48:	f012 0284 	ands.w	r2, r2, #132	@ 0x84
10010f4c:	920e      	str	r2, [sp, #56]	@ 0x38
10010f4e:	d105      	bne.n	10010f5c <_vfprintf_r+0x3a4>
10010f50:	9a09      	ldr	r2, [sp, #36]	@ 0x24
10010f52:	9907      	ldr	r1, [sp, #28]
10010f54:	1a56      	subs	r6, r2, r1
10010f56:	2e00      	cmp	r6, #0
10010f58:	f300 82fb 	bgt.w	10011552 <_vfprintf_r+0x99a>
10010f5c:	f89d 2077 	ldrb.w	r2, [sp, #119]	@ 0x77
10010f60:	b18a      	cbz	r2, 10010f86 <_vfprintf_r+0x3ce>
10010f62:	9a26      	ldr	r2, [sp, #152]	@ 0x98
10010f64:	f10d 0177 	add.w	r1, sp, #119	@ 0x77
10010f68:	3201      	adds	r2, #1
10010f6a:	3401      	adds	r4, #1
10010f6c:	f8ca 1000 	str.w	r1, [sl]
10010f70:	2a07      	cmp	r2, #7
10010f72:	f04f 0101 	mov.w	r1, #1
10010f76:	9427      	str	r4, [sp, #156]	@ 0x9c
10010f78:	9226      	str	r2, [sp, #152]	@ 0x98
10010f7a:	f8ca 1004 	str.w	r1, [sl, #4]
10010f7e:	f300 8323 	bgt.w	100115c8 <_vfprintf_r+0xa10>
10010f82:	f10a 0a08 	add.w	sl, sl, #8
10010f86:	b183      	cbz	r3, 10010faa <_vfprintf_r+0x3f2>
10010f88:	9a26      	ldr	r2, [sp, #152]	@ 0x98
10010f8a:	a91e      	add	r1, sp, #120	@ 0x78
10010f8c:	3201      	adds	r2, #1
10010f8e:	3402      	adds	r4, #2
10010f90:	f8ca 1000 	str.w	r1, [sl]
10010f94:	2a07      	cmp	r2, #7
10010f96:	f04f 0102 	mov.w	r1, #2
10010f9a:	9427      	str	r4, [sp, #156]	@ 0x9c
10010f9c:	9226      	str	r2, [sp, #152]	@ 0x98
10010f9e:	f8ca 1004 	str.w	r1, [sl, #4]
10010fa2:	f300 831f 	bgt.w	100115e4 <_vfprintf_r+0xa2c>
10010fa6:	f10a 0a08 	add.w	sl, sl, #8
10010faa:	9b0e      	ldr	r3, [sp, #56]	@ 0x38
10010fac:	2b80      	cmp	r3, #128	@ 0x80
10010fae:	f000 81c7 	beq.w	10011340 <_vfprintf_r+0x788>
10010fb2:	9b0b      	ldr	r3, [sp, #44]	@ 0x2c
10010fb4:	eba9 0603 	sub.w	r6, r9, r3
10010fb8:	2e00      	cmp	r6, #0
10010fba:	f300 8203 	bgt.w	100113c4 <_vfprintf_r+0x80c>
10010fbe:	9b06      	ldr	r3, [sp, #24]
10010fc0:	05de      	lsls	r6, r3, #23
10010fc2:	f100 8156 	bmi.w	10011272 <_vfprintf_r+0x6ba>
10010fc6:	9b0b      	ldr	r3, [sp, #44]	@ 0x2c
10010fc8:	f8ca 3004 	str.w	r3, [sl, #4]
10010fcc:	441c      	add	r4, r3
10010fce:	9b26      	ldr	r3, [sp, #152]	@ 0x98
10010fd0:	f8ca 5000 	str.w	r5, [sl]
10010fd4:	3301      	adds	r3, #1
10010fd6:	2b07      	cmp	r3, #7
10010fd8:	9427      	str	r4, [sp, #156]	@ 0x9c
10010fda:	9326      	str	r3, [sp, #152]	@ 0x98
10010fdc:	f300 8262 	bgt.w	100114a4 <_vfprintf_r+0x8ec>
10010fe0:	f10a 0a08 	add.w	sl, sl, #8
10010fe4:	9b06      	ldr	r3, [sp, #24]
10010fe6:	075a      	lsls	r2, r3, #29
10010fe8:	d505      	bpl.n	10010ff6 <_vfprintf_r+0x43e>
10010fea:	9b09      	ldr	r3, [sp, #36]	@ 0x24
10010fec:	9a07      	ldr	r2, [sp, #28]
10010fee:	1a9d      	subs	r5, r3, r2
10010ff0:	2d00      	cmp	r5, #0
10010ff2:	f300 8303 	bgt.w	100115fc <_vfprintf_r+0xa44>
10010ff6:	e9dd 2309 	ldrd	r2, r3, [sp, #36]	@ 0x24
10010ffa:	9907      	ldr	r1, [sp, #28]
10010ffc:	428a      	cmp	r2, r1
10010ffe:	bfac      	ite	ge
10011000:	189b      	addge	r3, r3, r2
10011002:	185b      	addlt	r3, r3, r1
10011004:	930a      	str	r3, [sp, #40]	@ 0x28
10011006:	2c00      	cmp	r4, #0
10011008:	f040 8238 	bne.w	1001147c <_vfprintf_r+0x8c4>
1001100c:	2300      	movs	r3, #0
1001100e:	9326      	str	r3, [sp, #152]	@ 0x98
10011010:	f10d 0ac8 	add.w	sl, sp, #200	@ 0xc8
10011014:	e613      	b.n	10010c3e <_vfprintf_r+0x86>
10011016:	9b0d      	ldr	r3, [sp, #52]	@ 0x34
10011018:	3307      	adds	r3, #7
1001101a:	f023 0307 	bic.w	r3, r3, #7
1001101e:	e8f3 4502 	ldrd	r4, r5, [r3], #8
10011022:	930d      	str	r3, [sp, #52]	@ 0x34
10011024:	f025 4300 	bic.w	r3, r5, #2147483648	@ 0x80000000
10011028:	9319      	str	r3, [sp, #100]	@ 0x64
1001102a:	9418      	str	r4, [sp, #96]	@ 0x60
1001102c:	e9dd 0118 	ldrd	r0, r1, [sp, #96]	@ 0x60
10011030:	4bbd      	ldr	r3, [pc, #756]	@ (10011328 <_vfprintf_r+0x770>)
10011032:	f04f 32ff 	mov.w	r2, #4294967295	@ 0xffffffff
10011036:	e9cd 4510 	strd	r4, r5, [sp, #64]	@ 0x40
1001103a:	f006 fb3b 	bl	100176b4 <__aeabi_dcmpun>
1001103e:	2800      	cmp	r0, #0
10011040:	f040 83f0 	bne.w	10011824 <_vfprintf_r+0xc6c>
10011044:	e9dd 0118 	ldrd	r0, r1, [sp, #96]	@ 0x60
10011048:	4bb7      	ldr	r3, [pc, #732]	@ (10011328 <_vfprintf_r+0x770>)
1001104a:	f04f 32ff 	mov.w	r2, #4294967295	@ 0xffffffff
1001104e:	f006 fb13 	bl	10017678 <__aeabi_dcmple>
10011052:	2800      	cmp	r0, #0
10011054:	f040 83e6 	bne.w	10011824 <_vfprintf_r+0xc6c>
10011058:	2200      	movs	r2, #0
1001105a:	2300      	movs	r3, #0
1001105c:	4620      	mov	r0, r4
1001105e:	4629      	mov	r1, r5
10011060:	f006 fb00 	bl	10017664 <__aeabi_dcmplt>
10011064:	2800      	cmp	r0, #0
10011066:	f040 8649 	bne.w	10011cfc <_vfprintf_r+0x1144>
1001106a:	f89d 4077 	ldrb.w	r4, [sp, #119]	@ 0x77
1001106e:	4daf      	ldr	r5, [pc, #700]	@ (1001132c <_vfprintf_r+0x774>)
10011070:	f027 0380 	bic.w	r3, r7, #128	@ 0x80
10011074:	9306      	str	r3, [sp, #24]
10011076:	4bae      	ldr	r3, [pc, #696]	@ (10011330 <_vfprintf_r+0x778>)
10011078:	f1b8 0f47 	cmp.w	r8, #71	@ 0x47
1001107c:	bfd8      	it	le
1001107e:	461d      	movle	r5, r3
10011080:	f04f 0900 	mov.w	r9, #0
10011084:	2303      	movs	r3, #3
10011086:	9307      	str	r3, [sp, #28]
10011088:	930b      	str	r3, [sp, #44]	@ 0x2c
1001108a:	f8cd 903c 	str.w	r9, [sp, #60]	@ 0x3c
1001108e:	e711      	b.n	10010eb4 <_vfprintf_r+0x2fc>
10011090:	990d      	ldr	r1, [sp, #52]	@ 0x34
10011092:	f851 3b04 	ldr.w	r3, [r1], #4
10011096:	910d      	str	r1, [sp, #52]	@ 0x34
10011098:	f017 0110 	ands.w	r1, r7, #16
1001109c:	f000 83ba 	beq.w	10011814 <_vfprintf_r+0xc5c>
100110a0:	2101      	movs	r1, #1
100110a2:	e6d0      	b.n	10010e46 <_vfprintf_r+0x28e>
100110a4:	990d      	ldr	r1, [sp, #52]	@ 0x34
100110a6:	f851 3b04 	ldr.w	r3, [r1], #4
100110aa:	910d      	str	r1, [sp, #52]	@ 0x34
100110ac:	f017 0110 	ands.w	r1, r7, #16
100110b0:	f47f aeb7 	bne.w	10010e22 <_vfprintf_r+0x26a>
100110b4:	f017 0240 	ands.w	r2, r7, #64	@ 0x40
100110b8:	f43f aeb3 	beq.w	10010e22 <_vfprintf_r+0x26a>
100110bc:	460a      	mov	r2, r1
100110be:	b29b      	uxth	r3, r3
100110c0:	e6af      	b.n	10010e22 <_vfprintf_r+0x26a>
100110c2:	9a0d      	ldr	r2, [sp, #52]	@ 0x34
100110c4:	06fc      	lsls	r4, r7, #27
100110c6:	f852 3b04 	ldr.w	r3, [r2], #4
100110ca:	920d      	str	r2, [sp, #52]	@ 0x34
100110cc:	d406      	bmi.n	100110dc <_vfprintf_r+0x524>
100110ce:	0678      	lsls	r0, r7, #25
100110d0:	d504      	bpl.n	100110dc <_vfprintf_r+0x524>
100110d2:	f343 32c0 	sbfx	r2, r3, #15, #1
100110d6:	4611      	mov	r1, r2
100110d8:	b21b      	sxth	r3, r3
100110da:	e652      	b.n	10010d82 <_vfprintf_r+0x1ca>
100110dc:	17da      	asrs	r2, r3, #31
100110de:	4611      	mov	r1, r2
100110e0:	2900      	cmp	r1, #0
100110e2:	f6bf ae51 	bge.w	10010d88 <_vfprintf_r+0x1d0>
100110e6:	425b      	negs	r3, r3
100110e8:	eb62 0242 	sbc.w	r2, r2, r2, lsl #1
100110ec:	242d      	movs	r4, #45	@ 0x2d
100110ee:	2101      	movs	r1, #1
100110f0:	e6aa      	b.n	10010e48 <_vfprintf_r+0x290>
100110f2:	9f06      	ldr	r7, [sp, #24]
100110f4:	2b0a      	cmp	r3, #10
100110f6:	f172 0100 	sbcs.w	r1, r2, #0
100110fa:	f080 8504 	bcs.w	10011b06 <_vfprintf_r+0xf4e>
100110fe:	3330      	adds	r3, #48	@ 0x30
10011100:	f88d 30c7 	strb.w	r3, [sp, #199]	@ 0xc7
10011104:	2301      	movs	r3, #1
10011106:	9706      	str	r7, [sp, #24]
10011108:	930b      	str	r3, [sp, #44]	@ 0x2c
1001110a:	f10d 05c7 	add.w	r5, sp, #199	@ 0xc7
1001110e:	e6ca      	b.n	10010ea6 <_vfprintf_r+0x2ee>
10011110:	9b0d      	ldr	r3, [sp, #52]	@ 0x34
10011112:	f853 2b04 	ldr.w	r2, [r3], #4
10011116:	9209      	str	r2, [sp, #36]	@ 0x24
10011118:	2a00      	cmp	r2, #0
1001111a:	f280 8373 	bge.w	10011804 <_vfprintf_r+0xc4c>
1001111e:	9a09      	ldr	r2, [sp, #36]	@ 0x24
10011120:	930d      	str	r3, [sp, #52]	@ 0x34
10011122:	4252      	negs	r2, r2
10011124:	9209      	str	r2, [sp, #36]	@ 0x24
10011126:	f89b 3000 	ldrb.w	r3, [fp]
1001112a:	f047 0704 	orr.w	r7, r7, #4
1001112e:	e5a7      	b.n	10010c80 <_vfprintf_r+0xc8>
10011130:	465a      	mov	r2, fp
10011132:	f812 8b01 	ldrb.w	r8, [r2], #1
10011136:	f1b8 0f2a 	cmp.w	r8, #42	@ 0x2a
1001113a:	f000 872f 	beq.w	10011f9c <_vfprintf_r+0x13e4>
1001113e:	f1a8 0330 	sub.w	r3, r8, #48	@ 0x30
10011142:	2b09      	cmp	r3, #9
10011144:	bf98      	it	ls
10011146:	f04f 0900 	movls.w	r9, #0
1001114a:	f200 86ae 	bhi.w	10011eaa <_vfprintf_r+0x12f2>
1001114e:	f812 8b01 	ldrb.w	r8, [r2], #1
10011152:	eb09 0989 	add.w	r9, r9, r9, lsl #2
10011156:	eb03 0949 	add.w	r9, r3, r9, lsl #1
1001115a:	f1a8 0330 	sub.w	r3, r8, #48	@ 0x30
1001115e:	2b09      	cmp	r3, #9
10011160:	d9f5      	bls.n	1001114e <_vfprintf_r+0x596>
10011162:	ea49 79e9 	orr.w	r9, r9, r9, asr #31
10011166:	4693      	mov	fp, r2
10011168:	e58d      	b.n	10010c86 <_vfprintf_r+0xce>
1001116a:	f89b 3000 	ldrb.w	r3, [fp]
1001116e:	f047 0780 	orr.w	r7, r7, #128	@ 0x80
10011172:	e585      	b.n	10010c80 <_vfprintf_r+0xc8>
10011174:	232b      	movs	r3, #43	@ 0x2b
10011176:	f88d 3077 	strb.w	r3, [sp, #119]	@ 0x77
1001117a:	f89b 3000 	ldrb.w	r3, [fp]
1001117e:	e57f      	b.n	10010c80 <_vfprintf_r+0xc8>
10011180:	f89b 3000 	ldrb.w	r3, [fp]
10011184:	f047 0701 	orr.w	r7, r7, #1
10011188:	e57a      	b.n	10010c80 <_vfprintf_r+0xc8>
1001118a:	f89d 2077 	ldrb.w	r2, [sp, #119]	@ 0x77
1001118e:	f89b 3000 	ldrb.w	r3, [fp]
10011192:	2a00      	cmp	r2, #0
10011194:	f47f ad74 	bne.w	10010c80 <_vfprintf_r+0xc8>
10011198:	2220      	movs	r2, #32
1001119a:	f88d 2077 	strb.w	r2, [sp, #119]	@ 0x77
1001119e:	e56f      	b.n	10010c80 <_vfprintf_r+0xc8>
100111a0:	f89b 3000 	ldrb.w	r3, [fp]
100111a4:	2b6c      	cmp	r3, #108	@ 0x6c
100111a6:	bf03      	ittte	eq
100111a8:	f89b 3001 	ldrbeq.w	r3, [fp, #1]
100111ac:	f047 0720 	orreq.w	r7, r7, #32
100111b0:	f10b 0b01 	addeq.w	fp, fp, #1
100111b4:	f047 0710 	orrne.w	r7, r7, #16
100111b8:	e562      	b.n	10010c80 <_vfprintf_r+0xc8>
100111ba:	f89b 3000 	ldrb.w	r3, [fp]
100111be:	f047 0740 	orr.w	r7, r7, #64	@ 0x40
100111c2:	e55d      	b.n	10010c80 <_vfprintf_r+0xc8>
100111c4:	9b0d      	ldr	r3, [sp, #52]	@ 0x34
100111c6:	2200      	movs	r2, #0
100111c8:	f88d 2077 	strb.w	r2, [sp, #119]	@ 0x77
100111cc:	f853 2b04 	ldr.w	r2, [r3], #4
100111d0:	930d      	str	r3, [sp, #52]	@ 0x34
100111d2:	2301      	movs	r3, #1
100111d4:	f88d 20a0 	strb.w	r2, [sp, #160]	@ 0xa0
100111d8:	9307      	str	r3, [sp, #28]
100111da:	930b      	str	r3, [sp, #44]	@ 0x2c
100111dc:	ad28      	add	r5, sp, #160	@ 0xa0
100111de:	e6ab      	b.n	10010f38 <_vfprintf_r+0x380>
100111e0:	f89b 3000 	ldrb.w	r3, [fp]
100111e4:	f047 0708 	orr.w	r7, r7, #8
100111e8:	e54a      	b.n	10010c80 <_vfprintf_r+0xc8>
100111ea:	9c0d      	ldr	r4, [sp, #52]	@ 0x34
100111ec:	f854 5b04 	ldr.w	r5, [r4], #4
100111f0:	2600      	movs	r6, #0
100111f2:	f88d 6077 	strb.w	r6, [sp, #119]	@ 0x77
100111f6:	2d00      	cmp	r5, #0
100111f8:	f000 83c8 	beq.w	1001198c <_vfprintf_r+0xdd4>
100111fc:	f1b9 0f00 	cmp.w	r9, #0
10011200:	f2c0 851d 	blt.w	10011c3e <_vfprintf_r+0x1086>
10011204:	464a      	mov	r2, r9
10011206:	4631      	mov	r1, r6
10011208:	4628      	mov	r0, r5
1001120a:	f000 ff31 	bl	10012070 <memchr>
1001120e:	2800      	cmp	r0, #0
10011210:	f000 863f 	beq.w	10011e92 <_vfprintf_r+0x12da>
10011214:	1b43      	subs	r3, r0, r5
10011216:	930b      	str	r3, [sp, #44]	@ 0x2c
10011218:	ea23 73e3 	bic.w	r3, r3, r3, asr #31
1001121c:	940d      	str	r4, [sp, #52]	@ 0x34
1001121e:	46b1      	mov	r9, r6
10011220:	f89d 4077 	ldrb.w	r4, [sp, #119]	@ 0x77
10011224:	9706      	str	r7, [sp, #24]
10011226:	9307      	str	r3, [sp, #28]
10011228:	960f      	str	r6, [sp, #60]	@ 0x3c
1001122a:	e643      	b.n	10010eb4 <_vfprintf_r+0x2fc>
1001122c:	f89b 3000 	ldrb.w	r3, [fp]
10011230:	f047 0720 	orr.w	r7, r7, #32
10011234:	e524      	b.n	10010c80 <_vfprintf_r+0xc8>
10011236:	9a0d      	ldr	r2, [sp, #52]	@ 0x34
10011238:	f852 3b04 	ldr.w	r3, [r2], #4
1001123c:	920d      	str	r2, [sp, #52]	@ 0x34
1001123e:	f647 0230 	movw	r2, #30768	@ 0x7830
10011242:	f8ad 2078 	strh.w	r2, [sp, #120]	@ 0x78
10011246:	4a3b      	ldr	r2, [pc, #236]	@ (10011334 <_vfprintf_r+0x77c>)
10011248:	9215      	str	r2, [sp, #84]	@ 0x54
1001124a:	f047 0702 	orr.w	r7, r7, #2
1001124e:	2200      	movs	r2, #0
10011250:	2102      	movs	r1, #2
10011252:	f04f 0878 	mov.w	r8, #120	@ 0x78
10011256:	e5f6      	b.n	10010e46 <_vfprintf_r+0x28e>
10011258:	06bd      	lsls	r5, r7, #26
1001125a:	f140 835f 	bpl.w	1001191c <_vfprintf_r+0xd64>
1001125e:	9b0d      	ldr	r3, [sp, #52]	@ 0x34
10011260:	9a0a      	ldr	r2, [sp, #40]	@ 0x28
10011262:	681b      	ldr	r3, [r3, #0]
10011264:	601a      	str	r2, [r3, #0]
10011266:	17d2      	asrs	r2, r2, #31
10011268:	605a      	str	r2, [r3, #4]
1001126a:	9b0d      	ldr	r3, [sp, #52]	@ 0x34
1001126c:	3304      	adds	r3, #4
1001126e:	930d      	str	r3, [sp, #52]	@ 0x34
10011270:	e4e5      	b.n	10010c3e <_vfprintf_r+0x86>
10011272:	f1b8 0f65 	cmp.w	r8, #101	@ 0x65
10011276:	f340 8121 	ble.w	100114bc <_vfprintf_r+0x904>
1001127a:	e9dd 0110 	ldrd	r0, r1, [sp, #64]	@ 0x40
1001127e:	2200      	movs	r2, #0
10011280:	2300      	movs	r3, #0
10011282:	f006 f9e5 	bl	10017650 <__aeabi_dcmpeq>
10011286:	2800      	cmp	r0, #0
10011288:	f000 81f5 	beq.w	10011676 <_vfprintf_r+0xabe>
1001128c:	9b26      	ldr	r3, [sp, #152]	@ 0x98
1001128e:	4a2a      	ldr	r2, [pc, #168]	@ (10011338 <_vfprintf_r+0x780>)
10011290:	f8ca 2000 	str.w	r2, [sl]
10011294:	3301      	adds	r3, #1
10011296:	3401      	adds	r4, #1
10011298:	2201      	movs	r2, #1
1001129a:	2b07      	cmp	r3, #7
1001129c:	9427      	str	r4, [sp, #156]	@ 0x9c
1001129e:	9326      	str	r3, [sp, #152]	@ 0x98
100112a0:	f8ca 2004 	str.w	r2, [sl, #4]
100112a4:	f300 84ac 	bgt.w	10011c00 <_vfprintf_r+0x1048>
100112a8:	f10a 0a08 	add.w	sl, sl, #8
100112ac:	9b1f      	ldr	r3, [sp, #124]	@ 0x7c
100112ae:	9a12      	ldr	r2, [sp, #72]	@ 0x48
100112b0:	4293      	cmp	r3, r2
100112b2:	f280 82a2 	bge.w	100117fa <_vfprintf_r+0xc42>
100112b6:	9b13      	ldr	r3, [sp, #76]	@ 0x4c
100112b8:	9a14      	ldr	r2, [sp, #80]	@ 0x50
100112ba:	441c      	add	r4, r3
100112bc:	e9ca 2300 	strd	r2, r3, [sl]
100112c0:	9b26      	ldr	r3, [sp, #152]	@ 0x98
100112c2:	9427      	str	r4, [sp, #156]	@ 0x9c
100112c4:	3301      	adds	r3, #1
100112c6:	2b07      	cmp	r3, #7
100112c8:	9326      	str	r3, [sp, #152]	@ 0x98
100112ca:	f300 8353 	bgt.w	10011974 <_vfprintf_r+0xdbc>
100112ce:	f10a 0a08 	add.w	sl, sl, #8
100112d2:	9b12      	ldr	r3, [sp, #72]	@ 0x48
100112d4:	1e5d      	subs	r5, r3, #1
100112d6:	2d00      	cmp	r5, #0
100112d8:	f77f ae84 	ble.w	10010fe4 <_vfprintf_r+0x42c>
100112dc:	2d10      	cmp	r5, #16
100112de:	9b26      	ldr	r3, [sp, #152]	@ 0x98
100112e0:	4f16      	ldr	r7, [pc, #88]	@ (1001133c <_vfprintf_r+0x784>)
100112e2:	f340 80d4 	ble.w	1001148e <_vfprintf_r+0x8d6>
100112e6:	f8dd 8030 	ldr.w	r8, [sp, #48]	@ 0x30
100112ea:	f8dd 9020 	ldr.w	r9, [sp, #32]
100112ee:	2610      	movs	r6, #16
100112f0:	e005      	b.n	100112fe <_vfprintf_r+0x746>
100112f2:	f10a 0a08 	add.w	sl, sl, #8
100112f6:	3d10      	subs	r5, #16
100112f8:	2d10      	cmp	r5, #16
100112fa:	f340 80c8 	ble.w	1001148e <_vfprintf_r+0x8d6>
100112fe:	3301      	adds	r3, #1
10011300:	3410      	adds	r4, #16
10011302:	2b07      	cmp	r3, #7
10011304:	e9ca 7600 	strd	r7, r6, [sl]
10011308:	e9cd 3426 	strd	r3, r4, [sp, #152]	@ 0x98
1001130c:	ddf1      	ble.n	100112f2 <_vfprintf_r+0x73a>
1001130e:	aa25      	add	r2, sp, #148	@ 0x94
10011310:	4649      	mov	r1, r9
10011312:	4640      	mov	r0, r8
10011314:	f003 ff0e 	bl	10015134 <__sprint_r>
10011318:	2800      	cmp	r0, #0
1001131a:	f47f adf8 	bne.w	10010f0e <_vfprintf_r+0x356>
1001131e:	e9dd 3426 	ldrd	r3, r4, [sp, #152]	@ 0x98
10011322:	f10d 0ac8 	add.w	sl, sp, #200	@ 0xc8
10011326:	e7e6      	b.n	100112f6 <_vfprintf_r+0x73e>
10011328:	7fefffff 	.word	0x7fefffff
1001132c:	10017be0 	.word	0x10017be0
10011330:	10017bdc 	.word	0x10017bdc
10011334:	10017c00 	.word	0x10017c00
10011338:	10017c1c 	.word	0x10017c1c
1001133c:	10017e70 	.word	0x10017e70
10011340:	9b09      	ldr	r3, [sp, #36]	@ 0x24
10011342:	9a07      	ldr	r2, [sp, #28]
10011344:	1a9e      	subs	r6, r3, r2
10011346:	2e00      	cmp	r6, #0
10011348:	f77f ae33 	ble.w	10010fb2 <_vfprintf_r+0x3fa>
1001134c:	2e10      	cmp	r6, #16
1001134e:	9b26      	ldr	r3, [sp, #152]	@ 0x98
10011350:	4faf      	ldr	r7, [pc, #700]	@ (10011610 <_vfprintf_r+0xa58>)
10011352:	dd24      	ble.n	1001139e <_vfprintf_r+0x7e6>
10011354:	4652      	mov	r2, sl
10011356:	4621      	mov	r1, r4
10011358:	46aa      	mov	sl, r5
1001135a:	9c0c      	ldr	r4, [sp, #48]	@ 0x30
1001135c:	9d08      	ldr	r5, [sp, #32]
1001135e:	e004      	b.n	1001136a <_vfprintf_r+0x7b2>
10011360:	3e10      	subs	r6, #16
10011362:	2e10      	cmp	r6, #16
10011364:	f102 0208 	add.w	r2, r2, #8
10011368:	dd16      	ble.n	10011398 <_vfprintf_r+0x7e0>
1001136a:	3301      	adds	r3, #1
1001136c:	3110      	adds	r1, #16
1001136e:	2010      	movs	r0, #16
10011370:	2b07      	cmp	r3, #7
10011372:	e9cd 3126 	strd	r3, r1, [sp, #152]	@ 0x98
10011376:	6017      	str	r7, [r2, #0]
10011378:	6050      	str	r0, [r2, #4]
1001137a:	ddf1      	ble.n	10011360 <_vfprintf_r+0x7a8>
1001137c:	aa25      	add	r2, sp, #148	@ 0x94
1001137e:	4629      	mov	r1, r5
10011380:	4620      	mov	r0, r4
10011382:	f003 fed7 	bl	10015134 <__sprint_r>
10011386:	2800      	cmp	r0, #0
10011388:	f47f adc1 	bne.w	10010f0e <_vfprintf_r+0x356>
1001138c:	3e10      	subs	r6, #16
1001138e:	2e10      	cmp	r6, #16
10011390:	e9dd 3126 	ldrd	r3, r1, [sp, #152]	@ 0x98
10011394:	aa32      	add	r2, sp, #200	@ 0xc8
10011396:	dce8      	bgt.n	1001136a <_vfprintf_r+0x7b2>
10011398:	4655      	mov	r5, sl
1001139a:	460c      	mov	r4, r1
1001139c:	4692      	mov	sl, r2
1001139e:	3301      	adds	r3, #1
100113a0:	4434      	add	r4, r6
100113a2:	2b07      	cmp	r3, #7
100113a4:	e9cd 3426 	strd	r3, r4, [sp, #152]	@ 0x98
100113a8:	f8ca 7000 	str.w	r7, [sl]
100113ac:	f8ca 6004 	str.w	r6, [sl, #4]
100113b0:	f300 8438 	bgt.w	10011c24 <_vfprintf_r+0x106c>
100113b4:	9b0b      	ldr	r3, [sp, #44]	@ 0x2c
100113b6:	eba9 0603 	sub.w	r6, r9, r3
100113ba:	2e00      	cmp	r6, #0
100113bc:	f10a 0a08 	add.w	sl, sl, #8
100113c0:	f77f adfd 	ble.w	10010fbe <_vfprintf_r+0x406>
100113c4:	2e10      	cmp	r6, #16
100113c6:	9b26      	ldr	r3, [sp, #152]	@ 0x98
100113c8:	4f91      	ldr	r7, [pc, #580]	@ (10011610 <_vfprintf_r+0xa58>)
100113ca:	dd2c      	ble.n	10011426 <_vfprintf_r+0x86e>
100113cc:	4652      	mov	r2, sl
100113ce:	4621      	mov	r1, r4
100113d0:	46b2      	mov	sl, r6
100113d2:	9c0c      	ldr	r4, [sp, #48]	@ 0x30
100113d4:	462e      	mov	r6, r5
100113d6:	f04f 0910 	mov.w	r9, #16
100113da:	9d08      	ldr	r5, [sp, #32]
100113dc:	e006      	b.n	100113ec <_vfprintf_r+0x834>
100113de:	f1aa 0a10 	sub.w	sl, sl, #16
100113e2:	f1ba 0f10 	cmp.w	sl, #16
100113e6:	f102 0208 	add.w	r2, r2, #8
100113ea:	dd18      	ble.n	1001141e <_vfprintf_r+0x866>
100113ec:	3301      	adds	r3, #1
100113ee:	4888      	ldr	r0, [pc, #544]	@ (10011610 <_vfprintf_r+0xa58>)
100113f0:	3110      	adds	r1, #16
100113f2:	2b07      	cmp	r3, #7
100113f4:	e9c2 0900 	strd	r0, r9, [r2]
100113f8:	e9cd 3126 	strd	r3, r1, [sp, #152]	@ 0x98
100113fc:	ddef      	ble.n	100113de <_vfprintf_r+0x826>
100113fe:	aa25      	add	r2, sp, #148	@ 0x94
10011400:	4629      	mov	r1, r5
10011402:	4620      	mov	r0, r4
10011404:	f003 fe96 	bl	10015134 <__sprint_r>
10011408:	2800      	cmp	r0, #0
1001140a:	f47f ad80 	bne.w	10010f0e <_vfprintf_r+0x356>
1001140e:	f1aa 0a10 	sub.w	sl, sl, #16
10011412:	f1ba 0f10 	cmp.w	sl, #16
10011416:	e9dd 3126 	ldrd	r3, r1, [sp, #152]	@ 0x98
1001141a:	aa32      	add	r2, sp, #200	@ 0xc8
1001141c:	dce6      	bgt.n	100113ec <_vfprintf_r+0x834>
1001141e:	4635      	mov	r5, r6
10011420:	460c      	mov	r4, r1
10011422:	4656      	mov	r6, sl
10011424:	4692      	mov	sl, r2
10011426:	3301      	adds	r3, #1
10011428:	4434      	add	r4, r6
1001142a:	2b07      	cmp	r3, #7
1001142c:	e9cd 3426 	strd	r3, r4, [sp, #152]	@ 0x98
10011430:	f8ca 7000 	str.w	r7, [sl]
10011434:	f8ca 6004 	str.w	r6, [sl, #4]
10011438:	f300 81d2 	bgt.w	100117e0 <_vfprintf_r+0xc28>
1001143c:	f10a 0a08 	add.w	sl, sl, #8
10011440:	e5bd      	b.n	10010fbe <_vfprintf_r+0x406>
10011442:	2901      	cmp	r1, #1
10011444:	9f06      	ldr	r7, [sp, #24]
10011446:	f04f 0300 	mov.w	r3, #0
1001144a:	f43f ae58 	beq.w	100110fe <_vfprintf_r+0x546>
1001144e:	2902      	cmp	r1, #2
10011450:	461a      	mov	r2, r3
10011452:	f47f ad0b 	bne.w	10010e6c <_vfprintf_r+0x2b4>
10011456:	9815      	ldr	r0, [sp, #84]	@ 0x54
10011458:	ad32      	add	r5, sp, #200	@ 0xc8
1001145a:	f003 010f 	and.w	r1, r3, #15
1001145e:	091b      	lsrs	r3, r3, #4
10011460:	5c41      	ldrb	r1, [r0, r1]
10011462:	f805 1d01 	strb.w	r1, [r5, #-1]!
10011466:	ea43 7302 	orr.w	r3, r3, r2, lsl #28
1001146a:	0912      	lsrs	r2, r2, #4
1001146c:	ea53 0102 	orrs.w	r1, r3, r2
10011470:	d1f3      	bne.n	1001145a <_vfprintf_r+0x8a2>
10011472:	ab32      	add	r3, sp, #200	@ 0xc8
10011474:	1b5b      	subs	r3, r3, r5
10011476:	9706      	str	r7, [sp, #24]
10011478:	930b      	str	r3, [sp, #44]	@ 0x2c
1001147a:	e514      	b.n	10010ea6 <_vfprintf_r+0x2ee>
1001147c:	9908      	ldr	r1, [sp, #32]
1001147e:	980c      	ldr	r0, [sp, #48]	@ 0x30
10011480:	aa25      	add	r2, sp, #148	@ 0x94
10011482:	f003 fe57 	bl	10015134 <__sprint_r>
10011486:	2800      	cmp	r0, #0
10011488:	f43f adc0 	beq.w	1001100c <_vfprintf_r+0x454>
1001148c:	e53f      	b.n	10010f0e <_vfprintf_r+0x356>
1001148e:	3301      	adds	r3, #1
10011490:	442c      	add	r4, r5
10011492:	2b07      	cmp	r3, #7
10011494:	f8ca 7000 	str.w	r7, [sl]
10011498:	f8ca 5004 	str.w	r5, [sl, #4]
1001149c:	e9cd 3426 	strd	r3, r4, [sp, #152]	@ 0x98
100114a0:	f77f ad9e 	ble.w	10010fe0 <_vfprintf_r+0x428>
100114a4:	9908      	ldr	r1, [sp, #32]
100114a6:	980c      	ldr	r0, [sp, #48]	@ 0x30
100114a8:	aa25      	add	r2, sp, #148	@ 0x94
100114aa:	f003 fe43 	bl	10015134 <__sprint_r>
100114ae:	2800      	cmp	r0, #0
100114b0:	f47f ad2d 	bne.w	10010f0e <_vfprintf_r+0x356>
100114b4:	9c27      	ldr	r4, [sp, #156]	@ 0x9c
100114b6:	f10d 0ac8 	add.w	sl, sp, #200	@ 0xc8
100114ba:	e593      	b.n	10010fe4 <_vfprintf_r+0x42c>
100114bc:	9b12      	ldr	r3, [sp, #72]	@ 0x48
100114be:	9e26      	ldr	r6, [sp, #152]	@ 0x98
100114c0:	2b01      	cmp	r3, #1
100114c2:	f104 0401 	add.w	r4, r4, #1
100114c6:	f106 0601 	add.w	r6, r6, #1
100114ca:	f10a 0808 	add.w	r8, sl, #8
100114ce:	f340 813e 	ble.w	1001174e <_vfprintf_r+0xb96>
100114d2:	2301      	movs	r3, #1
100114d4:	2e07      	cmp	r6, #7
100114d6:	e9cd 6426 	strd	r6, r4, [sp, #152]	@ 0x98
100114da:	f8ca 5000 	str.w	r5, [sl]
100114de:	f8ca 3004 	str.w	r3, [sl, #4]
100114e2:	f300 82f6 	bgt.w	10011ad2 <_vfprintf_r+0xf1a>
100114e6:	9b13      	ldr	r3, [sp, #76]	@ 0x4c
100114e8:	9a14      	ldr	r2, [sp, #80]	@ 0x50
100114ea:	3601      	adds	r6, #1
100114ec:	441c      	add	r4, r3
100114ee:	2e07      	cmp	r6, #7
100114f0:	e9c8 2300 	strd	r2, r3, [r8]
100114f4:	e9cd 6426 	strd	r6, r4, [sp, #152]	@ 0x98
100114f8:	f300 82f8 	bgt.w	10011aec <_vfprintf_r+0xf34>
100114fc:	f108 0808 	add.w	r8, r8, #8
10011500:	9b12      	ldr	r3, [sp, #72]	@ 0x48
10011502:	e9dd 0110 	ldrd	r0, r1, [sp, #64]	@ 0x40
10011506:	f103 39ff 	add.w	r9, r3, #4294967295	@ 0xffffffff
1001150a:	2200      	movs	r2, #0
1001150c:	2300      	movs	r3, #0
1001150e:	f006 f89f 	bl	10017650 <__aeabi_dcmpeq>
10011512:	2800      	cmp	r0, #0
10011514:	f040 813b 	bne.w	1001178e <_vfprintf_r+0xbd6>
10011518:	3601      	adds	r6, #1
1001151a:	3501      	adds	r5, #1
1001151c:	444c      	add	r4, r9
1001151e:	2e07      	cmp	r6, #7
10011520:	e9cd 6426 	strd	r6, r4, [sp, #152]	@ 0x98
10011524:	f8c8 5000 	str.w	r5, [r8]
10011528:	f8c8 9004 	str.w	r9, [r8, #4]
1001152c:	f300 811d 	bgt.w	1001176a <_vfprintf_r+0xbb2>
10011530:	f108 0808 	add.w	r8, r8, #8
10011534:	9b16      	ldr	r3, [sp, #88]	@ 0x58
10011536:	f8c8 3004 	str.w	r3, [r8, #4]
1001153a:	3601      	adds	r6, #1
1001153c:	441c      	add	r4, r3
1001153e:	2e07      	cmp	r6, #7
10011540:	ab21      	add	r3, sp, #132	@ 0x84
10011542:	e9cd 6426 	strd	r6, r4, [sp, #152]	@ 0x98
10011546:	f8c8 3000 	str.w	r3, [r8]
1001154a:	dcab      	bgt.n	100114a4 <_vfprintf_r+0x8ec>
1001154c:	f108 0a08 	add.w	sl, r8, #8
10011550:	e548      	b.n	10010fe4 <_vfprintf_r+0x42c>
10011552:	2e10      	cmp	r6, #16
10011554:	9a26      	ldr	r2, [sp, #152]	@ 0x98
10011556:	4f2f      	ldr	r7, [pc, #188]	@ (10011614 <_vfprintf_r+0xa5c>)
10011558:	dd28      	ble.n	100115ac <_vfprintf_r+0x9f4>
1001155a:	4651      	mov	r1, sl
1001155c:	4620      	mov	r0, r4
1001155e:	46ca      	mov	sl, r9
10011560:	9c0c      	ldr	r4, [sp, #48]	@ 0x30
10011562:	9317      	str	r3, [sp, #92]	@ 0x5c
10011564:	46a9      	mov	r9, r5
10011566:	9d08      	ldr	r5, [sp, #32]
10011568:	e004      	b.n	10011574 <_vfprintf_r+0x9bc>
1001156a:	3e10      	subs	r6, #16
1001156c:	2e10      	cmp	r6, #16
1001156e:	f101 0108 	add.w	r1, r1, #8
10011572:	dd16      	ble.n	100115a2 <_vfprintf_r+0x9ea>
10011574:	3201      	adds	r2, #1
10011576:	3010      	adds	r0, #16
10011578:	2310      	movs	r3, #16
1001157a:	2a07      	cmp	r2, #7
1001157c:	e9cd 2026 	strd	r2, r0, [sp, #152]	@ 0x98
10011580:	600f      	str	r7, [r1, #0]
10011582:	604b      	str	r3, [r1, #4]
10011584:	ddf1      	ble.n	1001156a <_vfprintf_r+0x9b2>
10011586:	aa25      	add	r2, sp, #148	@ 0x94
10011588:	4629      	mov	r1, r5
1001158a:	4620      	mov	r0, r4
1001158c:	f003 fdd2 	bl	10015134 <__sprint_r>
10011590:	2800      	cmp	r0, #0
10011592:	f47f acbc 	bne.w	10010f0e <_vfprintf_r+0x356>
10011596:	3e10      	subs	r6, #16
10011598:	2e10      	cmp	r6, #16
1001159a:	e9dd 2026 	ldrd	r2, r0, [sp, #152]	@ 0x98
1001159e:	a932      	add	r1, sp, #200	@ 0xc8
100115a0:	dce8      	bgt.n	10011574 <_vfprintf_r+0x9bc>
100115a2:	9b17      	ldr	r3, [sp, #92]	@ 0x5c
100115a4:	464d      	mov	r5, r9
100115a6:	4604      	mov	r4, r0
100115a8:	46d1      	mov	r9, sl
100115aa:	468a      	mov	sl, r1
100115ac:	3201      	adds	r2, #1
100115ae:	4434      	add	r4, r6
100115b0:	2a07      	cmp	r2, #7
100115b2:	e9cd 2426 	strd	r2, r4, [sp, #152]	@ 0x98
100115b6:	f8ca 7000 	str.w	r7, [sl]
100115ba:	f8ca 6004 	str.w	r6, [sl, #4]
100115be:	f300 82dc 	bgt.w	10011b7a <_vfprintf_r+0xfc2>
100115c2:	f10a 0a08 	add.w	sl, sl, #8
100115c6:	e4c9      	b.n	10010f5c <_vfprintf_r+0x3a4>
100115c8:	9908      	ldr	r1, [sp, #32]
100115ca:	980c      	ldr	r0, [sp, #48]	@ 0x30
100115cc:	9317      	str	r3, [sp, #92]	@ 0x5c
100115ce:	aa25      	add	r2, sp, #148	@ 0x94
100115d0:	f003 fdb0 	bl	10015134 <__sprint_r>
100115d4:	2800      	cmp	r0, #0
100115d6:	f47f ac9a 	bne.w	10010f0e <_vfprintf_r+0x356>
100115da:	9c27      	ldr	r4, [sp, #156]	@ 0x9c
100115dc:	9b17      	ldr	r3, [sp, #92]	@ 0x5c
100115de:	f10d 0ac8 	add.w	sl, sp, #200	@ 0xc8
100115e2:	e4d0      	b.n	10010f86 <_vfprintf_r+0x3ce>
100115e4:	9908      	ldr	r1, [sp, #32]
100115e6:	980c      	ldr	r0, [sp, #48]	@ 0x30
100115e8:	aa25      	add	r2, sp, #148	@ 0x94
100115ea:	f003 fda3 	bl	10015134 <__sprint_r>
100115ee:	2800      	cmp	r0, #0
100115f0:	f47f ac8d 	bne.w	10010f0e <_vfprintf_r+0x356>
100115f4:	9c27      	ldr	r4, [sp, #156]	@ 0x9c
100115f6:	f10d 0ac8 	add.w	sl, sp, #200	@ 0xc8
100115fa:	e4d6      	b.n	10010faa <_vfprintf_r+0x3f2>
100115fc:	2d10      	cmp	r5, #16
100115fe:	9b26      	ldr	r3, [sp, #152]	@ 0x98
10011600:	4f04      	ldr	r7, [pc, #16]	@ (10011614 <_vfprintf_r+0xa5c>)
10011602:	dd25      	ble.n	10011650 <_vfprintf_r+0xa98>
10011604:	f8dd 8030 	ldr.w	r8, [sp, #48]	@ 0x30
10011608:	f8dd 9020 	ldr.w	r9, [sp, #32]
1001160c:	2610      	movs	r6, #16
1001160e:	e008      	b.n	10011622 <_vfprintf_r+0xa6a>
10011610:	10017e70 	.word	0x10017e70
10011614:	10017e60 	.word	0x10017e60
10011618:	3d10      	subs	r5, #16
1001161a:	2d10      	cmp	r5, #16
1001161c:	f10a 0a08 	add.w	sl, sl, #8
10011620:	dd16      	ble.n	10011650 <_vfprintf_r+0xa98>
10011622:	3301      	adds	r3, #1
10011624:	3410      	adds	r4, #16
10011626:	2b07      	cmp	r3, #7
10011628:	e9ca 7600 	strd	r7, r6, [sl]
1001162c:	e9cd 3426 	strd	r3, r4, [sp, #152]	@ 0x98
10011630:	ddf2      	ble.n	10011618 <_vfprintf_r+0xa60>
10011632:	aa25      	add	r2, sp, #148	@ 0x94
10011634:	4649      	mov	r1, r9
10011636:	4640      	mov	r0, r8
10011638:	f003 fd7c 	bl	10015134 <__sprint_r>
1001163c:	2800      	cmp	r0, #0
1001163e:	f47f ac66 	bne.w	10010f0e <_vfprintf_r+0x356>
10011642:	3d10      	subs	r5, #16
10011644:	2d10      	cmp	r5, #16
10011646:	e9dd 3426 	ldrd	r3, r4, [sp, #152]	@ 0x98
1001164a:	f10d 0ac8 	add.w	sl, sp, #200	@ 0xc8
1001164e:	dce8      	bgt.n	10011622 <_vfprintf_r+0xa6a>
10011650:	3301      	adds	r3, #1
10011652:	442c      	add	r4, r5
10011654:	2b07      	cmp	r3, #7
10011656:	e9ca 7500 	strd	r7, r5, [sl]
1001165a:	e9cd 3426 	strd	r3, r4, [sp, #152]	@ 0x98
1001165e:	f77f acca 	ble.w	10010ff6 <_vfprintf_r+0x43e>
10011662:	9908      	ldr	r1, [sp, #32]
10011664:	980c      	ldr	r0, [sp, #48]	@ 0x30
10011666:	aa25      	add	r2, sp, #148	@ 0x94
10011668:	f003 fd64 	bl	10015134 <__sprint_r>
1001166c:	2800      	cmp	r0, #0
1001166e:	f47f ac4e 	bne.w	10010f0e <_vfprintf_r+0x356>
10011672:	9c27      	ldr	r4, [sp, #156]	@ 0x9c
10011674:	e4bf      	b.n	10010ff6 <_vfprintf_r+0x43e>
10011676:	991f      	ldr	r1, [sp, #124]	@ 0x7c
10011678:	2900      	cmp	r1, #0
1001167a:	f340 828d 	ble.w	10011b98 <_vfprintf_r+0xfe0>
1001167e:	9f0f      	ldr	r7, [sp, #60]	@ 0x3c
10011680:	9b12      	ldr	r3, [sp, #72]	@ 0x48
10011682:	429f      	cmp	r7, r3
10011684:	bfa8      	it	ge
10011686:	461f      	movge	r7, r3
10011688:	2f00      	cmp	r7, #0
1001168a:	dd0b      	ble.n	100116a4 <_vfprintf_r+0xaec>
1001168c:	9b26      	ldr	r3, [sp, #152]	@ 0x98
1001168e:	3301      	adds	r3, #1
10011690:	443c      	add	r4, r7
10011692:	2b07      	cmp	r3, #7
10011694:	e9ca 5700 	strd	r5, r7, [sl]
10011698:	9427      	str	r4, [sp, #156]	@ 0x9c
1001169a:	9326      	str	r3, [sp, #152]	@ 0x98
1001169c:	f300 83d6 	bgt.w	10011e4c <_vfprintf_r+0x1294>
100116a0:	f10a 0a08 	add.w	sl, sl, #8
100116a4:	9e0f      	ldr	r6, [sp, #60]	@ 0x3c
100116a6:	2f00      	cmp	r7, #0
100116a8:	bfa8      	it	ge
100116aa:	1bf6      	subge	r6, r6, r7
100116ac:	2e00      	cmp	r6, #0
100116ae:	f300 8177 	bgt.w	100119a0 <_vfprintf_r+0xde8>
100116b2:	9b1f      	ldr	r3, [sp, #124]	@ 0x7c
100116b4:	9a12      	ldr	r2, [sp, #72]	@ 0x48
100116b6:	4293      	cmp	r3, r2
100116b8:	f2c0 81a1 	blt.w	100119fe <_vfprintf_r+0xe46>
100116bc:	9a06      	ldr	r2, [sp, #24]
100116be:	07d0      	lsls	r0, r2, #31
100116c0:	f100 819d 	bmi.w	100119fe <_vfprintf_r+0xe46>
100116c4:	9a12      	ldr	r2, [sp, #72]	@ 0x48
100116c6:	990f      	ldr	r1, [sp, #60]	@ 0x3c
100116c8:	1ad3      	subs	r3, r2, r3
100116ca:	1a56      	subs	r6, r2, r1
100116cc:	429e      	cmp	r6, r3
100116ce:	bfa8      	it	ge
100116d0:	461e      	movge	r6, r3
100116d2:	2e00      	cmp	r6, #0
100116d4:	dd0e      	ble.n	100116f4 <_vfprintf_r+0xb3c>
100116d6:	9a26      	ldr	r2, [sp, #152]	@ 0x98
100116d8:	f8ca 6004 	str.w	r6, [sl, #4]
100116dc:	3201      	adds	r2, #1
100116de:	440d      	add	r5, r1
100116e0:	4434      	add	r4, r6
100116e2:	2a07      	cmp	r2, #7
100116e4:	f8ca 5000 	str.w	r5, [sl]
100116e8:	9427      	str	r4, [sp, #156]	@ 0x9c
100116ea:	9226      	str	r2, [sp, #152]	@ 0x98
100116ec:	f300 83ba 	bgt.w	10011e64 <_vfprintf_r+0x12ac>
100116f0:	f10a 0a08 	add.w	sl, sl, #8
100116f4:	2e00      	cmp	r6, #0
100116f6:	bfac      	ite	ge
100116f8:	1b9d      	subge	r5, r3, r6
100116fa:	461d      	movlt	r5, r3
100116fc:	2d00      	cmp	r5, #0
100116fe:	f77f ac71 	ble.w	10010fe4 <_vfprintf_r+0x42c>
10011702:	2d10      	cmp	r5, #16
10011704:	9b26      	ldr	r3, [sp, #152]	@ 0x98
10011706:	4fac      	ldr	r7, [pc, #688]	@ (100119b8 <_vfprintf_r+0xe00>)
10011708:	f77f aec1 	ble.w	1001148e <_vfprintf_r+0x8d6>
1001170c:	f8dd 8030 	ldr.w	r8, [sp, #48]	@ 0x30
10011710:	f8dd 9020 	ldr.w	r9, [sp, #32]
10011714:	2610      	movs	r6, #16
10011716:	e005      	b.n	10011724 <_vfprintf_r+0xb6c>
10011718:	f10a 0a08 	add.w	sl, sl, #8
1001171c:	3d10      	subs	r5, #16
1001171e:	2d10      	cmp	r5, #16
10011720:	f77f aeb5 	ble.w	1001148e <_vfprintf_r+0x8d6>
10011724:	3301      	adds	r3, #1
10011726:	3410      	adds	r4, #16
10011728:	2b07      	cmp	r3, #7
1001172a:	e9ca 7600 	strd	r7, r6, [sl]
1001172e:	e9cd 3426 	strd	r3, r4, [sp, #152]	@ 0x98
10011732:	ddf1      	ble.n	10011718 <_vfprintf_r+0xb60>
10011734:	aa25      	add	r2, sp, #148	@ 0x94
10011736:	4649      	mov	r1, r9
10011738:	4640      	mov	r0, r8
1001173a:	f003 fcfb 	bl	10015134 <__sprint_r>
1001173e:	2800      	cmp	r0, #0
10011740:	f47f abe5 	bne.w	10010f0e <_vfprintf_r+0x356>
10011744:	e9dd 3426 	ldrd	r3, r4, [sp, #152]	@ 0x98
10011748:	f10d 0ac8 	add.w	sl, sp, #200	@ 0xc8
1001174c:	e7e6      	b.n	1001171c <_vfprintf_r+0xb64>
1001174e:	9b06      	ldr	r3, [sp, #24]
10011750:	07d9      	lsls	r1, r3, #31
10011752:	f53f aebe 	bmi.w	100114d2 <_vfprintf_r+0x91a>
10011756:	2301      	movs	r3, #1
10011758:	2e07      	cmp	r6, #7
1001175a:	e9cd 6426 	strd	r6, r4, [sp, #152]	@ 0x98
1001175e:	f8ca 5000 	str.w	r5, [sl]
10011762:	f8ca 3004 	str.w	r3, [sl, #4]
10011766:	f77f aee5 	ble.w	10011534 <_vfprintf_r+0x97c>
1001176a:	9908      	ldr	r1, [sp, #32]
1001176c:	980c      	ldr	r0, [sp, #48]	@ 0x30
1001176e:	aa25      	add	r2, sp, #148	@ 0x94
10011770:	f003 fce0 	bl	10015134 <__sprint_r>
10011774:	2800      	cmp	r0, #0
10011776:	f47f abca 	bne.w	10010f0e <_vfprintf_r+0x356>
1001177a:	e9dd 6426 	ldrd	r6, r4, [sp, #152]	@ 0x98
1001177e:	f10d 08c8 	add.w	r8, sp, #200	@ 0xc8
10011782:	e6d7      	b.n	10011534 <_vfprintf_r+0x97c>
10011784:	f8cd 902c 	str.w	r9, [sp, #44]	@ 0x2c
10011788:	ad32      	add	r5, sp, #200	@ 0xc8
1001178a:	f7ff bb8c 	b.w	10010ea6 <_vfprintf_r+0x2ee>
1001178e:	9b12      	ldr	r3, [sp, #72]	@ 0x48
10011790:	2b01      	cmp	r3, #1
10011792:	f77f aecf 	ble.w	10011534 <_vfprintf_r+0x97c>
10011796:	2b11      	cmp	r3, #17
10011798:	4f87      	ldr	r7, [pc, #540]	@ (100119b8 <_vfprintf_r+0xe00>)
1001179a:	f340 8295 	ble.w	10011cc8 <_vfprintf_r+0x1110>
1001179e:	f8dd a030 	ldr.w	sl, [sp, #48]	@ 0x30
100117a2:	2510      	movs	r5, #16
100117a4:	e007      	b.n	100117b6 <_vfprintf_r+0xbfe>
100117a6:	f108 0808 	add.w	r8, r8, #8
100117aa:	f1a9 0910 	sub.w	r9, r9, #16
100117ae:	f1b9 0f10 	cmp.w	r9, #16
100117b2:	f340 8289 	ble.w	10011cc8 <_vfprintf_r+0x1110>
100117b6:	3601      	adds	r6, #1
100117b8:	3410      	adds	r4, #16
100117ba:	2e07      	cmp	r6, #7
100117bc:	e9c8 7500 	strd	r7, r5, [r8]
100117c0:	e9cd 6426 	strd	r6, r4, [sp, #152]	@ 0x98
100117c4:	ddef      	ble.n	100117a6 <_vfprintf_r+0xbee>
100117c6:	9908      	ldr	r1, [sp, #32]
100117c8:	aa25      	add	r2, sp, #148	@ 0x94
100117ca:	4650      	mov	r0, sl
100117cc:	f003 fcb2 	bl	10015134 <__sprint_r>
100117d0:	2800      	cmp	r0, #0
100117d2:	f47f ab9c 	bne.w	10010f0e <_vfprintf_r+0x356>
100117d6:	e9dd 6426 	ldrd	r6, r4, [sp, #152]	@ 0x98
100117da:	f10d 08c8 	add.w	r8, sp, #200	@ 0xc8
100117de:	e7e4      	b.n	100117aa <_vfprintf_r+0xbf2>
100117e0:	9908      	ldr	r1, [sp, #32]
100117e2:	980c      	ldr	r0, [sp, #48]	@ 0x30
100117e4:	aa25      	add	r2, sp, #148	@ 0x94
100117e6:	f003 fca5 	bl	10015134 <__sprint_r>
100117ea:	2800      	cmp	r0, #0
100117ec:	f47f ab8f 	bne.w	10010f0e <_vfprintf_r+0x356>
100117f0:	9c27      	ldr	r4, [sp, #156]	@ 0x9c
100117f2:	f10d 0ac8 	add.w	sl, sp, #200	@ 0xc8
100117f6:	f7ff bbe2 	b.w	10010fbe <_vfprintf_r+0x406>
100117fa:	9b06      	ldr	r3, [sp, #24]
100117fc:	07dd      	lsls	r5, r3, #31
100117fe:	f57f abf1 	bpl.w	10010fe4 <_vfprintf_r+0x42c>
10011802:	e558      	b.n	100112b6 <_vfprintf_r+0x6fe>
10011804:	930d      	str	r3, [sp, #52]	@ 0x34
10011806:	f89b 3000 	ldrb.w	r3, [fp]
1001180a:	f7ff ba39 	b.w	10010c80 <_vfprintf_r+0xc8>
1001180e:	ad32      	add	r5, sp, #200	@ 0xc8
10011810:	f7ff bb49 	b.w	10010ea6 <_vfprintf_r+0x2ee>
10011814:	f017 0240 	ands.w	r2, r7, #64	@ 0x40
10011818:	bf1c      	itt	ne
1001181a:	460a      	movne	r2, r1
1001181c:	b29b      	uxthne	r3, r3
1001181e:	2101      	movs	r1, #1
10011820:	f7ff bb11 	b.w	10010e46 <_vfprintf_r+0x28e>
10011824:	e9dd 0110 	ldrd	r0, r1, [sp, #64]	@ 0x40
10011828:	4602      	mov	r2, r0
1001182a:	460b      	mov	r3, r1
1001182c:	f005 ff42 	bl	100176b4 <__aeabi_dcmpun>
10011830:	2800      	cmp	r0, #0
10011832:	f040 837b 	bne.w	10011f2c <_vfprintf_r+0x1374>
10011836:	f1b9 3fff 	cmp.w	r9, #4294967295	@ 0xffffffff
1001183a:	f028 0620 	bic.w	r6, r8, #32
1001183e:	f000 8320 	beq.w	10011e82 <_vfprintf_r+0x12ca>
10011842:	2e47      	cmp	r6, #71	@ 0x47
10011844:	d104      	bne.n	10011850 <_vfprintf_r+0xc98>
10011846:	f1b9 0f00 	cmp.w	r9, #0
1001184a:	bf08      	it	eq
1001184c:	f04f 0901 	moveq.w	r9, #1
10011850:	e9dd 1210 	ldrd	r1, r2, [sp, #64]	@ 0x40
10011854:	f447 7080 	orr.w	r0, r7, #256	@ 0x100
10011858:	2a00      	cmp	r2, #0
1001185a:	9006      	str	r0, [sp, #24]
1001185c:	f2c0 82da 	blt.w	10011e14 <_vfprintf_r+0x125c>
10011860:	2300      	movs	r3, #0
10011862:	930e      	str	r3, [sp, #56]	@ 0x38
10011864:	e9dd 3410 	ldrd	r3, r4, [sp, #64]	@ 0x40
10011868:	e9cd 341a 	strd	r3, r4, [sp, #104]	@ 0x68
1001186c:	f1b8 0f65 	cmp.w	r8, #101	@ 0x65
10011870:	f000 82a5 	beq.w	10011dbe <_vfprintf_r+0x1206>
10011874:	f300 82e2 	bgt.w	10011e3c <_vfprintf_r+0x1284>
10011878:	f1b8 0f45 	cmp.w	r8, #69	@ 0x45
1001187c:	f000 829f 	beq.w	10011dbe <_vfprintf_r+0x1206>
10011880:	ab23      	add	r3, sp, #140	@ 0x8c
10011882:	9304      	str	r3, [sp, #16]
10011884:	ab20      	add	r3, sp, #128	@ 0x80
10011886:	9303      	str	r3, [sp, #12]
10011888:	ab1f      	add	r3, sp, #124	@ 0x7c
1001188a:	9302      	str	r3, [sp, #8]
1001188c:	2302      	movs	r3, #2
1001188e:	9300      	str	r3, [sp, #0]
10011890:	980c      	ldr	r0, [sp, #48]	@ 0x30
10011892:	f8cd 9004 	str.w	r9, [sp, #4]
10011896:	e9dd 231a 	ldrd	r2, r3, [sp, #104]	@ 0x68
1001189a:	f002 f9e3 	bl	10013c64 <_dtoa_r>
1001189e:	07f9      	lsls	r1, r7, #31
100118a0:	4605      	mov	r5, r0
100118a2:	f140 80c0 	bpl.w	10011a26 <_vfprintf_r+0xe6e>
100118a6:	eb00 0409 	add.w	r4, r0, r9
100118aa:	e9dd 011a 	ldrd	r0, r1, [sp, #104]	@ 0x68
100118ae:	2200      	movs	r2, #0
100118b0:	2300      	movs	r3, #0
100118b2:	f005 fecd 	bl	10017650 <__aeabi_dcmpeq>
100118b6:	2800      	cmp	r0, #0
100118b8:	f040 8232 	bne.w	10011d20 <_vfprintf_r+0x1168>
100118bc:	9b23      	ldr	r3, [sp, #140]	@ 0x8c
100118be:	42a3      	cmp	r3, r4
100118c0:	d206      	bcs.n	100118d0 <_vfprintf_r+0xd18>
100118c2:	2130      	movs	r1, #48	@ 0x30
100118c4:	1c5a      	adds	r2, r3, #1
100118c6:	9223      	str	r2, [sp, #140]	@ 0x8c
100118c8:	7019      	strb	r1, [r3, #0]
100118ca:	9b23      	ldr	r3, [sp, #140]	@ 0x8c
100118cc:	429c      	cmp	r4, r3
100118ce:	d8f9      	bhi.n	100118c4 <_vfprintf_r+0xd0c>
100118d0:	9a1f      	ldr	r2, [sp, #124]	@ 0x7c
100118d2:	920f      	str	r2, [sp, #60]	@ 0x3c
100118d4:	1b5b      	subs	r3, r3, r5
100118d6:	2e47      	cmp	r6, #71	@ 0x47
100118d8:	9312      	str	r3, [sp, #72]	@ 0x48
100118da:	f000 80a9 	beq.w	10011a30 <_vfprintf_r+0xe78>
100118de:	f1b8 0f66 	cmp.w	r8, #102	@ 0x66
100118e2:	f040 80bc 	bne.w	10011a5e <_vfprintf_r+0xea6>
100118e6:	9a0f      	ldr	r2, [sp, #60]	@ 0x3c
100118e8:	f007 0301 	and.w	r3, r7, #1
100118ec:	2a00      	cmp	r2, #0
100118ee:	ea43 0309 	orr.w	r3, r3, r9
100118f2:	f340 8361 	ble.w	10011fb8 <_vfprintf_r+0x1400>
100118f6:	2b00      	cmp	r3, #0
100118f8:	f040 833e 	bne.w	10011f78 <_vfprintf_r+0x13c0>
100118fc:	9b0f      	ldr	r3, [sp, #60]	@ 0x3c
100118fe:	9307      	str	r3, [sp, #28]
10011900:	930b      	str	r3, [sp, #44]	@ 0x2c
10011902:	f04f 0866 	mov.w	r8, #102	@ 0x66
10011906:	9b0e      	ldr	r3, [sp, #56]	@ 0x38
10011908:	2b00      	cmp	r3, #0
1001190a:	f000 827d 	beq.w	10011e08 <_vfprintf_r+0x1250>
1001190e:	232d      	movs	r3, #45	@ 0x2d
10011910:	f88d 3077 	strb.w	r3, [sp, #119]	@ 0x77
10011914:	f04f 0900 	mov.w	r9, #0
10011918:	f7ff bacd 	b.w	10010eb6 <_vfprintf_r+0x2fe>
1001191c:	06fc      	lsls	r4, r7, #27
1001191e:	d47d      	bmi.n	10011a1c <_vfprintf_r+0xe64>
10011920:	0678      	lsls	r0, r7, #25
10011922:	d57b      	bpl.n	10011a1c <_vfprintf_r+0xe64>
10011924:	9b0d      	ldr	r3, [sp, #52]	@ 0x34
10011926:	9a0a      	ldr	r2, [sp, #40]	@ 0x28
10011928:	681b      	ldr	r3, [r3, #0]
1001192a:	801a      	strh	r2, [r3, #0]
1001192c:	e49d      	b.n	1001126a <_vfprintf_r+0x6b2>
1001192e:	4b23      	ldr	r3, [pc, #140]	@ (100119bc <_vfprintf_r+0xe04>)
10011930:	9315      	str	r3, [sp, #84]	@ 0x54
10011932:	f017 0220 	ands.w	r2, r7, #32
10011936:	f000 80be 	beq.w	10011ab6 <_vfprintf_r+0xefe>
1001193a:	9b0d      	ldr	r3, [sp, #52]	@ 0x34
1001193c:	3307      	adds	r3, #7
1001193e:	f023 0307 	bic.w	r3, r3, #7
10011942:	4619      	mov	r1, r3
10011944:	685a      	ldr	r2, [r3, #4]
10011946:	f851 3b08 	ldr.w	r3, [r1], #8
1001194a:	910d      	str	r1, [sp, #52]	@ 0x34
1001194c:	07f9      	lsls	r1, r7, #31
1001194e:	f140 80af 	bpl.w	10011ab0 <_vfprintf_r+0xef8>
10011952:	ea53 0102 	orrs.w	r1, r3, r2
10011956:	f000 80ab 	beq.w	10011ab0 <_vfprintf_r+0xef8>
1001195a:	2130      	movs	r1, #48	@ 0x30
1001195c:	f88d 1078 	strb.w	r1, [sp, #120]	@ 0x78
10011960:	f88d 8079 	strb.w	r8, [sp, #121]	@ 0x79
10011964:	f047 0702 	orr.w	r7, r7, #2
10011968:	2102      	movs	r1, #2
1001196a:	f7ff ba6c 	b.w	10010e46 <_vfprintf_r+0x28e>
1001196e:	4b14      	ldr	r3, [pc, #80]	@ (100119c0 <_vfprintf_r+0xe08>)
10011970:	9315      	str	r3, [sp, #84]	@ 0x54
10011972:	e7de      	b.n	10011932 <_vfprintf_r+0xd7a>
10011974:	9908      	ldr	r1, [sp, #32]
10011976:	980c      	ldr	r0, [sp, #48]	@ 0x30
10011978:	aa25      	add	r2, sp, #148	@ 0x94
1001197a:	f003 fbdb 	bl	10015134 <__sprint_r>
1001197e:	2800      	cmp	r0, #0
10011980:	f47f aac5 	bne.w	10010f0e <_vfprintf_r+0x356>
10011984:	9c27      	ldr	r4, [sp, #156]	@ 0x9c
10011986:	f10d 0ac8 	add.w	sl, sp, #200	@ 0xc8
1001198a:	e4a2      	b.n	100112d2 <_vfprintf_r+0x71a>
1001198c:	464b      	mov	r3, r9
1001198e:	2b06      	cmp	r3, #6
10011990:	bf28      	it	cs
10011992:	2306      	movcs	r3, #6
10011994:	4d0b      	ldr	r5, [pc, #44]	@ (100119c4 <_vfprintf_r+0xe0c>)
10011996:	930b      	str	r3, [sp, #44]	@ 0x2c
10011998:	940d      	str	r4, [sp, #52]	@ 0x34
1001199a:	9307      	str	r3, [sp, #28]
1001199c:	f7ff bacc 	b.w	10010f38 <_vfprintf_r+0x380>
100119a0:	2e10      	cmp	r6, #16
100119a2:	9b26      	ldr	r3, [sp, #152]	@ 0x98
100119a4:	4f04      	ldr	r7, [pc, #16]	@ (100119b8 <_vfprintf_r+0xe00>)
100119a6:	f340 819c 	ble.w	10011ce2 <_vfprintf_r+0x112a>
100119aa:	4622      	mov	r2, r4
100119ac:	f8dd 9030 	ldr.w	r9, [sp, #48]	@ 0x30
100119b0:	9c08      	ldr	r4, [sp, #32]
100119b2:	f04f 0810 	mov.w	r8, #16
100119b6:	e00d      	b.n	100119d4 <_vfprintf_r+0xe1c>
100119b8:	10017e70 	.word	0x10017e70
100119bc:	10017bec 	.word	0x10017bec
100119c0:	10017c00 	.word	0x10017c00
100119c4:	10017c14 	.word	0x10017c14
100119c8:	f10a 0a08 	add.w	sl, sl, #8
100119cc:	3e10      	subs	r6, #16
100119ce:	2e10      	cmp	r6, #16
100119d0:	f340 8186 	ble.w	10011ce0 <_vfprintf_r+0x1128>
100119d4:	3301      	adds	r3, #1
100119d6:	3210      	adds	r2, #16
100119d8:	2b07      	cmp	r3, #7
100119da:	e9ca 7800 	strd	r7, r8, [sl]
100119de:	e9cd 3226 	strd	r3, r2, [sp, #152]	@ 0x98
100119e2:	ddf1      	ble.n	100119c8 <_vfprintf_r+0xe10>
100119e4:	aa25      	add	r2, sp, #148	@ 0x94
100119e6:	4621      	mov	r1, r4
100119e8:	4648      	mov	r0, r9
100119ea:	f003 fba3 	bl	10015134 <__sprint_r>
100119ee:	2800      	cmp	r0, #0
100119f0:	f47f aa8d 	bne.w	10010f0e <_vfprintf_r+0x356>
100119f4:	e9dd 3226 	ldrd	r3, r2, [sp, #152]	@ 0x98
100119f8:	f10d 0ac8 	add.w	sl, sp, #200	@ 0xc8
100119fc:	e7e6      	b.n	100119cc <_vfprintf_r+0xe14>
100119fe:	9a13      	ldr	r2, [sp, #76]	@ 0x4c
10011a00:	9914      	ldr	r1, [sp, #80]	@ 0x50
10011a02:	4414      	add	r4, r2
10011a04:	e9ca 1200 	strd	r1, r2, [sl]
10011a08:	9a26      	ldr	r2, [sp, #152]	@ 0x98
10011a0a:	9427      	str	r4, [sp, #156]	@ 0x9c
10011a0c:	3201      	adds	r2, #1
10011a0e:	2a07      	cmp	r2, #7
10011a10:	9226      	str	r2, [sp, #152]	@ 0x98
10011a12:	f300 8206 	bgt.w	10011e22 <_vfprintf_r+0x126a>
10011a16:	f10a 0a08 	add.w	sl, sl, #8
10011a1a:	e653      	b.n	100116c4 <_vfprintf_r+0xb0c>
10011a1c:	9b0d      	ldr	r3, [sp, #52]	@ 0x34
10011a1e:	9a0a      	ldr	r2, [sp, #40]	@ 0x28
10011a20:	681b      	ldr	r3, [r3, #0]
10011a22:	601a      	str	r2, [r3, #0]
10011a24:	e421      	b.n	1001126a <_vfprintf_r+0x6b2>
10011a26:	9b23      	ldr	r3, [sp, #140]	@ 0x8c
10011a28:	1a1b      	subs	r3, r3, r0
10011a2a:	9312      	str	r3, [sp, #72]	@ 0x48
10011a2c:	9b1f      	ldr	r3, [sp, #124]	@ 0x7c
10011a2e:	930f      	str	r3, [sp, #60]	@ 0x3c
10011a30:	9b0f      	ldr	r3, [sp, #60]	@ 0x3c
10011a32:	1cda      	adds	r2, r3, #3
10011a34:	db11      	blt.n	10011a5a <_vfprintf_r+0xea2>
10011a36:	4599      	cmp	r9, r3
10011a38:	db0f      	blt.n	10011a5a <_vfprintf_r+0xea2>
10011a3a:	9b12      	ldr	r3, [sp, #72]	@ 0x48
10011a3c:	9a0f      	ldr	r2, [sp, #60]	@ 0x3c
10011a3e:	4293      	cmp	r3, r2
10011a40:	f300 8259 	bgt.w	10011ef6 <_vfprintf_r+0x133e>
10011a44:	07fe      	lsls	r6, r7, #31
10011a46:	9b0f      	ldr	r3, [sp, #60]	@ 0x3c
10011a48:	f100 8281 	bmi.w	10011f4e <_vfprintf_r+0x1396>
10011a4c:	ea23 72e3 	bic.w	r2, r3, r3, asr #31
10011a50:	9207      	str	r2, [sp, #28]
10011a52:	930b      	str	r3, [sp, #44]	@ 0x2c
10011a54:	f04f 0867 	mov.w	r8, #103	@ 0x67
10011a58:	e755      	b.n	10011906 <_vfprintf_r+0xd4e>
10011a5a:	f1a8 0802 	sub.w	r8, r8, #2
10011a5e:	9b0f      	ldr	r3, [sp, #60]	@ 0x3c
10011a60:	f88d 8084 	strb.w	r8, [sp, #132]	@ 0x84
10011a64:	1e59      	subs	r1, r3, #1
10011a66:	2900      	cmp	r1, #0
10011a68:	911f      	str	r1, [sp, #124]	@ 0x7c
10011a6a:	bfb6      	itet	lt
10011a6c:	f1c3 0101 	rsblt	r1, r3, #1
10011a70:	232b      	movge	r3, #43	@ 0x2b
10011a72:	232d      	movlt	r3, #45	@ 0x2d
10011a74:	2909      	cmp	r1, #9
10011a76:	f88d 3085 	strb.w	r3, [sp, #133]	@ 0x85
10011a7a:	f300 815c 	bgt.w	10011d36 <_vfprintf_r+0x117e>
10011a7e:	2330      	movs	r3, #48	@ 0x30
10011a80:	3130      	adds	r1, #48	@ 0x30
10011a82:	f88d 3086 	strb.w	r3, [sp, #134]	@ 0x86
10011a86:	2304      	movs	r3, #4
10011a88:	f88d 1087 	strb.w	r1, [sp, #135]	@ 0x87
10011a8c:	9316      	str	r3, [sp, #88]	@ 0x58
10011a8e:	9a12      	ldr	r2, [sp, #72]	@ 0x48
10011a90:	9b16      	ldr	r3, [sp, #88]	@ 0x58
10011a92:	2a01      	cmp	r2, #1
10011a94:	4413      	add	r3, r2
10011a96:	930b      	str	r3, [sp, #44]	@ 0x2c
10011a98:	f340 8224 	ble.w	10011ee4 <_vfprintf_r+0x132c>
10011a9c:	9b0b      	ldr	r3, [sp, #44]	@ 0x2c
10011a9e:	9a13      	ldr	r2, [sp, #76]	@ 0x4c
10011aa0:	4413      	add	r3, r2
10011aa2:	930b      	str	r3, [sp, #44]	@ 0x2c
10011aa4:	ea23 73e3 	bic.w	r3, r3, r3, asr #31
10011aa8:	9307      	str	r3, [sp, #28]
10011aaa:	2300      	movs	r3, #0
10011aac:	930f      	str	r3, [sp, #60]	@ 0x3c
10011aae:	e72a      	b.n	10011906 <_vfprintf_r+0xd4e>
10011ab0:	2102      	movs	r1, #2
10011ab2:	f7ff b9c8 	b.w	10010e46 <_vfprintf_r+0x28e>
10011ab6:	990d      	ldr	r1, [sp, #52]	@ 0x34
10011ab8:	f851 3b04 	ldr.w	r3, [r1], #4
10011abc:	910d      	str	r1, [sp, #52]	@ 0x34
10011abe:	f017 0110 	ands.w	r1, r7, #16
10011ac2:	f47f af43 	bne.w	1001194c <_vfprintf_r+0xd94>
10011ac6:	f017 0240 	ands.w	r2, r7, #64	@ 0x40
10011aca:	bf1c      	itt	ne
10011acc:	b29b      	uxthne	r3, r3
10011ace:	460a      	movne	r2, r1
10011ad0:	e73c      	b.n	1001194c <_vfprintf_r+0xd94>
10011ad2:	9908      	ldr	r1, [sp, #32]
10011ad4:	980c      	ldr	r0, [sp, #48]	@ 0x30
10011ad6:	aa25      	add	r2, sp, #148	@ 0x94
10011ad8:	f003 fb2c 	bl	10015134 <__sprint_r>
10011adc:	2800      	cmp	r0, #0
10011ade:	f47f aa16 	bne.w	10010f0e <_vfprintf_r+0x356>
10011ae2:	e9dd 6426 	ldrd	r6, r4, [sp, #152]	@ 0x98
10011ae6:	f10d 08c8 	add.w	r8, sp, #200	@ 0xc8
10011aea:	e4fc      	b.n	100114e6 <_vfprintf_r+0x92e>
10011aec:	9908      	ldr	r1, [sp, #32]
10011aee:	980c      	ldr	r0, [sp, #48]	@ 0x30
10011af0:	aa25      	add	r2, sp, #148	@ 0x94
10011af2:	f003 fb1f 	bl	10015134 <__sprint_r>
10011af6:	2800      	cmp	r0, #0
10011af8:	f47f aa09 	bne.w	10010f0e <_vfprintf_r+0x356>
10011afc:	e9dd 6426 	ldrd	r6, r4, [sp, #152]	@ 0x98
10011b00:	f10d 08c8 	add.w	r8, sp, #200	@ 0xc8
10011b04:	e4fc      	b.n	10011500 <_vfprintf_r+0x948>
10011b06:	e9cd 8706 	strd	r8, r7, [sp, #24]
10011b0a:	4ebc      	ldr	r6, [pc, #752]	@ (10011dfc <_vfprintf_r+0x1244>)
10011b0c:	ad32      	add	r5, sp, #200	@ 0xc8
10011b0e:	f04f 0e05 	mov.w	lr, #5
10011b12:	1899      	adds	r1, r3, r2
10011b14:	f141 0100 	adc.w	r1, r1, #0
10011b18:	fba6 0701 	umull	r0, r7, r6, r1
10011b1c:	f027 0003 	bic.w	r0, r7, #3
10011b20:	eb00 0097 	add.w	r0, r0, r7, lsr #2
10011b24:	1a09      	subs	r1, r1, r0
10011b26:	1a58      	subs	r0, r3, r1
10011b28:	4698      	mov	r8, r3
10011b2a:	4694      	mov	ip, r2
10011b2c:	f162 0300 	sbc.w	r3, r2, #0
10011b30:	f04f 32cc 	mov.w	r2, #3435973836	@ 0xcccccccc
10011b34:	fb02 f200 	mul.w	r2, r2, r0
10011b38:	fb06 2203 	mla	r2, r6, r3, r2
10011b3c:	fba0 3006 	umull	r3, r0, r0, r6
10011b40:	f003 0701 	and.w	r7, r3, #1
10011b44:	4402      	add	r2, r0
10011b46:	fba7 070e 	umull	r0, r7, r7, lr
10011b4a:	1840      	adds	r0, r0, r1
10011b4c:	f1b8 0f0a 	cmp.w	r8, #10
10011b50:	ea4f 0353 	mov.w	r3, r3, lsr #1
10011b54:	f100 0030 	add.w	r0, r0, #48	@ 0x30
10011b58:	f17c 0c00 	sbcs.w	ip, ip, #0
10011b5c:	ea43 73c2 	orr.w	r3, r3, r2, lsl #31
10011b60:	f805 0d01 	strb.w	r0, [r5, #-1]!
10011b64:	ea4f 0252 	mov.w	r2, r2, lsr #1
10011b68:	d2d3      	bcs.n	10011b12 <_vfprintf_r+0xf5a>
10011b6a:	e9dd 8706 	ldrd	r8, r7, [sp, #24]
10011b6e:	ab32      	add	r3, sp, #200	@ 0xc8
10011b70:	1b5b      	subs	r3, r3, r5
10011b72:	9706      	str	r7, [sp, #24]
10011b74:	930b      	str	r3, [sp, #44]	@ 0x2c
10011b76:	f7ff b996 	b.w	10010ea6 <_vfprintf_r+0x2ee>
10011b7a:	9908      	ldr	r1, [sp, #32]
10011b7c:	980c      	ldr	r0, [sp, #48]	@ 0x30
10011b7e:	9317      	str	r3, [sp, #92]	@ 0x5c
10011b80:	aa25      	add	r2, sp, #148	@ 0x94
10011b82:	f003 fad7 	bl	10015134 <__sprint_r>
10011b86:	2800      	cmp	r0, #0
10011b88:	f47f a9c1 	bne.w	10010f0e <_vfprintf_r+0x356>
10011b8c:	9c27      	ldr	r4, [sp, #156]	@ 0x9c
10011b8e:	9b17      	ldr	r3, [sp, #92]	@ 0x5c
10011b90:	f10d 0ac8 	add.w	sl, sp, #200	@ 0xc8
10011b94:	f7ff b9e2 	b.w	10010f5c <_vfprintf_r+0x3a4>
10011b98:	9b26      	ldr	r3, [sp, #152]	@ 0x98
10011b9a:	4a99      	ldr	r2, [pc, #612]	@ (10011e00 <_vfprintf_r+0x1248>)
10011b9c:	f8ca 2000 	str.w	r2, [sl]
10011ba0:	3301      	adds	r3, #1
10011ba2:	3401      	adds	r4, #1
10011ba4:	2201      	movs	r2, #1
10011ba6:	2b07      	cmp	r3, #7
10011ba8:	9427      	str	r4, [sp, #156]	@ 0x9c
10011baa:	9326      	str	r3, [sp, #152]	@ 0x98
10011bac:	f8ca 2004 	str.w	r2, [sl, #4]
10011bb0:	f300 80a9 	bgt.w	10011d06 <_vfprintf_r+0x114e>
10011bb4:	f10a 0a08 	add.w	sl, sl, #8
10011bb8:	2900      	cmp	r1, #0
10011bba:	d14f      	bne.n	10011c5c <_vfprintf_r+0x10a4>
10011bbc:	9b06      	ldr	r3, [sp, #24]
10011bbe:	9a12      	ldr	r2, [sp, #72]	@ 0x48
10011bc0:	f003 0301 	and.w	r3, r3, #1
10011bc4:	4313      	orrs	r3, r2
10011bc6:	f43f aa0d 	beq.w	10010fe4 <_vfprintf_r+0x42c>
10011bca:	9b13      	ldr	r3, [sp, #76]	@ 0x4c
10011bcc:	9914      	ldr	r1, [sp, #80]	@ 0x50
10011bce:	191a      	adds	r2, r3, r4
10011bd0:	e9ca 1300 	strd	r1, r3, [sl]
10011bd4:	9b26      	ldr	r3, [sp, #152]	@ 0x98
10011bd6:	9227      	str	r2, [sp, #156]	@ 0x9c
10011bd8:	3301      	adds	r3, #1
10011bda:	2b07      	cmp	r3, #7
10011bdc:	9326      	str	r3, [sp, #152]	@ 0x98
10011bde:	f300 80d4 	bgt.w	10011d8a <_vfprintf_r+0x11d2>
10011be2:	f10a 0a08 	add.w	sl, sl, #8
10011be6:	9912      	ldr	r1, [sp, #72]	@ 0x48
10011be8:	f8ca 5000 	str.w	r5, [sl]
10011bec:	3301      	adds	r3, #1
10011bee:	188c      	adds	r4, r1, r2
10011bf0:	2b07      	cmp	r3, #7
10011bf2:	e9cd 3426 	strd	r3, r4, [sp, #152]	@ 0x98
10011bf6:	f8ca 1004 	str.w	r1, [sl, #4]
10011bfa:	f77f a9f1 	ble.w	10010fe0 <_vfprintf_r+0x428>
10011bfe:	e451      	b.n	100114a4 <_vfprintf_r+0x8ec>
10011c00:	9908      	ldr	r1, [sp, #32]
10011c02:	980c      	ldr	r0, [sp, #48]	@ 0x30
10011c04:	aa25      	add	r2, sp, #148	@ 0x94
10011c06:	f003 fa95 	bl	10015134 <__sprint_r>
10011c0a:	2800      	cmp	r0, #0
10011c0c:	f47f a97f 	bne.w	10010f0e <_vfprintf_r+0x356>
10011c10:	9c27      	ldr	r4, [sp, #156]	@ 0x9c
10011c12:	f10d 0ac8 	add.w	sl, sp, #200	@ 0xc8
10011c16:	f7ff bb49 	b.w	100112ac <_vfprintf_r+0x6f4>
10011c1a:	980c      	ldr	r0, [sp, #48]	@ 0x30
10011c1c:	f7fe fd38 	bl	10010690 <__sinit>
10011c20:	f7fe bfe0 	b.w	10010be4 <_vfprintf_r+0x2c>
10011c24:	9908      	ldr	r1, [sp, #32]
10011c26:	980c      	ldr	r0, [sp, #48]	@ 0x30
10011c28:	aa25      	add	r2, sp, #148	@ 0x94
10011c2a:	f003 fa83 	bl	10015134 <__sprint_r>
10011c2e:	2800      	cmp	r0, #0
10011c30:	f47f a96d 	bne.w	10010f0e <_vfprintf_r+0x356>
10011c34:	9c27      	ldr	r4, [sp, #156]	@ 0x9c
10011c36:	f10d 0ac8 	add.w	sl, sp, #200	@ 0xc8
10011c3a:	f7ff b9ba 	b.w	10010fb2 <_vfprintf_r+0x3fa>
10011c3e:	4628      	mov	r0, r5
10011c40:	f7fe f87e 	bl	1000fd40 <strlen>
10011c44:	ea20 73e0 	bic.w	r3, r0, r0, asr #31
10011c48:	940d      	str	r4, [sp, #52]	@ 0x34
10011c4a:	900b      	str	r0, [sp, #44]	@ 0x2c
10011c4c:	f89d 4077 	ldrb.w	r4, [sp, #119]	@ 0x77
10011c50:	9706      	str	r7, [sp, #24]
10011c52:	46b1      	mov	r9, r6
10011c54:	9307      	str	r3, [sp, #28]
10011c56:	960f      	str	r6, [sp, #60]	@ 0x3c
10011c58:	f7ff b92c 	b.w	10010eb4 <_vfprintf_r+0x2fc>
10011c5c:	9b13      	ldr	r3, [sp, #76]	@ 0x4c
10011c5e:	9814      	ldr	r0, [sp, #80]	@ 0x50
10011c60:	191a      	adds	r2, r3, r4
10011c62:	e9ca 0300 	strd	r0, r3, [sl]
10011c66:	9b26      	ldr	r3, [sp, #152]	@ 0x98
10011c68:	9227      	str	r2, [sp, #156]	@ 0x9c
10011c6a:	3301      	adds	r3, #1
10011c6c:	2b07      	cmp	r3, #7
10011c6e:	9326      	str	r3, [sp, #152]	@ 0x98
10011c70:	f300 808b 	bgt.w	10011d8a <_vfprintf_r+0x11d2>
10011c74:	f10a 0a08 	add.w	sl, sl, #8
10011c78:	2900      	cmp	r1, #0
10011c7a:	dab4      	bge.n	10011be6 <_vfprintf_r+0x102e>
10011c7c:	424e      	negs	r6, r1
10011c7e:	3110      	adds	r1, #16
10011c80:	4f60      	ldr	r7, [pc, #384]	@ (10011e04 <_vfprintf_r+0x124c>)
10011c82:	f280 8117 	bge.w	10011eb4 <_vfprintf_r+0x12fc>
10011c86:	f8dd 8030 	ldr.w	r8, [sp, #48]	@ 0x30
10011c8a:	f8dd 9020 	ldr.w	r9, [sp, #32]
10011c8e:	2410      	movs	r4, #16
10011c90:	e005      	b.n	10011c9e <_vfprintf_r+0x10e6>
10011c92:	f10a 0a08 	add.w	sl, sl, #8
10011c96:	3e10      	subs	r6, #16
10011c98:	2e10      	cmp	r6, #16
10011c9a:	f340 810b 	ble.w	10011eb4 <_vfprintf_r+0x12fc>
10011c9e:	3301      	adds	r3, #1
10011ca0:	3210      	adds	r2, #16
10011ca2:	2b07      	cmp	r3, #7
10011ca4:	e9ca 7400 	strd	r7, r4, [sl]
10011ca8:	e9cd 3226 	strd	r3, r2, [sp, #152]	@ 0x98
10011cac:	ddf1      	ble.n	10011c92 <_vfprintf_r+0x10da>
10011cae:	aa25      	add	r2, sp, #148	@ 0x94
10011cb0:	4649      	mov	r1, r9
10011cb2:	4640      	mov	r0, r8
10011cb4:	f003 fa3e 	bl	10015134 <__sprint_r>
10011cb8:	2800      	cmp	r0, #0
10011cba:	f47f a928 	bne.w	10010f0e <_vfprintf_r+0x356>
10011cbe:	e9dd 3226 	ldrd	r3, r2, [sp, #152]	@ 0x98
10011cc2:	f10d 0ac8 	add.w	sl, sp, #200	@ 0xc8
10011cc6:	e7e6      	b.n	10011c96 <_vfprintf_r+0x10de>
10011cc8:	3601      	adds	r6, #1
10011cca:	444c      	add	r4, r9
10011ccc:	2e07      	cmp	r6, #7
10011cce:	e9cd 6426 	strd	r6, r4, [sp, #152]	@ 0x98
10011cd2:	f8c8 7000 	str.w	r7, [r8]
10011cd6:	f8c8 9004 	str.w	r9, [r8, #4]
10011cda:	f77f ac29 	ble.w	10011530 <_vfprintf_r+0x978>
10011cde:	e544      	b.n	1001176a <_vfprintf_r+0xbb2>
10011ce0:	4614      	mov	r4, r2
10011ce2:	3301      	adds	r3, #1
10011ce4:	4434      	add	r4, r6
10011ce6:	2b07      	cmp	r3, #7
10011ce8:	e9cd 3426 	strd	r3, r4, [sp, #152]	@ 0x98
10011cec:	f8ca 7000 	str.w	r7, [sl]
10011cf0:	f8ca 6004 	str.w	r6, [sl, #4]
10011cf4:	dc57      	bgt.n	10011da6 <_vfprintf_r+0x11ee>
10011cf6:	f10a 0a08 	add.w	sl, sl, #8
10011cfa:	e4da      	b.n	100116b2 <_vfprintf_r+0xafa>
10011cfc:	242d      	movs	r4, #45	@ 0x2d
10011cfe:	f88d 4077 	strb.w	r4, [sp, #119]	@ 0x77
10011d02:	f7ff b9b4 	b.w	1001106e <_vfprintf_r+0x4b6>
10011d06:	9908      	ldr	r1, [sp, #32]
10011d08:	980c      	ldr	r0, [sp, #48]	@ 0x30
10011d0a:	aa25      	add	r2, sp, #148	@ 0x94
10011d0c:	f003 fa12 	bl	10015134 <__sprint_r>
10011d10:	2800      	cmp	r0, #0
10011d12:	f47f a8fc 	bne.w	10010f0e <_vfprintf_r+0x356>
10011d16:	991f      	ldr	r1, [sp, #124]	@ 0x7c
10011d18:	9c27      	ldr	r4, [sp, #156]	@ 0x9c
10011d1a:	f10d 0ac8 	add.w	sl, sp, #200	@ 0xc8
10011d1e:	e74b      	b.n	10011bb8 <_vfprintf_r+0x1000>
10011d20:	9a1f      	ldr	r2, [sp, #124]	@ 0x7c
10011d22:	920f      	str	r2, [sp, #60]	@ 0x3c
10011d24:	4623      	mov	r3, r4
10011d26:	e5d5      	b.n	100118d4 <_vfprintf_r+0xd1c>
10011d28:	9908      	ldr	r1, [sp, #32]
10011d2a:	980c      	ldr	r0, [sp, #48]	@ 0x30
10011d2c:	aa25      	add	r2, sp, #148	@ 0x94
10011d2e:	f003 fa01 	bl	10015134 <__sprint_r>
10011d32:	f7ff b8ec 	b.w	10010f0e <_vfprintf_r+0x356>
10011d36:	f10d 0493 	add.w	r4, sp, #147	@ 0x93
10011d3a:	4e30      	ldr	r6, [pc, #192]	@ (10011dfc <_vfprintf_r+0x1244>)
10011d3c:	4623      	mov	r3, r4
10011d3e:	4618      	mov	r0, r3
10011d40:	fba6 2301 	umull	r2, r3, r6, r1
10011d44:	08db      	lsrs	r3, r3, #3
10011d46:	eb03 0283 	add.w	r2, r3, r3, lsl #2
10011d4a:	eba1 0242 	sub.w	r2, r1, r2, lsl #1
10011d4e:	3230      	adds	r2, #48	@ 0x30
10011d50:	f800 2c01 	strb.w	r2, [r0, #-1]
10011d54:	460a      	mov	r2, r1
10011d56:	2a63      	cmp	r2, #99	@ 0x63
10011d58:	4619      	mov	r1, r3
10011d5a:	f100 33ff 	add.w	r3, r0, #4294967295	@ 0xffffffff
10011d5e:	dcee      	bgt.n	10011d3e <_vfprintf_r+0x1186>
10011d60:	3130      	adds	r1, #48	@ 0x30
10011d62:	f803 1c01 	strb.w	r1, [r3, #-1]
10011d66:	1e83      	subs	r3, r0, #2
10011d68:	42a3      	cmp	r3, r4
10011d6a:	f080 8122 	bcs.w	10011fb2 <_vfprintf_r+0x13fa>
10011d6e:	f10d 0285 	add.w	r2, sp, #133	@ 0x85
10011d72:	f813 1b01 	ldrb.w	r1, [r3], #1
10011d76:	f802 1f01 	strb.w	r1, [r2, #1]!
10011d7a:	42a3      	cmp	r3, r4
10011d7c:	d1f9      	bne.n	10011d72 <_vfprintf_r+0x11ba>
10011d7e:	ab42      	add	r3, sp, #264	@ 0x108
10011d80:	1a18      	subs	r0, r3, r0
10011d82:	f1a0 0371 	sub.w	r3, r0, #113	@ 0x71
10011d86:	9316      	str	r3, [sp, #88]	@ 0x58
10011d88:	e681      	b.n	10011a8e <_vfprintf_r+0xed6>
10011d8a:	9908      	ldr	r1, [sp, #32]
10011d8c:	980c      	ldr	r0, [sp, #48]	@ 0x30
10011d8e:	aa25      	add	r2, sp, #148	@ 0x94
10011d90:	f003 f9d0 	bl	10015134 <__sprint_r>
10011d94:	2800      	cmp	r0, #0
10011d96:	f47f a8ba 	bne.w	10010f0e <_vfprintf_r+0x356>
10011d9a:	e9dd 3226 	ldrd	r3, r2, [sp, #152]	@ 0x98
10011d9e:	991f      	ldr	r1, [sp, #124]	@ 0x7c
10011da0:	f10d 0ac8 	add.w	sl, sp, #200	@ 0xc8
10011da4:	e768      	b.n	10011c78 <_vfprintf_r+0x10c0>
10011da6:	9908      	ldr	r1, [sp, #32]
10011da8:	980c      	ldr	r0, [sp, #48]	@ 0x30
10011daa:	aa25      	add	r2, sp, #148	@ 0x94
10011dac:	f003 f9c2 	bl	10015134 <__sprint_r>
10011db0:	2800      	cmp	r0, #0
10011db2:	f47f a8ac 	bne.w	10010f0e <_vfprintf_r+0x356>
10011db6:	9c27      	ldr	r4, [sp, #156]	@ 0x9c
10011db8:	f10d 0ac8 	add.w	sl, sp, #200	@ 0xc8
10011dbc:	e479      	b.n	100116b2 <_vfprintf_r+0xafa>
10011dbe:	f109 0301 	add.w	r3, r9, #1
10011dc2:	9307      	str	r3, [sp, #28]
10011dc4:	2302      	movs	r3, #2
10011dc6:	9300      	str	r3, [sp, #0]
10011dc8:	ab23      	add	r3, sp, #140	@ 0x8c
10011dca:	9304      	str	r3, [sp, #16]
10011dcc:	ab20      	add	r3, sp, #128	@ 0x80
10011dce:	9c07      	ldr	r4, [sp, #28]
10011dd0:	9303      	str	r3, [sp, #12]
10011dd2:	ab1f      	add	r3, sp, #124	@ 0x7c
10011dd4:	9401      	str	r4, [sp, #4]
10011dd6:	9302      	str	r3, [sp, #8]
10011dd8:	980c      	ldr	r0, [sp, #48]	@ 0x30
10011dda:	e9dd 231a 	ldrd	r2, r3, [sp, #104]	@ 0x68
10011dde:	f001 ff41 	bl	10013c64 <_dtoa_r>
10011de2:	f1b8 0f66 	cmp.w	r8, #102	@ 0x66
10011de6:	4605      	mov	r5, r0
10011de8:	4404      	add	r4, r0
10011dea:	f47f ad5e 	bne.w	100118aa <_vfprintf_r+0xcf2>
10011dee:	782b      	ldrb	r3, [r5, #0]
10011df0:	2b30      	cmp	r3, #48	@ 0x30
10011df2:	f000 808d 	beq.w	10011f10 <_vfprintf_r+0x1358>
10011df6:	9b1f      	ldr	r3, [sp, #124]	@ 0x7c
10011df8:	441c      	add	r4, r3
10011dfa:	e556      	b.n	100118aa <_vfprintf_r+0xcf2>
10011dfc:	cccccccd 	.word	0xcccccccd
10011e00:	10017c1c 	.word	0x10017c1c
10011e04:	10017e70 	.word	0x10017e70
10011e08:	f8dd 9038 	ldr.w	r9, [sp, #56]	@ 0x38
10011e0c:	f89d 4077 	ldrb.w	r4, [sp, #119]	@ 0x77
10011e10:	f7ff b850 	b.w	10010eb4 <_vfprintf_r+0x2fc>
10011e14:	f102 4300 	add.w	r3, r2, #2147483648	@ 0x80000000
10011e18:	931b      	str	r3, [sp, #108]	@ 0x6c
10011e1a:	232d      	movs	r3, #45	@ 0x2d
10011e1c:	911a      	str	r1, [sp, #104]	@ 0x68
10011e1e:	930e      	str	r3, [sp, #56]	@ 0x38
10011e20:	e524      	b.n	1001186c <_vfprintf_r+0xcb4>
10011e22:	9908      	ldr	r1, [sp, #32]
10011e24:	980c      	ldr	r0, [sp, #48]	@ 0x30
10011e26:	aa25      	add	r2, sp, #148	@ 0x94
10011e28:	f003 f984 	bl	10015134 <__sprint_r>
10011e2c:	2800      	cmp	r0, #0
10011e2e:	f47f a86e 	bne.w	10010f0e <_vfprintf_r+0x356>
10011e32:	9b1f      	ldr	r3, [sp, #124]	@ 0x7c
10011e34:	9c27      	ldr	r4, [sp, #156]	@ 0x9c
10011e36:	f10d 0ac8 	add.w	sl, sp, #200	@ 0xc8
10011e3a:	e443      	b.n	100116c4 <_vfprintf_r+0xb0c>
10011e3c:	f1b8 0f66 	cmp.w	r8, #102	@ 0x66
10011e40:	f47f ad1e 	bne.w	10011880 <_vfprintf_r+0xcc8>
10011e44:	f8cd 901c 	str.w	r9, [sp, #28]
10011e48:	2303      	movs	r3, #3
10011e4a:	e7bc      	b.n	10011dc6 <_vfprintf_r+0x120e>
10011e4c:	9908      	ldr	r1, [sp, #32]
10011e4e:	980c      	ldr	r0, [sp, #48]	@ 0x30
10011e50:	aa25      	add	r2, sp, #148	@ 0x94
10011e52:	f003 f96f 	bl	10015134 <__sprint_r>
10011e56:	2800      	cmp	r0, #0
10011e58:	f47f a859 	bne.w	10010f0e <_vfprintf_r+0x356>
10011e5c:	9c27      	ldr	r4, [sp, #156]	@ 0x9c
10011e5e:	f10d 0ac8 	add.w	sl, sp, #200	@ 0xc8
10011e62:	e41f      	b.n	100116a4 <_vfprintf_r+0xaec>
10011e64:	9908      	ldr	r1, [sp, #32]
10011e66:	980c      	ldr	r0, [sp, #48]	@ 0x30
10011e68:	aa25      	add	r2, sp, #148	@ 0x94
10011e6a:	f003 f963 	bl	10015134 <__sprint_r>
10011e6e:	2800      	cmp	r0, #0
10011e70:	f47f a84d 	bne.w	10010f0e <_vfprintf_r+0x356>
10011e74:	9b1f      	ldr	r3, [sp, #124]	@ 0x7c
10011e76:	9a12      	ldr	r2, [sp, #72]	@ 0x48
10011e78:	9c27      	ldr	r4, [sp, #156]	@ 0x9c
10011e7a:	1ad3      	subs	r3, r2, r3
10011e7c:	f10d 0ac8 	add.w	sl, sp, #200	@ 0xc8
10011e80:	e438      	b.n	100116f4 <_vfprintf_r+0xb3c>
10011e82:	f04f 0906 	mov.w	r9, #6
10011e86:	e4e3      	b.n	10011850 <_vfprintf_r+0xc98>
10011e88:	f04f 33ff 	mov.w	r3, #4294967295	@ 0xffffffff
10011e8c:	930a      	str	r3, [sp, #40]	@ 0x28
10011e8e:	f7ff b843 	b.w	10010f18 <_vfprintf_r+0x360>
10011e92:	940d      	str	r4, [sp, #52]	@ 0x34
10011e94:	f8cd 901c 	str.w	r9, [sp, #28]
10011e98:	f8cd 902c 	str.w	r9, [sp, #44]	@ 0x2c
10011e9c:	f89d 4077 	ldrb.w	r4, [sp, #119]	@ 0x77
10011ea0:	9706      	str	r7, [sp, #24]
10011ea2:	4681      	mov	r9, r0
10011ea4:	900f      	str	r0, [sp, #60]	@ 0x3c
10011ea6:	f7ff b805 	b.w	10010eb4 <_vfprintf_r+0x2fc>
10011eaa:	4693      	mov	fp, r2
10011eac:	f04f 0900 	mov.w	r9, #0
10011eb0:	f7fe bee9 	b.w	10010c86 <_vfprintf_r+0xce>
10011eb4:	3301      	adds	r3, #1
10011eb6:	4432      	add	r2, r6
10011eb8:	2b07      	cmp	r3, #7
10011eba:	e9cd 3226 	strd	r3, r2, [sp, #152]	@ 0x98
10011ebe:	f8ca 7000 	str.w	r7, [sl]
10011ec2:	f8ca 6004 	str.w	r6, [sl, #4]
10011ec6:	f77f ae8c 	ble.w	10011be2 <_vfprintf_r+0x102a>
10011eca:	9908      	ldr	r1, [sp, #32]
10011ecc:	980c      	ldr	r0, [sp, #48]	@ 0x30
10011ece:	aa25      	add	r2, sp, #148	@ 0x94
10011ed0:	f003 f930 	bl	10015134 <__sprint_r>
10011ed4:	2800      	cmp	r0, #0
10011ed6:	f47f a81a 	bne.w	10010f0e <_vfprintf_r+0x356>
10011eda:	e9dd 3226 	ldrd	r3, r2, [sp, #152]	@ 0x98
10011ede:	f10d 0ac8 	add.w	sl, sp, #200	@ 0xc8
10011ee2:	e680      	b.n	10011be6 <_vfprintf_r+0x102e>
10011ee4:	f017 0201 	ands.w	r2, r7, #1
10011ee8:	920f      	str	r2, [sp, #60]	@ 0x3c
10011eea:	f47f add7 	bne.w	10011a9c <_vfprintf_r+0xee4>
10011eee:	ea23 73e3 	bic.w	r3, r3, r3, asr #31
10011ef2:	9307      	str	r3, [sp, #28]
10011ef4:	e507      	b.n	10011906 <_vfprintf_r+0xd4e>
10011ef6:	e9dd 3212 	ldrd	r3, r2, [sp, #72]	@ 0x48
10011efa:	4413      	add	r3, r2
10011efc:	9a0f      	ldr	r2, [sp, #60]	@ 0x3c
10011efe:	930b      	str	r3, [sp, #44]	@ 0x2c
10011f00:	2a00      	cmp	r2, #0
10011f02:	dd2d      	ble.n	10011f60 <_vfprintf_r+0x13a8>
10011f04:	ea23 73e3 	bic.w	r3, r3, r3, asr #31
10011f08:	9307      	str	r3, [sp, #28]
10011f0a:	f04f 0867 	mov.w	r8, #103	@ 0x67
10011f0e:	e4fa      	b.n	10011906 <_vfprintf_r+0xd4e>
10011f10:	e9dd 011a 	ldrd	r0, r1, [sp, #104]	@ 0x68
10011f14:	2200      	movs	r2, #0
10011f16:	2300      	movs	r3, #0
10011f18:	f005 fb9a 	bl	10017650 <__aeabi_dcmpeq>
10011f1c:	2800      	cmp	r0, #0
10011f1e:	d037      	beq.n	10011f90 <_vfprintf_r+0x13d8>
10011f20:	9b1f      	ldr	r3, [sp, #124]	@ 0x7c
10011f22:	930f      	str	r3, [sp, #60]	@ 0x3c
10011f24:	441c      	add	r4, r3
10011f26:	1b63      	subs	r3, r4, r5
10011f28:	9312      	str	r3, [sp, #72]	@ 0x48
10011f2a:	e4dc      	b.n	100118e6 <_vfprintf_r+0xd2e>
10011f2c:	9b11      	ldr	r3, [sp, #68]	@ 0x44
10011f2e:	4d2c      	ldr	r5, [pc, #176]	@ (10011fe0 <_vfprintf_r+0x1428>)
10011f30:	2b00      	cmp	r3, #0
10011f32:	bfb8      	it	lt
10011f34:	242d      	movlt	r4, #45	@ 0x2d
10011f36:	f027 0380 	bic.w	r3, r7, #128	@ 0x80
10011f3a:	9306      	str	r3, [sp, #24]
10011f3c:	bfa8      	it	ge
10011f3e:	f89d 4077 	ldrbge.w	r4, [sp, #119]	@ 0x77
10011f42:	4b28      	ldr	r3, [pc, #160]	@ (10011fe4 <_vfprintf_r+0x142c>)
10011f44:	bfb8      	it	lt
10011f46:	f88d 4077 	strblt.w	r4, [sp, #119]	@ 0x77
10011f4a:	f7ff b895 	b.w	10011078 <_vfprintf_r+0x4c0>
10011f4e:	9a13      	ldr	r2, [sp, #76]	@ 0x4c
10011f50:	4413      	add	r3, r2
10011f52:	930b      	str	r3, [sp, #44]	@ 0x2c
10011f54:	ea23 73e3 	bic.w	r3, r3, r3, asr #31
10011f58:	9307      	str	r3, [sp, #28]
10011f5a:	f04f 0867 	mov.w	r8, #103	@ 0x67
10011f5e:	e4d2      	b.n	10011906 <_vfprintf_r+0xd4e>
10011f60:	9b0f      	ldr	r3, [sp, #60]	@ 0x3c
10011f62:	9a0b      	ldr	r2, [sp, #44]	@ 0x2c
10011f64:	f1c3 0301 	rsb	r3, r3, #1
10011f68:	441a      	add	r2, r3
10011f6a:	ea22 73e2 	bic.w	r3, r2, r2, asr #31
10011f6e:	920b      	str	r2, [sp, #44]	@ 0x2c
10011f70:	9307      	str	r3, [sp, #28]
10011f72:	f04f 0867 	mov.w	r8, #103	@ 0x67
10011f76:	e4c6      	b.n	10011906 <_vfprintf_r+0xd4e>
10011f78:	9b13      	ldr	r3, [sp, #76]	@ 0x4c
10011f7a:	eb09 0803 	add.w	r8, r9, r3
10011f7e:	eb08 0302 	add.w	r3, r8, r2
10011f82:	930b      	str	r3, [sp, #44]	@ 0x2c
10011f84:	ea23 73e3 	bic.w	r3, r3, r3, asr #31
10011f88:	9307      	str	r3, [sp, #28]
10011f8a:	f04f 0866 	mov.w	r8, #102	@ 0x66
10011f8e:	e4ba      	b.n	10011906 <_vfprintf_r+0xd4e>
10011f90:	9b07      	ldr	r3, [sp, #28]
10011f92:	f1c3 0301 	rsb	r3, r3, #1
10011f96:	931f      	str	r3, [sp, #124]	@ 0x7c
10011f98:	441c      	add	r4, r3
10011f9a:	e486      	b.n	100118aa <_vfprintf_r+0xcf2>
10011f9c:	990d      	ldr	r1, [sp, #52]	@ 0x34
10011f9e:	f89b 3001 	ldrb.w	r3, [fp, #1]
10011fa2:	f851 9b04 	ldr.w	r9, [r1], #4
10011fa6:	910d      	str	r1, [sp, #52]	@ 0x34
10011fa8:	4693      	mov	fp, r2
10011faa:	ea49 79e9 	orr.w	r9, r9, r9, asr #31
10011fae:	f7fe be67 	b.w	10010c80 <_vfprintf_r+0xc8>
10011fb2:	2302      	movs	r3, #2
10011fb4:	9316      	str	r3, [sp, #88]	@ 0x58
10011fb6:	e56a      	b.n	10011a8e <_vfprintf_r+0xed6>
10011fb8:	b92b      	cbnz	r3, 10011fc6 <_vfprintf_r+0x140e>
10011fba:	2301      	movs	r3, #1
10011fbc:	9307      	str	r3, [sp, #28]
10011fbe:	f04f 0866 	mov.w	r8, #102	@ 0x66
10011fc2:	930b      	str	r3, [sp, #44]	@ 0x2c
10011fc4:	e49f      	b.n	10011906 <_vfprintf_r+0xd4e>
10011fc6:	9b13      	ldr	r3, [sp, #76]	@ 0x4c
10011fc8:	f103 0801 	add.w	r8, r3, #1
10011fcc:	eb08 0309 	add.w	r3, r8, r9
10011fd0:	930b      	str	r3, [sp, #44]	@ 0x2c
10011fd2:	ea23 73e3 	bic.w	r3, r3, r3, asr #31
10011fd6:	9307      	str	r3, [sp, #28]
10011fd8:	f04f 0866 	mov.w	r8, #102	@ 0x66
10011fdc:	e493      	b.n	10011906 <_vfprintf_r+0xd4e>
10011fde:	bf00      	nop
10011fe0:	10017be8 	.word	0x10017be8
10011fe4:	10017be4 	.word	0x10017be4

10011fe8 <vfprintf>:
10011fe8:	b410      	push	{r4}
10011fea:	4c04      	ldr	r4, [pc, #16]	@ (10011ffc <vfprintf+0x14>)
10011fec:	4684      	mov	ip, r0
10011fee:	4613      	mov	r3, r2
10011ff0:	6820      	ldr	r0, [r4, #0]
10011ff2:	bc10      	pop	{r4}
10011ff4:	460a      	mov	r2, r1
10011ff6:	4661      	mov	r1, ip
10011ff8:	f7fe bdde 	b.w	10010bb8 <_vfprintf_r>
10011ffc:	20000010 	.word	0x20000010

10012000 <__sbprintf>:
10012000:	b570      	push	{r4, r5, r6, lr}
10012002:	460c      	mov	r4, r1
10012004:	8989      	ldrh	r1, [r1, #12]
10012006:	f5ad 6d8d 	sub.w	sp, sp, #1128	@ 0x468
1001200a:	f021 0102 	bic.w	r1, r1, #2
1001200e:	f8ad 100c 	strh.w	r1, [sp, #12]
10012012:	a91a      	add	r1, sp, #104	@ 0x68
10012014:	9100      	str	r1, [sp, #0]
10012016:	9104      	str	r1, [sp, #16]
10012018:	f44f 6180 	mov.w	r1, #1024	@ 0x400
1001201c:	9102      	str	r1, [sp, #8]
1001201e:	9105      	str	r1, [sp, #20]
10012020:	6e61      	ldr	r1, [r4, #100]	@ 0x64
10012022:	9119      	str	r1, [sp, #100]	@ 0x64
10012024:	89e1      	ldrh	r1, [r4, #14]
10012026:	f8ad 100e 	strh.w	r1, [sp, #14]
1001202a:	69e1      	ldr	r1, [r4, #28]
1001202c:	9107      	str	r1, [sp, #28]
1001202e:	6a61      	ldr	r1, [r4, #36]	@ 0x24
10012030:	9109      	str	r1, [sp, #36]	@ 0x24
10012032:	2100      	movs	r1, #0
10012034:	9106      	str	r1, [sp, #24]
10012036:	4669      	mov	r1, sp
10012038:	4606      	mov	r6, r0
1001203a:	f7fe fdbd 	bl	10010bb8 <_vfprintf_r>
1001203e:	1e05      	subs	r5, r0, #0
10012040:	db07      	blt.n	10012052 <__sbprintf+0x52>
10012042:	4669      	mov	r1, sp
10012044:	4630      	mov	r0, r6
10012046:	f7fd ffcd 	bl	1000ffe4 <_fflush_r>
1001204a:	2800      	cmp	r0, #0
1001204c:	bf18      	it	ne
1001204e:	f04f 35ff 	movne.w	r5, #4294967295	@ 0xffffffff
10012052:	f8bd 300c 	ldrh.w	r3, [sp, #12]
10012056:	065b      	lsls	r3, r3, #25
10012058:	d503      	bpl.n	10012062 <__sbprintf+0x62>
1001205a:	89a3      	ldrh	r3, [r4, #12]
1001205c:	f043 0340 	orr.w	r3, r3, #64	@ 0x40
10012060:	81a3      	strh	r3, [r4, #12]
10012062:	4628      	mov	r0, r5
10012064:	f50d 6d8d 	add.w	sp, sp, #1128	@ 0x468
10012068:	bd70      	pop	{r4, r5, r6, pc}
1001206a:	bf00      	nop
1001206c:	0000      	movs	r0, r0
	...

10012070 <memchr>:
10012070:	f001 01ff 	and.w	r1, r1, #255	@ 0xff
10012074:	2a10      	cmp	r2, #16
10012076:	db2b      	blt.n	100120d0 <memchr+0x60>
10012078:	f010 0f07 	tst.w	r0, #7
1001207c:	d008      	beq.n	10012090 <memchr+0x20>
1001207e:	f810 3b01 	ldrb.w	r3, [r0], #1
10012082:	3a01      	subs	r2, #1
10012084:	428b      	cmp	r3, r1
10012086:	d02d      	beq.n	100120e4 <memchr+0x74>
10012088:	f010 0f07 	tst.w	r0, #7
1001208c:	b342      	cbz	r2, 100120e0 <memchr+0x70>
1001208e:	d1f6      	bne.n	1001207e <memchr+0xe>
10012090:	b4f0      	push	{r4, r5, r6, r7}
10012092:	ea41 2101 	orr.w	r1, r1, r1, lsl #8
10012096:	ea41 4101 	orr.w	r1, r1, r1, lsl #16
1001209a:	f022 0407 	bic.w	r4, r2, #7
1001209e:	f07f 0700 	mvns.w	r7, #0
100120a2:	2300      	movs	r3, #0
100120a4:	e8f0 5602 	ldrd	r5, r6, [r0], #8
100120a8:	3c08      	subs	r4, #8
100120aa:	ea85 0501 	eor.w	r5, r5, r1
100120ae:	ea86 0601 	eor.w	r6, r6, r1
100120b2:	fa85 f547 	uadd8	r5, r5, r7
100120b6:	faa3 f587 	sel	r5, r3, r7
100120ba:	fa86 f647 	uadd8	r6, r6, r7
100120be:	faa5 f687 	sel	r6, r5, r7
100120c2:	b98e      	cbnz	r6, 100120e8 <memchr+0x78>
100120c4:	d1ee      	bne.n	100120a4 <memchr+0x34>
100120c6:	bcf0      	pop	{r4, r5, r6, r7}
100120c8:	f001 01ff 	and.w	r1, r1, #255	@ 0xff
100120cc:	f002 0207 	and.w	r2, r2, #7
100120d0:	b132      	cbz	r2, 100120e0 <memchr+0x70>
100120d2:	f810 3b01 	ldrb.w	r3, [r0], #1
100120d6:	3a01      	subs	r2, #1
100120d8:	ea83 0301 	eor.w	r3, r3, r1
100120dc:	b113      	cbz	r3, 100120e4 <memchr+0x74>
100120de:	d1f8      	bne.n	100120d2 <memchr+0x62>
100120e0:	2000      	movs	r0, #0
100120e2:	4770      	bx	lr
100120e4:	3801      	subs	r0, #1
100120e6:	4770      	bx	lr
100120e8:	2d00      	cmp	r5, #0
100120ea:	bf06      	itte	eq
100120ec:	4635      	moveq	r5, r6
100120ee:	3803      	subeq	r0, #3
100120f0:	3807      	subne	r0, #7
100120f2:	f015 0f01 	tst.w	r5, #1
100120f6:	d107      	bne.n	10012108 <memchr+0x98>
100120f8:	3001      	adds	r0, #1
100120fa:	f415 7f80 	tst.w	r5, #256	@ 0x100
100120fe:	bf02      	ittt	eq
10012100:	3001      	addeq	r0, #1
10012102:	f415 3fc0 	tsteq.w	r5, #98304	@ 0x18000
10012106:	3001      	addeq	r0, #1
10012108:	bcf0      	pop	{r4, r5, r6, r7}
1001210a:	3801      	subs	r0, #1
1001210c:	4770      	bx	lr
1001210e:	bf00      	nop

10012110 <_svfprintf_r>:
10012110:	e92d 4ff0 	stmdb	sp!, {r4, r5, r6, r7, r8, r9, sl, fp, lr}
10012114:	b0c3      	sub	sp, #268	@ 0x10c
10012116:	460c      	mov	r4, r1
10012118:	910b      	str	r1, [sp, #44]	@ 0x2c
1001211a:	4692      	mov	sl, r2
1001211c:	930d      	str	r3, [sp, #52]	@ 0x34
1001211e:	900c      	str	r0, [sp, #48]	@ 0x30
10012120:	f003 fd86 	bl	10015c30 <_localeconv_r>
10012124:	6803      	ldr	r3, [r0, #0]
10012126:	9314      	str	r3, [sp, #80]	@ 0x50
10012128:	4618      	mov	r0, r3
1001212a:	f7fd fe09 	bl	1000fd40 <strlen>
1001212e:	89a3      	ldrh	r3, [r4, #12]
10012130:	9013      	str	r0, [sp, #76]	@ 0x4c
10012132:	061e      	lsls	r6, r3, #24
10012134:	d503      	bpl.n	1001213e <_svfprintf_r+0x2e>
10012136:	6923      	ldr	r3, [r4, #16]
10012138:	2b00      	cmp	r3, #0
1001213a:	f000 86a1 	beq.w	10012e80 <_svfprintf_r+0xd70>
1001213e:	2300      	movs	r3, #0
10012140:	e9cd 3326 	strd	r3, r3, [sp, #152]	@ 0x98
10012144:	e9cd 3315 	strd	r3, r3, [sp, #84]	@ 0x54
10012148:	9312      	str	r3, [sp, #72]	@ 0x48
1001214a:	9309      	str	r3, [sp, #36]	@ 0x24
1001214c:	2400      	movs	r4, #0
1001214e:	2300      	movs	r3, #0
10012150:	e9cd 3410 	strd	r3, r4, [sp, #64]	@ 0x40
10012154:	aa32      	add	r2, sp, #200	@ 0xc8
10012156:	9225      	str	r2, [sp, #148]	@ 0x94
10012158:	4691      	mov	r9, r2
1001215a:	46d3      	mov	fp, sl
1001215c:	f89b 3000 	ldrb.w	r3, [fp]
10012160:	2b00      	cmp	r3, #0
10012162:	f000 813c 	beq.w	100123de <_svfprintf_r+0x2ce>
10012166:	465c      	mov	r4, fp
10012168:	e004      	b.n	10012174 <_svfprintf_r+0x64>
1001216a:	f814 3f01 	ldrb.w	r3, [r4, #1]!
1001216e:	2b00      	cmp	r3, #0
10012170:	f000 8119 	beq.w	100123a6 <_svfprintf_r+0x296>
10012174:	2b25      	cmp	r3, #37	@ 0x25
10012176:	d1f8      	bne.n	1001216a <_svfprintf_r+0x5a>
10012178:	ebb4 050b 	subs.w	r5, r4, fp
1001217c:	f040 8116 	bne.w	100123ac <_svfprintf_r+0x29c>
10012180:	7823      	ldrb	r3, [r4, #0]
10012182:	2b00      	cmp	r3, #0
10012184:	f000 812b 	beq.w	100123de <_svfprintf_r+0x2ce>
10012188:	f04f 0300 	mov.w	r3, #0
1001218c:	f88d 3077 	strb.w	r3, [sp, #119]	@ 0x77
10012190:	2700      	movs	r7, #0
10012192:	7863      	ldrb	r3, [r4, #1]
10012194:	9708      	str	r7, [sp, #32]
10012196:	f104 0b01 	add.w	fp, r4, #1
1001219a:	f04f 3aff 	mov.w	sl, #4294967295	@ 0xffffffff
1001219e:	f10b 0b01 	add.w	fp, fp, #1
100121a2:	4698      	mov	r8, r3
100121a4:	f1a8 0320 	sub.w	r3, r8, #32
100121a8:	2b58      	cmp	r3, #88	@ 0x58
100121aa:	f200 8125 	bhi.w	100123f8 <_svfprintf_r+0x2e8>
100121ae:	e8df f013 	tbh	[pc, r3, lsl #1]
100121b2:	0249      	.short	0x0249
100121b4:	01230123 	.word	0x01230123
100121b8:	01230244 	.word	0x01230244
100121bc:	01230123 	.word	0x01230123
100121c0:	01230123 	.word	0x01230123
100121c4:	020c0123 	.word	0x020c0123
100121c8:	0123023e 	.word	0x0123023e
100121cc:	021c0217 	.word	0x021c0217
100121d0:	02390123 	.word	0x02390123
100121d4:	00590059 	.word	0x00590059
100121d8:	00590059 	.word	0x00590059
100121dc:	00590059 	.word	0x00590059
100121e0:	00590059 	.word	0x00590059
100121e4:	01230059 	.word	0x01230059
100121e8:	01230123 	.word	0x01230123
100121ec:	01230123 	.word	0x01230123
100121f0:	01230123 	.word	0x01230123
100121f4:	01230123 	.word	0x01230123
100121f8:	00680123 	.word	0x00680123
100121fc:	0123019e 	.word	0x0123019e
10012200:	0123019e 	.word	0x0123019e
10012204:	01230123 	.word	0x01230123
10012208:	02740123 	.word	0x02740123
1001220c:	01230123 	.word	0x01230123
10012210:	01230095 	.word	0x01230095
10012214:	01230123 	.word	0x01230123
10012218:	01230123 	.word	0x01230123
1001221c:	012300a6 	.word	0x012300a6
10012220:	063f0123 	.word	0x063f0123
10012224:	01230123 	.word	0x01230123
10012228:	01230123 	.word	0x01230123
1001222c:	01230123 	.word	0x01230123
10012230:	01230123 	.word	0x01230123
10012234:	01230123 	.word	0x01230123
10012238:	006a0266 	.word	0x006a0266
1001223c:	019e019e 	.word	0x019e019e
10012240:	0261019e 	.word	0x0261019e
10012244:	0123006a 	.word	0x0123006a
10012248:	02540123 	.word	0x02540123
1001224c:	02b00123 	.word	0x02b00123
10012250:	029f0097 	.word	0x029f0097
10012254:	0123029a 	.word	0x0123029a
10012258:	01230279 	.word	0x01230279
1001225c:	012300a8 	.word	0x012300a8
10012260:	065f0123 	.word	0x065f0123
10012264:	f1a8 0330 	sub.w	r3, r8, #48	@ 0x30
10012268:	2200      	movs	r2, #0
1001226a:	f81b 8b01 	ldrb.w	r8, [fp], #1
1001226e:	eb02 0282 	add.w	r2, r2, r2, lsl #2
10012272:	eb03 0242 	add.w	r2, r3, r2, lsl #1
10012276:	f1a8 0330 	sub.w	r3, r8, #48	@ 0x30
1001227a:	2b09      	cmp	r3, #9
1001227c:	d9f5      	bls.n	1001226a <_svfprintf_r+0x15a>
1001227e:	9208      	str	r2, [sp, #32]
10012280:	e790      	b.n	100121a4 <_svfprintf_r+0x94>
10012282:	f047 0710 	orr.w	r7, r7, #16
10012286:	06bd      	lsls	r5, r7, #26
10012288:	f140 816e 	bpl.w	10012568 <_svfprintf_r+0x458>
1001228c:	9b0d      	ldr	r3, [sp, #52]	@ 0x34
1001228e:	3307      	adds	r3, #7
10012290:	f023 0307 	bic.w	r3, r3, #7
10012294:	461a      	mov	r2, r3
10012296:	6859      	ldr	r1, [r3, #4]
10012298:	f852 3b08 	ldr.w	r3, [r2], #8
1001229c:	920d      	str	r2, [sp, #52]	@ 0x34
1001229e:	460a      	mov	r2, r1
100122a0:	2900      	cmp	r1, #0
100122a2:	f2c0 818c 	blt.w	100125be <_svfprintf_r+0x4ae>
100122a6:	f1ba 0f00 	cmp.w	sl, #0
100122aa:	f89d 4077 	ldrb.w	r4, [sp, #119]	@ 0x77
100122ae:	db07      	blt.n	100122c0 <_svfprintf_r+0x1b0>
100122b0:	f027 0180 	bic.w	r1, r7, #128	@ 0x80
100122b4:	9106      	str	r1, [sp, #24]
100122b6:	ea53 0102 	orrs.w	r1, r3, r2
100122ba:	f000 83a8 	beq.w	10012a0e <_svfprintf_r+0x8fe>
100122be:	9f06      	ldr	r7, [sp, #24]
100122c0:	2b0a      	cmp	r3, #10
100122c2:	f172 0100 	sbcs.w	r1, r2, #0
100122c6:	f080 866f 	bcs.w	10012fa8 <_svfprintf_r+0xe98>
100122ca:	3330      	adds	r3, #48	@ 0x30
100122cc:	f88d 30c7 	strb.w	r3, [sp, #199]	@ 0xc7
100122d0:	2301      	movs	r3, #1
100122d2:	9706      	str	r7, [sp, #24]
100122d4:	930a      	str	r3, [sp, #40]	@ 0x28
100122d6:	f10d 05c7 	add.w	r5, sp, #199	@ 0xc7
100122da:	e050      	b.n	1001237e <_svfprintf_r+0x26e>
100122dc:	f047 0710 	orr.w	r7, r7, #16
100122e0:	f017 0220 	ands.w	r2, r7, #32
100122e4:	f000 8157 	beq.w	10012596 <_svfprintf_r+0x486>
100122e8:	9b0d      	ldr	r3, [sp, #52]	@ 0x34
100122ea:	3307      	adds	r3, #7
100122ec:	f023 0307 	bic.w	r3, r3, #7
100122f0:	4619      	mov	r1, r3
100122f2:	685a      	ldr	r2, [r3, #4]
100122f4:	f851 3b08 	ldr.w	r3, [r1], #8
100122f8:	910d      	str	r1, [sp, #52]	@ 0x34
100122fa:	2100      	movs	r1, #0
100122fc:	e00f      	b.n	1001231e <_svfprintf_r+0x20e>
100122fe:	f047 0710 	orr.w	r7, r7, #16
10012302:	f017 0220 	ands.w	r2, r7, #32
10012306:	f000 813c 	beq.w	10012582 <_svfprintf_r+0x472>
1001230a:	9b0d      	ldr	r3, [sp, #52]	@ 0x34
1001230c:	3307      	adds	r3, #7
1001230e:	f023 0307 	bic.w	r3, r3, #7
10012312:	4619      	mov	r1, r3
10012314:	685a      	ldr	r2, [r3, #4]
10012316:	f851 3b08 	ldr.w	r3, [r1], #8
1001231a:	910d      	str	r1, [sp, #52]	@ 0x34
1001231c:	2101      	movs	r1, #1
1001231e:	2400      	movs	r4, #0
10012320:	f1ba 0f00 	cmp.w	sl, #0
10012324:	f88d 4077 	strb.w	r4, [sp, #119]	@ 0x77
10012328:	db07      	blt.n	1001233a <_svfprintf_r+0x22a>
1001232a:	f027 0080 	bic.w	r0, r7, #128	@ 0x80
1001232e:	9006      	str	r0, [sp, #24]
10012330:	ea53 0002 	orrs.w	r0, r3, r2
10012334:	f000 836c 	beq.w	10012a10 <_svfprintf_r+0x900>
10012338:	9f06      	ldr	r7, [sp, #24]
1001233a:	2901      	cmp	r1, #1
1001233c:	d0c0      	beq.n	100122c0 <_svfprintf_r+0x1b0>
1001233e:	2902      	cmp	r1, #2
10012340:	f000 82e7 	beq.w	10012912 <_svfprintf_r+0x802>
10012344:	ad32      	add	r5, sp, #200	@ 0xc8
10012346:	f003 0107 	and.w	r1, r3, #7
1001234a:	08db      	lsrs	r3, r3, #3
1001234c:	ea43 7342 	orr.w	r3, r3, r2, lsl #29
10012350:	08d2      	lsrs	r2, r2, #3
10012352:	3130      	adds	r1, #48	@ 0x30
10012354:	ea53 0602 	orrs.w	r6, r3, r2
10012358:	4628      	mov	r0, r5
1001235a:	f805 1d01 	strb.w	r1, [r5, #-1]!
1001235e:	d1f2      	bne.n	10012346 <_svfprintf_r+0x236>
10012360:	07fb      	lsls	r3, r7, #31
10012362:	f140 82e4 	bpl.w	1001292e <_svfprintf_r+0x81e>
10012366:	2930      	cmp	r1, #48	@ 0x30
10012368:	f000 82e1 	beq.w	1001292e <_svfprintf_r+0x81e>
1001236c:	2330      	movs	r3, #48	@ 0x30
1001236e:	3802      	subs	r0, #2
10012370:	f805 3c01 	strb.w	r3, [r5, #-1]
10012374:	ab32      	add	r3, sp, #200	@ 0xc8
10012376:	1a1b      	subs	r3, r3, r0
10012378:	9706      	str	r7, [sp, #24]
1001237a:	930a      	str	r3, [sp, #40]	@ 0x28
1001237c:	4605      	mov	r5, r0
1001237e:	9b0a      	ldr	r3, [sp, #40]	@ 0x28
10012380:	4553      	cmp	r3, sl
10012382:	bfb8      	it	lt
10012384:	4653      	movlt	r3, sl
10012386:	9307      	str	r3, [sp, #28]
10012388:	2300      	movs	r3, #0
1001238a:	930f      	str	r3, [sp, #60]	@ 0x3c
1001238c:	b114      	cbz	r4, 10012394 <_svfprintf_r+0x284>
1001238e:	9b07      	ldr	r3, [sp, #28]
10012390:	3301      	adds	r3, #1
10012392:	9307      	str	r3, [sp, #28]
10012394:	9b06      	ldr	r3, [sp, #24]
10012396:	f013 0302 	ands.w	r3, r3, #2
1001239a:	d03f      	beq.n	1001241c <_svfprintf_r+0x30c>
1001239c:	9b07      	ldr	r3, [sp, #28]
1001239e:	3302      	adds	r3, #2
100123a0:	9307      	str	r3, [sp, #28]
100123a2:	2302      	movs	r3, #2
100123a4:	e03a      	b.n	1001241c <_svfprintf_r+0x30c>
100123a6:	ebb4 050b 	subs.w	r5, r4, fp
100123aa:	d018      	beq.n	100123de <_svfprintf_r+0x2ce>
100123ac:	9b27      	ldr	r3, [sp, #156]	@ 0x9c
100123ae:	442b      	add	r3, r5
100123b0:	9327      	str	r3, [sp, #156]	@ 0x9c
100123b2:	9b26      	ldr	r3, [sp, #152]	@ 0x98
100123b4:	3301      	adds	r3, #1
100123b6:	2b07      	cmp	r3, #7
100123b8:	e9c9 b500 	strd	fp, r5, [r9]
100123bc:	9326      	str	r3, [sp, #152]	@ 0x98
100123be:	dc05      	bgt.n	100123cc <_svfprintf_r+0x2bc>
100123c0:	f109 0908 	add.w	r9, r9, #8
100123c4:	9b09      	ldr	r3, [sp, #36]	@ 0x24
100123c6:	442b      	add	r3, r5
100123c8:	9309      	str	r3, [sp, #36]	@ 0x24
100123ca:	e6d9      	b.n	10012180 <_svfprintf_r+0x70>
100123cc:	e9dd 100b 	ldrd	r1, r0, [sp, #44]	@ 0x2c
100123d0:	aa25      	add	r2, sp, #148	@ 0x94
100123d2:	f002 fe71 	bl	100150b8 <__ssprint_r>
100123d6:	b930      	cbnz	r0, 100123e6 <_svfprintf_r+0x2d6>
100123d8:	f10d 09c8 	add.w	r9, sp, #200	@ 0xc8
100123dc:	e7f2      	b.n	100123c4 <_svfprintf_r+0x2b4>
100123de:	9b27      	ldr	r3, [sp, #156]	@ 0x9c
100123e0:	2b00      	cmp	r3, #0
100123e2:	f040 8746 	bne.w	10013272 <_svfprintf_r+0x1162>
100123e6:	9b0b      	ldr	r3, [sp, #44]	@ 0x2c
100123e8:	899b      	ldrh	r3, [r3, #12]
100123ea:	065b      	lsls	r3, r3, #25
100123ec:	f101 8016 	bmi.w	1001341c <_svfprintf_r+0x130c>
100123f0:	9809      	ldr	r0, [sp, #36]	@ 0x24
100123f2:	b043      	add	sp, #268	@ 0x10c
100123f4:	e8bd 8ff0 	ldmia.w	sp!, {r4, r5, r6, r7, r8, r9, sl, fp, pc}
100123f8:	f1b8 0f00 	cmp.w	r8, #0
100123fc:	d0ef      	beq.n	100123de <_svfprintf_r+0x2ce>
100123fe:	2300      	movs	r3, #0
10012400:	f88d 3077 	strb.w	r3, [sp, #119]	@ 0x77
10012404:	2301      	movs	r3, #1
10012406:	f88d 80a0 	strb.w	r8, [sp, #160]	@ 0xa0
1001240a:	9307      	str	r3, [sp, #28]
1001240c:	930a      	str	r3, [sp, #40]	@ 0x28
1001240e:	ad28      	add	r5, sp, #160	@ 0xa0
10012410:	f04f 0a00 	mov.w	sl, #0
10012414:	9706      	str	r7, [sp, #24]
10012416:	f8cd a03c 	str.w	sl, [sp, #60]	@ 0x3c
1001241a:	4653      	mov	r3, sl
1001241c:	9a06      	ldr	r2, [sp, #24]
1001241e:	9c27      	ldr	r4, [sp, #156]	@ 0x9c
10012420:	f012 0284 	ands.w	r2, r2, #132	@ 0x84
10012424:	920e      	str	r2, [sp, #56]	@ 0x38
10012426:	d105      	bne.n	10012434 <_svfprintf_r+0x324>
10012428:	e9dd 1207 	ldrd	r1, r2, [sp, #28]
1001242c:	1a56      	subs	r6, r2, r1
1001242e:	2e00      	cmp	r6, #0
10012430:	f300 8300 	bgt.w	10012a34 <_svfprintf_r+0x924>
10012434:	f89d 2077 	ldrb.w	r2, [sp, #119]	@ 0x77
10012438:	b18a      	cbz	r2, 1001245e <_svfprintf_r+0x34e>
1001243a:	9a26      	ldr	r2, [sp, #152]	@ 0x98
1001243c:	f10d 0177 	add.w	r1, sp, #119	@ 0x77
10012440:	3201      	adds	r2, #1
10012442:	3401      	adds	r4, #1
10012444:	f8c9 1000 	str.w	r1, [r9]
10012448:	2a07      	cmp	r2, #7
1001244a:	f04f 0101 	mov.w	r1, #1
1001244e:	9427      	str	r4, [sp, #156]	@ 0x9c
10012450:	9226      	str	r2, [sp, #152]	@ 0x98
10012452:	f8c9 1004 	str.w	r1, [r9, #4]
10012456:	f300 8326 	bgt.w	10012aa6 <_svfprintf_r+0x996>
1001245a:	f109 0908 	add.w	r9, r9, #8
1001245e:	b183      	cbz	r3, 10012482 <_svfprintf_r+0x372>
10012460:	9a26      	ldr	r2, [sp, #152]	@ 0x98
10012462:	a91e      	add	r1, sp, #120	@ 0x78
10012464:	3201      	adds	r2, #1
10012466:	3402      	adds	r4, #2
10012468:	f8c9 1000 	str.w	r1, [r9]
1001246c:	2a07      	cmp	r2, #7
1001246e:	f04f 0102 	mov.w	r1, #2
10012472:	9427      	str	r4, [sp, #156]	@ 0x9c
10012474:	9226      	str	r2, [sp, #152]	@ 0x98
10012476:	f8c9 1004 	str.w	r1, [r9, #4]
1001247a:	f300 8322 	bgt.w	10012ac2 <_svfprintf_r+0x9b2>
1001247e:	f109 0908 	add.w	r9, r9, #8
10012482:	9b0e      	ldr	r3, [sp, #56]	@ 0x38
10012484:	2b80      	cmp	r3, #128	@ 0x80
10012486:	f000 81b9 	beq.w	100127fc <_svfprintf_r+0x6ec>
1001248a:	9b0a      	ldr	r3, [sp, #40]	@ 0x28
1001248c:	ebaa 0603 	sub.w	r6, sl, r3
10012490:	2e00      	cmp	r6, #0
10012492:	f300 81f5 	bgt.w	10012880 <_svfprintf_r+0x770>
10012496:	9b06      	ldr	r3, [sp, #24]
10012498:	05de      	lsls	r6, r3, #23
1001249a:	f100 8147 	bmi.w	1001272c <_svfprintf_r+0x61c>
1001249e:	9b0a      	ldr	r3, [sp, #40]	@ 0x28
100124a0:	f8c9 3004 	str.w	r3, [r9, #4]
100124a4:	441c      	add	r4, r3
100124a6:	9b26      	ldr	r3, [sp, #152]	@ 0x98
100124a8:	f8c9 5000 	str.w	r5, [r9]
100124ac:	3301      	adds	r3, #1
100124ae:	2b07      	cmp	r3, #7
100124b0:	9427      	str	r4, [sp, #156]	@ 0x9c
100124b2:	9326      	str	r3, [sp, #152]	@ 0x98
100124b4:	f300 8254 	bgt.w	10012960 <_svfprintf_r+0x850>
100124b8:	f109 0908 	add.w	r9, r9, #8
100124bc:	9b06      	ldr	r3, [sp, #24]
100124be:	075a      	lsls	r2, r3, #29
100124c0:	d505      	bpl.n	100124ce <_svfprintf_r+0x3be>
100124c2:	e9dd 2307 	ldrd	r2, r3, [sp, #28]
100124c6:	1a9d      	subs	r5, r3, r2
100124c8:	2d00      	cmp	r5, #0
100124ca:	f300 8306 	bgt.w	10012ada <_svfprintf_r+0x9ca>
100124ce:	e9dd 2308 	ldrd	r2, r3, [sp, #32]
100124d2:	9907      	ldr	r1, [sp, #28]
100124d4:	428a      	cmp	r2, r1
100124d6:	bfac      	ite	ge
100124d8:	189b      	addge	r3, r3, r2
100124da:	185b      	addlt	r3, r3, r1
100124dc:	9309      	str	r3, [sp, #36]	@ 0x24
100124de:	2c00      	cmp	r4, #0
100124e0:	f040 822a 	bne.w	10012938 <_svfprintf_r+0x828>
100124e4:	2300      	movs	r3, #0
100124e6:	9326      	str	r3, [sp, #152]	@ 0x98
100124e8:	f10d 09c8 	add.w	r9, sp, #200	@ 0xc8
100124ec:	e636      	b.n	1001215c <_svfprintf_r+0x4c>
100124ee:	9b0d      	ldr	r3, [sp, #52]	@ 0x34
100124f0:	3307      	adds	r3, #7
100124f2:	f023 0307 	bic.w	r3, r3, #7
100124f6:	e8f3 4502 	ldrd	r4, r5, [r3], #8
100124fa:	930d      	str	r3, [sp, #52]	@ 0x34
100124fc:	f025 4300 	bic.w	r3, r5, #2147483648	@ 0x80000000
10012500:	9319      	str	r3, [sp, #100]	@ 0x64
10012502:	9418      	str	r4, [sp, #96]	@ 0x60
10012504:	e9dd 0118 	ldrd	r0, r1, [sp, #96]	@ 0x60
10012508:	4bb6      	ldr	r3, [pc, #728]	@ (100127e4 <_svfprintf_r+0x6d4>)
1001250a:	f04f 32ff 	mov.w	r2, #4294967295	@ 0xffffffff
1001250e:	e9cd 4510 	strd	r4, r5, [sp, #64]	@ 0x40
10012512:	f005 f8cf 	bl	100176b4 <__aeabi_dcmpun>
10012516:	2800      	cmp	r0, #0
10012518:	f040 840f 	bne.w	10012d3a <_svfprintf_r+0xc2a>
1001251c:	e9dd 0118 	ldrd	r0, r1, [sp, #96]	@ 0x60
10012520:	4bb0      	ldr	r3, [pc, #704]	@ (100127e4 <_svfprintf_r+0x6d4>)
10012522:	f04f 32ff 	mov.w	r2, #4294967295	@ 0xffffffff
10012526:	f005 f8a7 	bl	10017678 <__aeabi_dcmple>
1001252a:	2800      	cmp	r0, #0
1001252c:	f040 8405 	bne.w	10012d3a <_svfprintf_r+0xc2a>
10012530:	2200      	movs	r2, #0
10012532:	2300      	movs	r3, #0
10012534:	4620      	mov	r0, r4
10012536:	4629      	mov	r1, r5
10012538:	f005 f894 	bl	10017664 <__aeabi_dcmplt>
1001253c:	2800      	cmp	r0, #0
1001253e:	f040 8630 	bne.w	100131a2 <_svfprintf_r+0x1092>
10012542:	f89d 4077 	ldrb.w	r4, [sp, #119]	@ 0x77
10012546:	4da8      	ldr	r5, [pc, #672]	@ (100127e8 <_svfprintf_r+0x6d8>)
10012548:	f027 0380 	bic.w	r3, r7, #128	@ 0x80
1001254c:	9306      	str	r3, [sp, #24]
1001254e:	4ba7      	ldr	r3, [pc, #668]	@ (100127ec <_svfprintf_r+0x6dc>)
10012550:	f1b8 0f47 	cmp.w	r8, #71	@ 0x47
10012554:	bfd8      	it	le
10012556:	461d      	movle	r5, r3
10012558:	f04f 0a00 	mov.w	sl, #0
1001255c:	2303      	movs	r3, #3
1001255e:	9307      	str	r3, [sp, #28]
10012560:	930a      	str	r3, [sp, #40]	@ 0x28
10012562:	f8cd a03c 	str.w	sl, [sp, #60]	@ 0x3c
10012566:	e711      	b.n	1001238c <_svfprintf_r+0x27c>
10012568:	9a0d      	ldr	r2, [sp, #52]	@ 0x34
1001256a:	06fc      	lsls	r4, r7, #27
1001256c:	f852 3b04 	ldr.w	r3, [r2], #4
10012570:	920d      	str	r2, [sp, #52]	@ 0x34
10012572:	d41f      	bmi.n	100125b4 <_svfprintf_r+0x4a4>
10012574:	0678      	lsls	r0, r7, #25
10012576:	d51d      	bpl.n	100125b4 <_svfprintf_r+0x4a4>
10012578:	f343 32c0 	sbfx	r2, r3, #15, #1
1001257c:	4611      	mov	r1, r2
1001257e:	b21b      	sxth	r3, r3
10012580:	e68e      	b.n	100122a0 <_svfprintf_r+0x190>
10012582:	990d      	ldr	r1, [sp, #52]	@ 0x34
10012584:	f851 3b04 	ldr.w	r3, [r1], #4
10012588:	910d      	str	r1, [sp, #52]	@ 0x34
1001258a:	f017 0110 	ands.w	r1, r7, #16
1001258e:	f000 83cc 	beq.w	10012d2a <_svfprintf_r+0xc1a>
10012592:	2101      	movs	r1, #1
10012594:	e6c3      	b.n	1001231e <_svfprintf_r+0x20e>
10012596:	990d      	ldr	r1, [sp, #52]	@ 0x34
10012598:	f851 3b04 	ldr.w	r3, [r1], #4
1001259c:	910d      	str	r1, [sp, #52]	@ 0x34
1001259e:	f017 0110 	ands.w	r1, r7, #16
100125a2:	f47f aeaa 	bne.w	100122fa <_svfprintf_r+0x1ea>
100125a6:	f017 0240 	ands.w	r2, r7, #64	@ 0x40
100125aa:	f43f aea6 	beq.w	100122fa <_svfprintf_r+0x1ea>
100125ae:	460a      	mov	r2, r1
100125b0:	b29b      	uxth	r3, r3
100125b2:	e6a2      	b.n	100122fa <_svfprintf_r+0x1ea>
100125b4:	17da      	asrs	r2, r3, #31
100125b6:	4611      	mov	r1, r2
100125b8:	2900      	cmp	r1, #0
100125ba:	f6bf ae74 	bge.w	100122a6 <_svfprintf_r+0x196>
100125be:	425b      	negs	r3, r3
100125c0:	eb62 0242 	sbc.w	r2, r2, r2, lsl #1
100125c4:	242d      	movs	r4, #45	@ 0x2d
100125c6:	2101      	movs	r1, #1
100125c8:	e6aa      	b.n	10012320 <_svfprintf_r+0x210>
100125ca:	9b0d      	ldr	r3, [sp, #52]	@ 0x34
100125cc:	f853 2b04 	ldr.w	r2, [r3], #4
100125d0:	9208      	str	r2, [sp, #32]
100125d2:	2a00      	cmp	r2, #0
100125d4:	f280 83a1 	bge.w	10012d1a <_svfprintf_r+0xc0a>
100125d8:	9a08      	ldr	r2, [sp, #32]
100125da:	930d      	str	r3, [sp, #52]	@ 0x34
100125dc:	4252      	negs	r2, r2
100125de:	9208      	str	r2, [sp, #32]
100125e0:	f89b 3000 	ldrb.w	r3, [fp]
100125e4:	f047 0704 	orr.w	r7, r7, #4
100125e8:	e5d9      	b.n	1001219e <_svfprintf_r+0x8e>
100125ea:	465a      	mov	r2, fp
100125ec:	f812 8b01 	ldrb.w	r8, [r2], #1
100125f0:	f1b8 0f2a 	cmp.w	r8, #42	@ 0x2a
100125f4:	f000 875b 	beq.w	100134ae <_svfprintf_r+0x139e>
100125f8:	f1a8 0330 	sub.w	r3, r8, #48	@ 0x30
100125fc:	2b09      	cmp	r3, #9
100125fe:	bf98      	it	ls
10012600:	f04f 0a00 	movls.w	sl, #0
10012604:	f200 86c6 	bhi.w	10013394 <_svfprintf_r+0x1284>
10012608:	f812 8b01 	ldrb.w	r8, [r2], #1
1001260c:	eb0a 0a8a 	add.w	sl, sl, sl, lsl #2
10012610:	eb03 0a4a 	add.w	sl, r3, sl, lsl #1
10012614:	f1a8 0330 	sub.w	r3, r8, #48	@ 0x30
10012618:	2b09      	cmp	r3, #9
1001261a:	d9f5      	bls.n	10012608 <_svfprintf_r+0x4f8>
1001261c:	ea4a 7aea 	orr.w	sl, sl, sl, asr #31
10012620:	4693      	mov	fp, r2
10012622:	e5bf      	b.n	100121a4 <_svfprintf_r+0x94>
10012624:	f89b 3000 	ldrb.w	r3, [fp]
10012628:	f047 0780 	orr.w	r7, r7, #128	@ 0x80
1001262c:	e5b7      	b.n	1001219e <_svfprintf_r+0x8e>
1001262e:	232b      	movs	r3, #43	@ 0x2b
10012630:	f88d 3077 	strb.w	r3, [sp, #119]	@ 0x77
10012634:	f89b 3000 	ldrb.w	r3, [fp]
10012638:	e5b1      	b.n	1001219e <_svfprintf_r+0x8e>
1001263a:	f89b 3000 	ldrb.w	r3, [fp]
1001263e:	f047 0701 	orr.w	r7, r7, #1
10012642:	e5ac      	b.n	1001219e <_svfprintf_r+0x8e>
10012644:	f89d 2077 	ldrb.w	r2, [sp, #119]	@ 0x77
10012648:	f89b 3000 	ldrb.w	r3, [fp]
1001264c:	2a00      	cmp	r2, #0
1001264e:	f47f ada6 	bne.w	1001219e <_svfprintf_r+0x8e>
10012652:	2220      	movs	r2, #32
10012654:	f88d 2077 	strb.w	r2, [sp, #119]	@ 0x77
10012658:	e5a1      	b.n	1001219e <_svfprintf_r+0x8e>
1001265a:	f89b 3000 	ldrb.w	r3, [fp]
1001265e:	2b6c      	cmp	r3, #108	@ 0x6c
10012660:	bf03      	ittte	eq
10012662:	f89b 3001 	ldrbeq.w	r3, [fp, #1]
10012666:	f047 0720 	orreq.w	r7, r7, #32
1001266a:	f10b 0b01 	addeq.w	fp, fp, #1
1001266e:	f047 0710 	orrne.w	r7, r7, #16
10012672:	e594      	b.n	1001219e <_svfprintf_r+0x8e>
10012674:	f89b 3000 	ldrb.w	r3, [fp]
10012678:	f047 0740 	orr.w	r7, r7, #64	@ 0x40
1001267c:	e58f      	b.n	1001219e <_svfprintf_r+0x8e>
1001267e:	9b0d      	ldr	r3, [sp, #52]	@ 0x34
10012680:	2200      	movs	r2, #0
10012682:	f88d 2077 	strb.w	r2, [sp, #119]	@ 0x77
10012686:	f853 2b04 	ldr.w	r2, [r3], #4
1001268a:	930d      	str	r3, [sp, #52]	@ 0x34
1001268c:	2301      	movs	r3, #1
1001268e:	f88d 20a0 	strb.w	r2, [sp, #160]	@ 0xa0
10012692:	9307      	str	r3, [sp, #28]
10012694:	930a      	str	r3, [sp, #40]	@ 0x28
10012696:	ad28      	add	r5, sp, #160	@ 0xa0
10012698:	e6ba      	b.n	10012410 <_svfprintf_r+0x300>
1001269a:	f89b 3000 	ldrb.w	r3, [fp]
1001269e:	f047 0708 	orr.w	r7, r7, #8
100126a2:	e57c      	b.n	1001219e <_svfprintf_r+0x8e>
100126a4:	9c0d      	ldr	r4, [sp, #52]	@ 0x34
100126a6:	f854 5b04 	ldr.w	r5, [r4], #4
100126aa:	2600      	movs	r6, #0
100126ac:	f88d 6077 	strb.w	r6, [sp, #119]	@ 0x77
100126b0:	2d00      	cmp	r5, #0
100126b2:	f000 851d 	beq.w	100130f0 <_svfprintf_r+0xfe0>
100126b6:	f1ba 0f00 	cmp.w	sl, #0
100126ba:	f2c0 841c 	blt.w	10012ef6 <_svfprintf_r+0xde6>
100126be:	4652      	mov	r2, sl
100126c0:	4631      	mov	r1, r6
100126c2:	4628      	mov	r0, r5
100126c4:	f7ff fcd4 	bl	10012070 <memchr>
100126c8:	2800      	cmp	r0, #0
100126ca:	f000 8652 	beq.w	10013372 <_svfprintf_r+0x1262>
100126ce:	1b43      	subs	r3, r0, r5
100126d0:	930a      	str	r3, [sp, #40]	@ 0x28
100126d2:	ea23 73e3 	bic.w	r3, r3, r3, asr #31
100126d6:	940d      	str	r4, [sp, #52]	@ 0x34
100126d8:	46b2      	mov	sl, r6
100126da:	f89d 4077 	ldrb.w	r4, [sp, #119]	@ 0x77
100126de:	9706      	str	r7, [sp, #24]
100126e0:	9307      	str	r3, [sp, #28]
100126e2:	960f      	str	r6, [sp, #60]	@ 0x3c
100126e4:	e652      	b.n	1001238c <_svfprintf_r+0x27c>
100126e6:	f89b 3000 	ldrb.w	r3, [fp]
100126ea:	f047 0720 	orr.w	r7, r7, #32
100126ee:	e556      	b.n	1001219e <_svfprintf_r+0x8e>
100126f0:	9a0d      	ldr	r2, [sp, #52]	@ 0x34
100126f2:	f852 3b04 	ldr.w	r3, [r2], #4
100126f6:	920d      	str	r2, [sp, #52]	@ 0x34
100126f8:	f647 0230 	movw	r2, #30768	@ 0x7830
100126fc:	f8ad 2078 	strh.w	r2, [sp, #120]	@ 0x78
10012700:	4a3b      	ldr	r2, [pc, #236]	@ (100127f0 <_svfprintf_r+0x6e0>)
10012702:	9215      	str	r2, [sp, #84]	@ 0x54
10012704:	f047 0702 	orr.w	r7, r7, #2
10012708:	2200      	movs	r2, #0
1001270a:	2102      	movs	r1, #2
1001270c:	f04f 0878 	mov.w	r8, #120	@ 0x78
10012710:	e605      	b.n	1001231e <_svfprintf_r+0x20e>
10012712:	06bd      	lsls	r5, r7, #26
10012714:	f140 8383 	bpl.w	10012e1e <_svfprintf_r+0xd0e>
10012718:	9b0d      	ldr	r3, [sp, #52]	@ 0x34
1001271a:	9a09      	ldr	r2, [sp, #36]	@ 0x24
1001271c:	681b      	ldr	r3, [r3, #0]
1001271e:	601a      	str	r2, [r3, #0]
10012720:	17d2      	asrs	r2, r2, #31
10012722:	605a      	str	r2, [r3, #4]
10012724:	9b0d      	ldr	r3, [sp, #52]	@ 0x34
10012726:	3304      	adds	r3, #4
10012728:	930d      	str	r3, [sp, #52]	@ 0x34
1001272a:	e517      	b.n	1001215c <_svfprintf_r+0x4c>
1001272c:	f1b8 0f65 	cmp.w	r8, #101	@ 0x65
10012730:	f340 8122 	ble.w	10012978 <_svfprintf_r+0x868>
10012734:	e9dd 0110 	ldrd	r0, r1, [sp, #64]	@ 0x40
10012738:	2200      	movs	r2, #0
1001273a:	2300      	movs	r3, #0
1001273c:	f004 ff88 	bl	10017650 <__aeabi_dcmpeq>
10012740:	2800      	cmp	r0, #0
10012742:	f000 8206 	beq.w	10012b52 <_svfprintf_r+0xa42>
10012746:	9b26      	ldr	r3, [sp, #152]	@ 0x98
10012748:	4a2a      	ldr	r2, [pc, #168]	@ (100127f4 <_svfprintf_r+0x6e4>)
1001274a:	f8c9 2000 	str.w	r2, [r9]
1001274e:	3301      	adds	r3, #1
10012750:	3401      	adds	r4, #1
10012752:	2201      	movs	r2, #1
10012754:	2b07      	cmp	r3, #7
10012756:	9427      	str	r4, [sp, #156]	@ 0x9c
10012758:	9326      	str	r3, [sp, #152]	@ 0x98
1001275a:	f8c9 2004 	str.w	r2, [r9, #4]
1001275e:	f300 84a0 	bgt.w	100130a2 <_svfprintf_r+0xf92>
10012762:	f109 0908 	add.w	r9, r9, #8
10012766:	9b1f      	ldr	r3, [sp, #124]	@ 0x7c
10012768:	9a12      	ldr	r2, [sp, #72]	@ 0x48
1001276a:	4293      	cmp	r3, r2
1001276c:	db03      	blt.n	10012776 <_svfprintf_r+0x666>
1001276e:	9b06      	ldr	r3, [sp, #24]
10012770:	07dd      	lsls	r5, r3, #31
10012772:	f57f aea3 	bpl.w	100124bc <_svfprintf_r+0x3ac>
10012776:	9b13      	ldr	r3, [sp, #76]	@ 0x4c
10012778:	9a14      	ldr	r2, [sp, #80]	@ 0x50
1001277a:	441c      	add	r4, r3
1001277c:	e9c9 2300 	strd	r2, r3, [r9]
10012780:	9b26      	ldr	r3, [sp, #152]	@ 0x98
10012782:	9427      	str	r4, [sp, #156]	@ 0x9c
10012784:	3301      	adds	r3, #1
10012786:	2b07      	cmp	r3, #7
10012788:	9326      	str	r3, [sp, #152]	@ 0x98
1001278a:	f300 84a4 	bgt.w	100130d6 <_svfprintf_r+0xfc6>
1001278e:	f109 0908 	add.w	r9, r9, #8
10012792:	9b12      	ldr	r3, [sp, #72]	@ 0x48
10012794:	1e5d      	subs	r5, r3, #1
10012796:	2d00      	cmp	r5, #0
10012798:	f77f ae90 	ble.w	100124bc <_svfprintf_r+0x3ac>
1001279c:	2d10      	cmp	r5, #16
1001279e:	9b26      	ldr	r3, [sp, #152]	@ 0x98
100127a0:	4f15      	ldr	r7, [pc, #84]	@ (100127f8 <_svfprintf_r+0x6e8>)
100127a2:	f340 80d2 	ble.w	1001294a <_svfprintf_r+0x83a>
100127a6:	e9dd a80b 	ldrd	sl, r8, [sp, #44]	@ 0x2c
100127aa:	2610      	movs	r6, #16
100127ac:	e005      	b.n	100127ba <_svfprintf_r+0x6aa>
100127ae:	f109 0908 	add.w	r9, r9, #8
100127b2:	3d10      	subs	r5, #16
100127b4:	2d10      	cmp	r5, #16
100127b6:	f340 80c8 	ble.w	1001294a <_svfprintf_r+0x83a>
100127ba:	3301      	adds	r3, #1
100127bc:	3410      	adds	r4, #16
100127be:	2b07      	cmp	r3, #7
100127c0:	e9c9 7600 	strd	r7, r6, [r9]
100127c4:	e9cd 3426 	strd	r3, r4, [sp, #152]	@ 0x98
100127c8:	ddf1      	ble.n	100127ae <_svfprintf_r+0x69e>
100127ca:	aa25      	add	r2, sp, #148	@ 0x94
100127cc:	4651      	mov	r1, sl
100127ce:	4640      	mov	r0, r8
100127d0:	f002 fc72 	bl	100150b8 <__ssprint_r>
100127d4:	2800      	cmp	r0, #0
100127d6:	f47f ae06 	bne.w	100123e6 <_svfprintf_r+0x2d6>
100127da:	e9dd 3426 	ldrd	r3, r4, [sp, #152]	@ 0x98
100127de:	f10d 09c8 	add.w	r9, sp, #200	@ 0xc8
100127e2:	e7e6      	b.n	100127b2 <_svfprintf_r+0x6a2>
100127e4:	7fefffff 	.word	0x7fefffff
100127e8:	10017be0 	.word	0x10017be0
100127ec:	10017bdc 	.word	0x10017bdc
100127f0:	10017c00 	.word	0x10017c00
100127f4:	10017c1c 	.word	0x10017c1c
100127f8:	10017e90 	.word	0x10017e90
100127fc:	e9dd 2307 	ldrd	r2, r3, [sp, #28]
10012800:	1a9e      	subs	r6, r3, r2
10012802:	2e00      	cmp	r6, #0
10012804:	f77f ae41 	ble.w	1001248a <_svfprintf_r+0x37a>
10012808:	2e10      	cmp	r6, #16
1001280a:	9b26      	ldr	r3, [sp, #152]	@ 0x98
1001280c:	4fb7      	ldr	r7, [pc, #732]	@ (10012aec <_svfprintf_r+0x9dc>)
1001280e:	dd24      	ble.n	1001285a <_svfprintf_r+0x74a>
10012810:	464a      	mov	r2, r9
10012812:	4621      	mov	r1, r4
10012814:	46a9      	mov	r9, r5
10012816:	e9dd 540b 	ldrd	r5, r4, [sp, #44]	@ 0x2c
1001281a:	e004      	b.n	10012826 <_svfprintf_r+0x716>
1001281c:	3e10      	subs	r6, #16
1001281e:	2e10      	cmp	r6, #16
10012820:	f102 0208 	add.w	r2, r2, #8
10012824:	dd16      	ble.n	10012854 <_svfprintf_r+0x744>
10012826:	3301      	adds	r3, #1
10012828:	3110      	adds	r1, #16
1001282a:	2010      	movs	r0, #16
1001282c:	2b07      	cmp	r3, #7
1001282e:	e9cd 3126 	strd	r3, r1, [sp, #152]	@ 0x98
10012832:	6017      	str	r7, [r2, #0]
10012834:	6050      	str	r0, [r2, #4]
10012836:	ddf1      	ble.n	1001281c <_svfprintf_r+0x70c>
10012838:	aa25      	add	r2, sp, #148	@ 0x94
1001283a:	4629      	mov	r1, r5
1001283c:	4620      	mov	r0, r4
1001283e:	f002 fc3b 	bl	100150b8 <__ssprint_r>
10012842:	2800      	cmp	r0, #0
10012844:	f47f adcf 	bne.w	100123e6 <_svfprintf_r+0x2d6>
10012848:	3e10      	subs	r6, #16
1001284a:	2e10      	cmp	r6, #16
1001284c:	e9dd 3126 	ldrd	r3, r1, [sp, #152]	@ 0x98
10012850:	aa32      	add	r2, sp, #200	@ 0xc8
10012852:	dce8      	bgt.n	10012826 <_svfprintf_r+0x716>
10012854:	464d      	mov	r5, r9
10012856:	460c      	mov	r4, r1
10012858:	4691      	mov	r9, r2
1001285a:	3301      	adds	r3, #1
1001285c:	4434      	add	r4, r6
1001285e:	2b07      	cmp	r3, #7
10012860:	e9cd 3426 	strd	r3, r4, [sp, #152]	@ 0x98
10012864:	f8c9 7000 	str.w	r7, [r9]
10012868:	f8c9 6004 	str.w	r6, [r9, #4]
1001286c:	f300 8426 	bgt.w	100130bc <_svfprintf_r+0xfac>
10012870:	9b0a      	ldr	r3, [sp, #40]	@ 0x28
10012872:	ebaa 0603 	sub.w	r6, sl, r3
10012876:	2e00      	cmp	r6, #0
10012878:	f109 0908 	add.w	r9, r9, #8
1001287c:	f77f ae0b 	ble.w	10012496 <_svfprintf_r+0x386>
10012880:	2e10      	cmp	r6, #16
10012882:	9b26      	ldr	r3, [sp, #152]	@ 0x98
10012884:	4f99      	ldr	r7, [pc, #612]	@ (10012aec <_svfprintf_r+0x9dc>)
10012886:	dd2c      	ble.n	100128e2 <_svfprintf_r+0x7d2>
10012888:	464a      	mov	r2, r9
1001288a:	4621      	mov	r1, r4
1001288c:	46b1      	mov	r9, r6
1001288e:	f04f 0a10 	mov.w	sl, #16
10012892:	462e      	mov	r6, r5
10012894:	e9dd 540b 	ldrd	r5, r4, [sp, #44]	@ 0x2c
10012898:	e006      	b.n	100128a8 <_svfprintf_r+0x798>
1001289a:	f1a9 0910 	sub.w	r9, r9, #16
1001289e:	f1b9 0f10 	cmp.w	r9, #16
100128a2:	f102 0208 	add.w	r2, r2, #8
100128a6:	dd18      	ble.n	100128da <_svfprintf_r+0x7ca>
100128a8:	3301      	adds	r3, #1
100128aa:	4890      	ldr	r0, [pc, #576]	@ (10012aec <_svfprintf_r+0x9dc>)
100128ac:	3110      	adds	r1, #16
100128ae:	2b07      	cmp	r3, #7
100128b0:	e9c2 0a00 	strd	r0, sl, [r2]
100128b4:	e9cd 3126 	strd	r3, r1, [sp, #152]	@ 0x98
100128b8:	ddef      	ble.n	1001289a <_svfprintf_r+0x78a>
100128ba:	aa25      	add	r2, sp, #148	@ 0x94
100128bc:	4629      	mov	r1, r5
100128be:	4620      	mov	r0, r4
100128c0:	f002 fbfa 	bl	100150b8 <__ssprint_r>
100128c4:	2800      	cmp	r0, #0
100128c6:	f47f ad8e 	bne.w	100123e6 <_svfprintf_r+0x2d6>
100128ca:	f1a9 0910 	sub.w	r9, r9, #16
100128ce:	f1b9 0f10 	cmp.w	r9, #16
100128d2:	e9dd 3126 	ldrd	r3, r1, [sp, #152]	@ 0x98
100128d6:	aa32      	add	r2, sp, #200	@ 0xc8
100128d8:	dce6      	bgt.n	100128a8 <_svfprintf_r+0x798>
100128da:	4635      	mov	r5, r6
100128dc:	460c      	mov	r4, r1
100128de:	464e      	mov	r6, r9
100128e0:	4691      	mov	r9, r2
100128e2:	3301      	adds	r3, #1
100128e4:	4434      	add	r4, r6
100128e6:	2b07      	cmp	r3, #7
100128e8:	e9cd 3426 	strd	r3, r4, [sp, #152]	@ 0x98
100128ec:	f8c9 7000 	str.w	r7, [r9]
100128f0:	f8c9 6004 	str.w	r6, [r9, #4]
100128f4:	f300 81ea 	bgt.w	10012ccc <_svfprintf_r+0xbbc>
100128f8:	f109 0908 	add.w	r9, r9, #8
100128fc:	e5cb      	b.n	10012496 <_svfprintf_r+0x386>
100128fe:	2901      	cmp	r1, #1
10012900:	9f06      	ldr	r7, [sp, #24]
10012902:	f04f 0300 	mov.w	r3, #0
10012906:	f43f ace0 	beq.w	100122ca <_svfprintf_r+0x1ba>
1001290a:	2902      	cmp	r1, #2
1001290c:	461a      	mov	r2, r3
1001290e:	f47f ad19 	bne.w	10012344 <_svfprintf_r+0x234>
10012912:	9815      	ldr	r0, [sp, #84]	@ 0x54
10012914:	ad32      	add	r5, sp, #200	@ 0xc8
10012916:	f003 010f 	and.w	r1, r3, #15
1001291a:	091b      	lsrs	r3, r3, #4
1001291c:	5c41      	ldrb	r1, [r0, r1]
1001291e:	f805 1d01 	strb.w	r1, [r5, #-1]!
10012922:	ea43 7302 	orr.w	r3, r3, r2, lsl #28
10012926:	0912      	lsrs	r2, r2, #4
10012928:	ea53 0102 	orrs.w	r1, r3, r2
1001292c:	d1f3      	bne.n	10012916 <_svfprintf_r+0x806>
1001292e:	ab32      	add	r3, sp, #200	@ 0xc8
10012930:	1b5b      	subs	r3, r3, r5
10012932:	9706      	str	r7, [sp, #24]
10012934:	930a      	str	r3, [sp, #40]	@ 0x28
10012936:	e522      	b.n	1001237e <_svfprintf_r+0x26e>
10012938:	e9dd 100b 	ldrd	r1, r0, [sp, #44]	@ 0x2c
1001293c:	aa25      	add	r2, sp, #148	@ 0x94
1001293e:	f002 fbbb 	bl	100150b8 <__ssprint_r>
10012942:	2800      	cmp	r0, #0
10012944:	f43f adce 	beq.w	100124e4 <_svfprintf_r+0x3d4>
10012948:	e54d      	b.n	100123e6 <_svfprintf_r+0x2d6>
1001294a:	3301      	adds	r3, #1
1001294c:	442c      	add	r4, r5
1001294e:	2b07      	cmp	r3, #7
10012950:	f8c9 7000 	str.w	r7, [r9]
10012954:	f8c9 5004 	str.w	r5, [r9, #4]
10012958:	e9cd 3426 	strd	r3, r4, [sp, #152]	@ 0x98
1001295c:	f77f adac 	ble.w	100124b8 <_svfprintf_r+0x3a8>
10012960:	e9dd 100b 	ldrd	r1, r0, [sp, #44]	@ 0x2c
10012964:	aa25      	add	r2, sp, #148	@ 0x94
10012966:	f002 fba7 	bl	100150b8 <__ssprint_r>
1001296a:	2800      	cmp	r0, #0
1001296c:	f47f ad3b 	bne.w	100123e6 <_svfprintf_r+0x2d6>
10012970:	9c27      	ldr	r4, [sp, #156]	@ 0x9c
10012972:	f10d 09c8 	add.w	r9, sp, #200	@ 0xc8
10012976:	e5a1      	b.n	100124bc <_svfprintf_r+0x3ac>
10012978:	9b12      	ldr	r3, [sp, #72]	@ 0x48
1001297a:	9e26      	ldr	r6, [sp, #152]	@ 0x98
1001297c:	2b01      	cmp	r3, #1
1001297e:	f104 0401 	add.w	r4, r4, #1
10012982:	f106 0601 	add.w	r6, r6, #1
10012986:	f109 0808 	add.w	r8, r9, #8
1001298a:	f340 815b 	ble.w	10012c44 <_svfprintf_r+0xb34>
1001298e:	2301      	movs	r3, #1
10012990:	2e07      	cmp	r6, #7
10012992:	e9cd 6426 	strd	r6, r4, [sp, #152]	@ 0x98
10012996:	f8c9 5000 	str.w	r5, [r9]
1001299a:	f8c9 3004 	str.w	r3, [r9, #4]
1001299e:	f300 81a2 	bgt.w	10012ce6 <_svfprintf_r+0xbd6>
100129a2:	9b13      	ldr	r3, [sp, #76]	@ 0x4c
100129a4:	9a14      	ldr	r2, [sp, #80]	@ 0x50
100129a6:	3601      	adds	r6, #1
100129a8:	441c      	add	r4, r3
100129aa:	2e07      	cmp	r6, #7
100129ac:	e9c8 2300 	strd	r2, r3, [r8]
100129b0:	e9cd 6426 	strd	r6, r4, [sp, #152]	@ 0x98
100129b4:	f300 81a4 	bgt.w	10012d00 <_svfprintf_r+0xbf0>
100129b8:	f108 0808 	add.w	r8, r8, #8
100129bc:	9b12      	ldr	r3, [sp, #72]	@ 0x48
100129be:	e9dd 0110 	ldrd	r0, r1, [sp, #64]	@ 0x40
100129c2:	f103 39ff 	add.w	r9, r3, #4294967295	@ 0xffffffff
100129c6:	2200      	movs	r2, #0
100129c8:	2300      	movs	r3, #0
100129ca:	f004 fe41 	bl	10017650 <__aeabi_dcmpeq>
100129ce:	2800      	cmp	r0, #0
100129d0:	f040 8153 	bne.w	10012c7a <_svfprintf_r+0xb6a>
100129d4:	3601      	adds	r6, #1
100129d6:	3501      	adds	r5, #1
100129d8:	444c      	add	r4, r9
100129da:	2e07      	cmp	r6, #7
100129dc:	e9cd 6426 	strd	r6, r4, [sp, #152]	@ 0x98
100129e0:	f8c8 5000 	str.w	r5, [r8]
100129e4:	f8c8 9004 	str.w	r9, [r8, #4]
100129e8:	f300 813a 	bgt.w	10012c60 <_svfprintf_r+0xb50>
100129ec:	f108 0808 	add.w	r8, r8, #8
100129f0:	9b16      	ldr	r3, [sp, #88]	@ 0x58
100129f2:	f8c8 3004 	str.w	r3, [r8, #4]
100129f6:	3601      	adds	r6, #1
100129f8:	441c      	add	r4, r3
100129fa:	2e07      	cmp	r6, #7
100129fc:	ab21      	add	r3, sp, #132	@ 0x84
100129fe:	e9cd 6426 	strd	r6, r4, [sp, #152]	@ 0x98
10012a02:	f8c8 3000 	str.w	r3, [r8]
10012a06:	dcab      	bgt.n	10012960 <_svfprintf_r+0x850>
10012a08:	f108 0908 	add.w	r9, r8, #8
10012a0c:	e556      	b.n	100124bc <_svfprintf_r+0x3ac>
10012a0e:	2101      	movs	r1, #1
10012a10:	f1ba 0f00 	cmp.w	sl, #0
10012a14:	f47f af73 	bne.w	100128fe <_svfprintf_r+0x7ee>
10012a18:	2900      	cmp	r1, #0
10012a1a:	f040 810e 	bne.w	10012c3a <_svfprintf_r+0xb2a>
10012a1e:	f017 0301 	ands.w	r3, r7, #1
10012a22:	930a      	str	r3, [sp, #40]	@ 0x28
10012a24:	f000 817e 	beq.w	10012d24 <_svfprintf_r+0xc14>
10012a28:	2330      	movs	r3, #48	@ 0x30
10012a2a:	f88d 30c7 	strb.w	r3, [sp, #199]	@ 0xc7
10012a2e:	f10d 05c7 	add.w	r5, sp, #199	@ 0xc7
10012a32:	e4a4      	b.n	1001237e <_svfprintf_r+0x26e>
10012a34:	2e10      	cmp	r6, #16
10012a36:	9a26      	ldr	r2, [sp, #152]	@ 0x98
10012a38:	4f2d      	ldr	r7, [pc, #180]	@ (10012af0 <_svfprintf_r+0x9e0>)
10012a3a:	dd26      	ble.n	10012a8a <_svfprintf_r+0x97a>
10012a3c:	4649      	mov	r1, r9
10012a3e:	4620      	mov	r0, r4
10012a40:	46a9      	mov	r9, r5
10012a42:	9317      	str	r3, [sp, #92]	@ 0x5c
10012a44:	e9dd 540b 	ldrd	r5, r4, [sp, #44]	@ 0x2c
10012a48:	e004      	b.n	10012a54 <_svfprintf_r+0x944>
10012a4a:	3e10      	subs	r6, #16
10012a4c:	2e10      	cmp	r6, #16
10012a4e:	f101 0108 	add.w	r1, r1, #8
10012a52:	dd16      	ble.n	10012a82 <_svfprintf_r+0x972>
10012a54:	3201      	adds	r2, #1
10012a56:	3010      	adds	r0, #16
10012a58:	2310      	movs	r3, #16
10012a5a:	2a07      	cmp	r2, #7
10012a5c:	e9cd 2026 	strd	r2, r0, [sp, #152]	@ 0x98
10012a60:	600f      	str	r7, [r1, #0]
10012a62:	604b      	str	r3, [r1, #4]
10012a64:	ddf1      	ble.n	10012a4a <_svfprintf_r+0x93a>
10012a66:	aa25      	add	r2, sp, #148	@ 0x94
10012a68:	4629      	mov	r1, r5
10012a6a:	4620      	mov	r0, r4
10012a6c:	f002 fb24 	bl	100150b8 <__ssprint_r>
10012a70:	2800      	cmp	r0, #0
10012a72:	f47f acb8 	bne.w	100123e6 <_svfprintf_r+0x2d6>
10012a76:	3e10      	subs	r6, #16
10012a78:	2e10      	cmp	r6, #16
10012a7a:	e9dd 2026 	ldrd	r2, r0, [sp, #152]	@ 0x98
10012a7e:	a932      	add	r1, sp, #200	@ 0xc8
10012a80:	dce8      	bgt.n	10012a54 <_svfprintf_r+0x944>
10012a82:	9b17      	ldr	r3, [sp, #92]	@ 0x5c
10012a84:	464d      	mov	r5, r9
10012a86:	4604      	mov	r4, r0
10012a88:	4689      	mov	r9, r1
10012a8a:	3201      	adds	r2, #1
10012a8c:	4434      	add	r4, r6
10012a8e:	2a07      	cmp	r2, #7
10012a90:	e9cd 2426 	strd	r2, r4, [sp, #152]	@ 0x98
10012a94:	f8c9 7000 	str.w	r7, [r9]
10012a98:	f8c9 6004 	str.w	r6, [r9, #4]
10012a9c:	f300 82be 	bgt.w	1001301c <_svfprintf_r+0xf0c>
10012aa0:	f109 0908 	add.w	r9, r9, #8
10012aa4:	e4c6      	b.n	10012434 <_svfprintf_r+0x324>
10012aa6:	e9dd 100b 	ldrd	r1, r0, [sp, #44]	@ 0x2c
10012aaa:	aa25      	add	r2, sp, #148	@ 0x94
10012aac:	9317      	str	r3, [sp, #92]	@ 0x5c
10012aae:	f002 fb03 	bl	100150b8 <__ssprint_r>
10012ab2:	2800      	cmp	r0, #0
10012ab4:	f47f ac97 	bne.w	100123e6 <_svfprintf_r+0x2d6>
10012ab8:	9c27      	ldr	r4, [sp, #156]	@ 0x9c
10012aba:	9b17      	ldr	r3, [sp, #92]	@ 0x5c
10012abc:	f10d 09c8 	add.w	r9, sp, #200	@ 0xc8
10012ac0:	e4cd      	b.n	1001245e <_svfprintf_r+0x34e>
10012ac2:	e9dd 100b 	ldrd	r1, r0, [sp, #44]	@ 0x2c
10012ac6:	aa25      	add	r2, sp, #148	@ 0x94
10012ac8:	f002 faf6 	bl	100150b8 <__ssprint_r>
10012acc:	2800      	cmp	r0, #0
10012ace:	f47f ac8a 	bne.w	100123e6 <_svfprintf_r+0x2d6>
10012ad2:	9c27      	ldr	r4, [sp, #156]	@ 0x9c
10012ad4:	f10d 09c8 	add.w	r9, sp, #200	@ 0xc8
10012ad8:	e4d3      	b.n	10012482 <_svfprintf_r+0x372>
10012ada:	2d10      	cmp	r5, #16
10012adc:	9b26      	ldr	r3, [sp, #152]	@ 0x98
10012ade:	4f04      	ldr	r7, [pc, #16]	@ (10012af0 <_svfprintf_r+0x9e0>)
10012ae0:	dd24      	ble.n	10012b2c <_svfprintf_r+0xa1c>
10012ae2:	e9dd a80b 	ldrd	sl, r8, [sp, #44]	@ 0x2c
10012ae6:	2610      	movs	r6, #16
10012ae8:	e009      	b.n	10012afe <_svfprintf_r+0x9ee>
10012aea:	bf00      	nop
10012aec:	10017e90 	.word	0x10017e90
10012af0:	10017e80 	.word	0x10017e80
10012af4:	3d10      	subs	r5, #16
10012af6:	2d10      	cmp	r5, #16
10012af8:	f109 0908 	add.w	r9, r9, #8
10012afc:	dd16      	ble.n	10012b2c <_svfprintf_r+0xa1c>
10012afe:	3301      	adds	r3, #1
10012b00:	3410      	adds	r4, #16
10012b02:	2b07      	cmp	r3, #7
10012b04:	e9c9 7600 	strd	r7, r6, [r9]
10012b08:	e9cd 3426 	strd	r3, r4, [sp, #152]	@ 0x98
10012b0c:	ddf2      	ble.n	10012af4 <_svfprintf_r+0x9e4>
10012b0e:	aa25      	add	r2, sp, #148	@ 0x94
10012b10:	4651      	mov	r1, sl
10012b12:	4640      	mov	r0, r8
10012b14:	f002 fad0 	bl	100150b8 <__ssprint_r>
10012b18:	2800      	cmp	r0, #0
10012b1a:	f47f ac64 	bne.w	100123e6 <_svfprintf_r+0x2d6>
10012b1e:	3d10      	subs	r5, #16
10012b20:	2d10      	cmp	r5, #16
10012b22:	e9dd 3426 	ldrd	r3, r4, [sp, #152]	@ 0x98
10012b26:	f10d 09c8 	add.w	r9, sp, #200	@ 0xc8
10012b2a:	dce8      	bgt.n	10012afe <_svfprintf_r+0x9ee>
10012b2c:	3301      	adds	r3, #1
10012b2e:	442c      	add	r4, r5
10012b30:	2b07      	cmp	r3, #7
10012b32:	e9c9 7500 	strd	r7, r5, [r9]
10012b36:	e9cd 3426 	strd	r3, r4, [sp, #152]	@ 0x98
10012b3a:	f77f acc8 	ble.w	100124ce <_svfprintf_r+0x3be>
10012b3e:	e9dd 100b 	ldrd	r1, r0, [sp, #44]	@ 0x2c
10012b42:	aa25      	add	r2, sp, #148	@ 0x94
10012b44:	f002 fab8 	bl	100150b8 <__ssprint_r>
10012b48:	2800      	cmp	r0, #0
10012b4a:	f47f ac4c 	bne.w	100123e6 <_svfprintf_r+0x2d6>
10012b4e:	9c27      	ldr	r4, [sp, #156]	@ 0x9c
10012b50:	e4bd      	b.n	100124ce <_svfprintf_r+0x3be>
10012b52:	991f      	ldr	r1, [sp, #124]	@ 0x7c
10012b54:	2900      	cmp	r1, #0
10012b56:	f340 8270 	ble.w	1001303a <_svfprintf_r+0xf2a>
10012b5a:	9f0f      	ldr	r7, [sp, #60]	@ 0x3c
10012b5c:	9b12      	ldr	r3, [sp, #72]	@ 0x48
10012b5e:	429f      	cmp	r7, r3
10012b60:	bfa8      	it	ge
10012b62:	461f      	movge	r7, r3
10012b64:	2f00      	cmp	r7, #0
10012b66:	dd0b      	ble.n	10012b80 <_svfprintf_r+0xa70>
10012b68:	9b26      	ldr	r3, [sp, #152]	@ 0x98
10012b6a:	3301      	adds	r3, #1
10012b6c:	443c      	add	r4, r7
10012b6e:	2b07      	cmp	r3, #7
10012b70:	e9c9 5700 	strd	r5, r7, [r9]
10012b74:	9427      	str	r4, [sp, #156]	@ 0x9c
10012b76:	9326      	str	r3, [sp, #152]	@ 0x98
10012b78:	f300 83dd 	bgt.w	10013336 <_svfprintf_r+0x1226>
10012b7c:	f109 0908 	add.w	r9, r9, #8
10012b80:	9e0f      	ldr	r6, [sp, #60]	@ 0x3c
10012b82:	2f00      	cmp	r7, #0
10012b84:	bfa8      	it	ge
10012b86:	1bf6      	subge	r6, r6, r7
10012b88:	2e00      	cmp	r6, #0
10012b8a:	f300 8188 	bgt.w	10012e9e <_svfprintf_r+0xd8e>
10012b8e:	9b1f      	ldr	r3, [sp, #124]	@ 0x7c
10012b90:	9a12      	ldr	r2, [sp, #72]	@ 0x48
10012b92:	4293      	cmp	r3, r2
10012b94:	f280 816f 	bge.w	10012e76 <_svfprintf_r+0xd66>
10012b98:	9a13      	ldr	r2, [sp, #76]	@ 0x4c
10012b9a:	9914      	ldr	r1, [sp, #80]	@ 0x50
10012b9c:	4414      	add	r4, r2
10012b9e:	e9c9 1200 	strd	r1, r2, [r9]
10012ba2:	9a26      	ldr	r2, [sp, #152]	@ 0x98
10012ba4:	9427      	str	r4, [sp, #156]	@ 0x9c
10012ba6:	3201      	adds	r2, #1
10012ba8:	2a07      	cmp	r2, #7
10012baa:	9226      	str	r2, [sp, #152]	@ 0x98
10012bac:	f300 82fe 	bgt.w	100131ac <_svfprintf_r+0x109c>
10012bb0:	f109 0908 	add.w	r9, r9, #8
10012bb4:	9a12      	ldr	r2, [sp, #72]	@ 0x48
10012bb6:	990f      	ldr	r1, [sp, #60]	@ 0x3c
10012bb8:	1ad3      	subs	r3, r2, r3
10012bba:	1a56      	subs	r6, r2, r1
10012bbc:	429e      	cmp	r6, r3
10012bbe:	bfa8      	it	ge
10012bc0:	461e      	movge	r6, r3
10012bc2:	2e00      	cmp	r6, #0
10012bc4:	dd0e      	ble.n	10012be4 <_svfprintf_r+0xad4>
10012bc6:	9a26      	ldr	r2, [sp, #152]	@ 0x98
10012bc8:	f8c9 6004 	str.w	r6, [r9, #4]
10012bcc:	3201      	adds	r2, #1
10012bce:	440d      	add	r5, r1
10012bd0:	4434      	add	r4, r6
10012bd2:	2a07      	cmp	r2, #7
10012bd4:	f8c9 5000 	str.w	r5, [r9]
10012bd8:	9427      	str	r4, [sp, #156]	@ 0x9c
10012bda:	9226      	str	r2, [sp, #152]	@ 0x98
10012bdc:	f300 83b7 	bgt.w	1001334e <_svfprintf_r+0x123e>
10012be0:	f109 0908 	add.w	r9, r9, #8
10012be4:	2e00      	cmp	r6, #0
10012be6:	bfac      	ite	ge
10012be8:	1b9d      	subge	r5, r3, r6
10012bea:	461d      	movlt	r5, r3
10012bec:	2d00      	cmp	r5, #0
10012bee:	f77f ac65 	ble.w	100124bc <_svfprintf_r+0x3ac>
10012bf2:	2d10      	cmp	r5, #16
10012bf4:	9b26      	ldr	r3, [sp, #152]	@ 0x98
10012bf6:	4faf      	ldr	r7, [pc, #700]	@ (10012eb4 <_svfprintf_r+0xda4>)
10012bf8:	f77f aea7 	ble.w	1001294a <_svfprintf_r+0x83a>
10012bfc:	e9dd a80b 	ldrd	sl, r8, [sp, #44]	@ 0x2c
10012c00:	2610      	movs	r6, #16
10012c02:	e005      	b.n	10012c10 <_svfprintf_r+0xb00>
10012c04:	f109 0908 	add.w	r9, r9, #8
10012c08:	3d10      	subs	r5, #16
10012c0a:	2d10      	cmp	r5, #16
10012c0c:	f77f ae9d 	ble.w	1001294a <_svfprintf_r+0x83a>
10012c10:	3301      	adds	r3, #1
10012c12:	3410      	adds	r4, #16
10012c14:	2b07      	cmp	r3, #7
10012c16:	e9c9 7600 	strd	r7, r6, [r9]
10012c1a:	e9cd 3426 	strd	r3, r4, [sp, #152]	@ 0x98
10012c1e:	ddf1      	ble.n	10012c04 <_svfprintf_r+0xaf4>
10012c20:	aa25      	add	r2, sp, #148	@ 0x94
10012c22:	4651      	mov	r1, sl
10012c24:	4640      	mov	r0, r8
10012c26:	f002 fa47 	bl	100150b8 <__ssprint_r>
10012c2a:	2800      	cmp	r0, #0
10012c2c:	f47f abdb 	bne.w	100123e6 <_svfprintf_r+0x2d6>
10012c30:	e9dd 3426 	ldrd	r3, r4, [sp, #152]	@ 0x98
10012c34:	f10d 09c8 	add.w	r9, sp, #200	@ 0xc8
10012c38:	e7e6      	b.n	10012c08 <_svfprintf_r+0xaf8>
10012c3a:	f8cd a028 	str.w	sl, [sp, #40]	@ 0x28
10012c3e:	ad32      	add	r5, sp, #200	@ 0xc8
10012c40:	f7ff bb9d 	b.w	1001237e <_svfprintf_r+0x26e>
10012c44:	9b06      	ldr	r3, [sp, #24]
10012c46:	07d9      	lsls	r1, r3, #31
10012c48:	f53f aea1 	bmi.w	1001298e <_svfprintf_r+0x87e>
10012c4c:	2301      	movs	r3, #1
10012c4e:	2e07      	cmp	r6, #7
10012c50:	e9cd 6426 	strd	r6, r4, [sp, #152]	@ 0x98
10012c54:	f8c9 5000 	str.w	r5, [r9]
10012c58:	f8c9 3004 	str.w	r3, [r9, #4]
10012c5c:	f77f aec8 	ble.w	100129f0 <_svfprintf_r+0x8e0>
10012c60:	e9dd 100b 	ldrd	r1, r0, [sp, #44]	@ 0x2c
10012c64:	aa25      	add	r2, sp, #148	@ 0x94
10012c66:	f002 fa27 	bl	100150b8 <__ssprint_r>
10012c6a:	2800      	cmp	r0, #0
10012c6c:	f47f abbb 	bne.w	100123e6 <_svfprintf_r+0x2d6>
10012c70:	e9dd 6426 	ldrd	r6, r4, [sp, #152]	@ 0x98
10012c74:	f10d 08c8 	add.w	r8, sp, #200	@ 0xc8
10012c78:	e6ba      	b.n	100129f0 <_svfprintf_r+0x8e0>
10012c7a:	9b12      	ldr	r3, [sp, #72]	@ 0x48
10012c7c:	2b01      	cmp	r3, #1
10012c7e:	f77f aeb7 	ble.w	100129f0 <_svfprintf_r+0x8e0>
10012c82:	2b11      	cmp	r3, #17
10012c84:	4f8b      	ldr	r7, [pc, #556]	@ (10012eb4 <_svfprintf_r+0xda4>)
10012c86:	f340 8271 	ble.w	1001316c <_svfprintf_r+0x105c>
10012c8a:	f8dd a030 	ldr.w	sl, [sp, #48]	@ 0x30
10012c8e:	2510      	movs	r5, #16
10012c90:	e007      	b.n	10012ca2 <_svfprintf_r+0xb92>
10012c92:	f108 0808 	add.w	r8, r8, #8
10012c96:	f1a9 0910 	sub.w	r9, r9, #16
10012c9a:	f1b9 0f10 	cmp.w	r9, #16
10012c9e:	f340 8265 	ble.w	1001316c <_svfprintf_r+0x105c>
10012ca2:	3601      	adds	r6, #1
10012ca4:	3410      	adds	r4, #16
10012ca6:	2e07      	cmp	r6, #7
10012ca8:	e9c8 7500 	strd	r7, r5, [r8]
10012cac:	e9cd 6426 	strd	r6, r4, [sp, #152]	@ 0x98
10012cb0:	ddef      	ble.n	10012c92 <_svfprintf_r+0xb82>
10012cb2:	990b      	ldr	r1, [sp, #44]	@ 0x2c
10012cb4:	aa25      	add	r2, sp, #148	@ 0x94
10012cb6:	4650      	mov	r0, sl
10012cb8:	f002 f9fe 	bl	100150b8 <__ssprint_r>
10012cbc:	2800      	cmp	r0, #0
10012cbe:	f47f ab92 	bne.w	100123e6 <_svfprintf_r+0x2d6>
10012cc2:	e9dd 6426 	ldrd	r6, r4, [sp, #152]	@ 0x98
10012cc6:	f10d 08c8 	add.w	r8, sp, #200	@ 0xc8
10012cca:	e7e4      	b.n	10012c96 <_svfprintf_r+0xb86>
10012ccc:	e9dd 100b 	ldrd	r1, r0, [sp, #44]	@ 0x2c
10012cd0:	aa25      	add	r2, sp, #148	@ 0x94
10012cd2:	f002 f9f1 	bl	100150b8 <__ssprint_r>
10012cd6:	2800      	cmp	r0, #0
10012cd8:	f47f ab85 	bne.w	100123e6 <_svfprintf_r+0x2d6>
10012cdc:	9c27      	ldr	r4, [sp, #156]	@ 0x9c
10012cde:	f10d 09c8 	add.w	r9, sp, #200	@ 0xc8
10012ce2:	f7ff bbd8 	b.w	10012496 <_svfprintf_r+0x386>
10012ce6:	e9dd 100b 	ldrd	r1, r0, [sp, #44]	@ 0x2c
10012cea:	aa25      	add	r2, sp, #148	@ 0x94
10012cec:	f002 f9e4 	bl	100150b8 <__ssprint_r>
10012cf0:	2800      	cmp	r0, #0
10012cf2:	f47f ab78 	bne.w	100123e6 <_svfprintf_r+0x2d6>
10012cf6:	e9dd 6426 	ldrd	r6, r4, [sp, #152]	@ 0x98
10012cfa:	f10d 08c8 	add.w	r8, sp, #200	@ 0xc8
10012cfe:	e650      	b.n	100129a2 <_svfprintf_r+0x892>
10012d00:	e9dd 100b 	ldrd	r1, r0, [sp, #44]	@ 0x2c
10012d04:	aa25      	add	r2, sp, #148	@ 0x94
10012d06:	f002 f9d7 	bl	100150b8 <__ssprint_r>
10012d0a:	2800      	cmp	r0, #0
10012d0c:	f47f ab6b 	bne.w	100123e6 <_svfprintf_r+0x2d6>
10012d10:	e9dd 6426 	ldrd	r6, r4, [sp, #152]	@ 0x98
10012d14:	f10d 08c8 	add.w	r8, sp, #200	@ 0xc8
10012d18:	e650      	b.n	100129bc <_svfprintf_r+0x8ac>
10012d1a:	930d      	str	r3, [sp, #52]	@ 0x34
10012d1c:	f89b 3000 	ldrb.w	r3, [fp]
10012d20:	f7ff ba3d 	b.w	1001219e <_svfprintf_r+0x8e>
10012d24:	ad32      	add	r5, sp, #200	@ 0xc8
10012d26:	f7ff bb2a 	b.w	1001237e <_svfprintf_r+0x26e>
10012d2a:	f017 0240 	ands.w	r2, r7, #64	@ 0x40
10012d2e:	bf1c      	itt	ne
10012d30:	460a      	movne	r2, r1
10012d32:	b29b      	uxthne	r3, r3
10012d34:	2101      	movs	r1, #1
10012d36:	f7ff baf2 	b.w	1001231e <_svfprintf_r+0x20e>
10012d3a:	e9dd 0110 	ldrd	r0, r1, [sp, #64]	@ 0x40
10012d3e:	4602      	mov	r2, r0
10012d40:	460b      	mov	r3, r1
10012d42:	f004 fcb7 	bl	100176b4 <__aeabi_dcmpun>
10012d46:	2800      	cmp	r0, #0
10012d48:	f040 836d 	bne.w	10013426 <_svfprintf_r+0x1316>
10012d4c:	f1ba 3fff 	cmp.w	sl, #4294967295	@ 0xffffffff
10012d50:	f028 0620 	bic.w	r6, r8, #32
10012d54:	f000 830a 	beq.w	1001336c <_svfprintf_r+0x125c>
10012d58:	2e47      	cmp	r6, #71	@ 0x47
10012d5a:	d104      	bne.n	10012d66 <_svfprintf_r+0xc56>
10012d5c:	f1ba 0f00 	cmp.w	sl, #0
10012d60:	bf08      	it	eq
10012d62:	f04f 0a01 	moveq.w	sl, #1
10012d66:	e9dd 1210 	ldrd	r1, r2, [sp, #64]	@ 0x40
10012d6a:	f447 7080 	orr.w	r0, r7, #256	@ 0x100
10012d6e:	2a00      	cmp	r2, #0
10012d70:	9006      	str	r0, [sp, #24]
10012d72:	f2c0 8235 	blt.w	100131e0 <_svfprintf_r+0x10d0>
10012d76:	2300      	movs	r3, #0
10012d78:	930e      	str	r3, [sp, #56]	@ 0x38
10012d7a:	e9dd 3410 	ldrd	r3, r4, [sp, #64]	@ 0x40
10012d7e:	e9cd 341a 	strd	r3, r4, [sp, #104]	@ 0x68
10012d82:	f1b8 0f65 	cmp.w	r8, #101	@ 0x65
10012d86:	f000 8300 	beq.w	1001338a <_svfprintf_r+0x127a>
10012d8a:	f300 8230 	bgt.w	100131ee <_svfprintf_r+0x10de>
10012d8e:	f1b8 0f45 	cmp.w	r8, #69	@ 0x45
10012d92:	f000 82fa 	beq.w	1001338a <_svfprintf_r+0x127a>
10012d96:	ab23      	add	r3, sp, #140	@ 0x8c
10012d98:	9304      	str	r3, [sp, #16]
10012d9a:	ab20      	add	r3, sp, #128	@ 0x80
10012d9c:	9303      	str	r3, [sp, #12]
10012d9e:	ab1f      	add	r3, sp, #124	@ 0x7c
10012da0:	9302      	str	r3, [sp, #8]
10012da2:	2302      	movs	r3, #2
10012da4:	9300      	str	r3, [sp, #0]
10012da6:	980c      	ldr	r0, [sp, #48]	@ 0x30
10012da8:	f8cd a004 	str.w	sl, [sp, #4]
10012dac:	e9dd 231a 	ldrd	r2, r3, [sp, #104]	@ 0x68
10012db0:	f000 ff58 	bl	10013c64 <_dtoa_r>
10012db4:	07f9      	lsls	r1, r7, #31
10012db6:	4605      	mov	r5, r0
10012db8:	f140 80b1 	bpl.w	10012f1e <_svfprintf_r+0xe0e>
10012dbc:	eb00 040a 	add.w	r4, r0, sl
10012dc0:	e9dd 011a 	ldrd	r0, r1, [sp, #104]	@ 0x68
10012dc4:	2200      	movs	r2, #0
10012dc6:	2300      	movs	r3, #0
10012dc8:	f004 fc42 	bl	10017650 <__aeabi_dcmpeq>
10012dcc:	2800      	cmp	r0, #0
10012dce:	f040 8230 	bne.w	10013232 <_svfprintf_r+0x1122>
10012dd2:	9b23      	ldr	r3, [sp, #140]	@ 0x8c
10012dd4:	42a3      	cmp	r3, r4
10012dd6:	d206      	bcs.n	10012de6 <_svfprintf_r+0xcd6>
10012dd8:	2130      	movs	r1, #48	@ 0x30
10012dda:	1c5a      	adds	r2, r3, #1
10012ddc:	9223      	str	r2, [sp, #140]	@ 0x8c
10012dde:	7019      	strb	r1, [r3, #0]
10012de0:	9b23      	ldr	r3, [sp, #140]	@ 0x8c
10012de2:	429c      	cmp	r4, r3
10012de4:	d8f9      	bhi.n	10012dda <_svfprintf_r+0xcca>
10012de6:	9a1f      	ldr	r2, [sp, #124]	@ 0x7c
10012de8:	920f      	str	r2, [sp, #60]	@ 0x3c
10012dea:	1b5b      	subs	r3, r3, r5
10012dec:	2e47      	cmp	r6, #71	@ 0x47
10012dee:	9312      	str	r3, [sp, #72]	@ 0x48
10012df0:	f000 809a 	beq.w	10012f28 <_svfprintf_r+0xe18>
10012df4:	f1b8 0f66 	cmp.w	r8, #102	@ 0x66
10012df8:	f040 809c 	bne.w	10012f34 <_svfprintf_r+0xe24>
10012dfc:	9a0f      	ldr	r2, [sp, #60]	@ 0x3c
10012dfe:	f007 0301 	and.w	r3, r7, #1
10012e02:	2a00      	cmp	r2, #0
10012e04:	ea43 030a 	orr.w	r3, r3, sl
10012e08:	f340 826c 	ble.w	100132e4 <_svfprintf_r+0x11d4>
10012e0c:	2b00      	cmp	r3, #0
10012e0e:	f040 8324 	bne.w	1001345a <_svfprintf_r+0x134a>
10012e12:	9b0f      	ldr	r3, [sp, #60]	@ 0x3c
10012e14:	9307      	str	r3, [sp, #28]
10012e16:	930a      	str	r3, [sp, #40]	@ 0x28
10012e18:	f04f 0866 	mov.w	r8, #102	@ 0x66
10012e1c:	e21f      	b.n	1001325e <_svfprintf_r+0x114e>
10012e1e:	06fc      	lsls	r4, r7, #27
10012e20:	d478      	bmi.n	10012f14 <_svfprintf_r+0xe04>
10012e22:	0678      	lsls	r0, r7, #25
10012e24:	d576      	bpl.n	10012f14 <_svfprintf_r+0xe04>
10012e26:	9b0d      	ldr	r3, [sp, #52]	@ 0x34
10012e28:	9a09      	ldr	r2, [sp, #36]	@ 0x24
10012e2a:	681b      	ldr	r3, [r3, #0]
10012e2c:	801a      	strh	r2, [r3, #0]
10012e2e:	e479      	b.n	10012724 <_svfprintf_r+0x614>
10012e30:	4b21      	ldr	r3, [pc, #132]	@ (10012eb8 <_svfprintf_r+0xda8>)
10012e32:	9315      	str	r3, [sp, #84]	@ 0x54
10012e34:	f017 0220 	ands.w	r2, r7, #32
10012e38:	f000 80a8 	beq.w	10012f8c <_svfprintf_r+0xe7c>
10012e3c:	9b0d      	ldr	r3, [sp, #52]	@ 0x34
10012e3e:	3307      	adds	r3, #7
10012e40:	f023 0307 	bic.w	r3, r3, #7
10012e44:	4619      	mov	r1, r3
10012e46:	685a      	ldr	r2, [r3, #4]
10012e48:	f851 3b08 	ldr.w	r3, [r1], #8
10012e4c:	910d      	str	r1, [sp, #52]	@ 0x34
10012e4e:	07f9      	lsls	r1, r7, #31
10012e50:	f140 8099 	bpl.w	10012f86 <_svfprintf_r+0xe76>
10012e54:	ea53 0102 	orrs.w	r1, r3, r2
10012e58:	f000 8095 	beq.w	10012f86 <_svfprintf_r+0xe76>
10012e5c:	2130      	movs	r1, #48	@ 0x30
10012e5e:	f88d 1078 	strb.w	r1, [sp, #120]	@ 0x78
10012e62:	f88d 8079 	strb.w	r8, [sp, #121]	@ 0x79
10012e66:	f047 0702 	orr.w	r7, r7, #2
10012e6a:	2102      	movs	r1, #2
10012e6c:	f7ff ba57 	b.w	1001231e <_svfprintf_r+0x20e>
10012e70:	4b12      	ldr	r3, [pc, #72]	@ (10012ebc <_svfprintf_r+0xdac>)
10012e72:	9315      	str	r3, [sp, #84]	@ 0x54
10012e74:	e7de      	b.n	10012e34 <_svfprintf_r+0xd24>
10012e76:	9a06      	ldr	r2, [sp, #24]
10012e78:	07d0      	lsls	r0, r2, #31
10012e7a:	f57f ae9b 	bpl.w	10012bb4 <_svfprintf_r+0xaa4>
10012e7e:	e68b      	b.n	10012b98 <_svfprintf_r+0xa88>
10012e80:	980c      	ldr	r0, [sp, #48]	@ 0x30
10012e82:	2140      	movs	r1, #64	@ 0x40
10012e84:	f000 fba8 	bl	100135d8 <_malloc_r>
10012e88:	9b0b      	ldr	r3, [sp, #44]	@ 0x2c
10012e8a:	6018      	str	r0, [r3, #0]
10012e8c:	6118      	str	r0, [r3, #16]
10012e8e:	2800      	cmp	r0, #0
10012e90:	f000 82c1 	beq.w	10013416 <_svfprintf_r+0x1306>
10012e94:	9a0b      	ldr	r2, [sp, #44]	@ 0x2c
10012e96:	2340      	movs	r3, #64	@ 0x40
10012e98:	6153      	str	r3, [r2, #20]
10012e9a:	f7ff b950 	b.w	1001213e <_svfprintf_r+0x2e>
10012e9e:	2e10      	cmp	r6, #16
10012ea0:	9b26      	ldr	r3, [sp, #152]	@ 0x98
10012ea2:	4f04      	ldr	r7, [pc, #16]	@ (10012eb4 <_svfprintf_r+0xda4>)
10012ea4:	f340 816f 	ble.w	10013186 <_svfprintf_r+0x1076>
10012ea8:	4622      	mov	r2, r4
10012eaa:	f04f 0810 	mov.w	r8, #16
10012eae:	e9dd 4a0b 	ldrd	r4, sl, [sp, #44]	@ 0x2c
10012eb2:	e00b      	b.n	10012ecc <_svfprintf_r+0xdbc>
10012eb4:	10017e90 	.word	0x10017e90
10012eb8:	10017bec 	.word	0x10017bec
10012ebc:	10017c00 	.word	0x10017c00
10012ec0:	f109 0908 	add.w	r9, r9, #8
10012ec4:	3e10      	subs	r6, #16
10012ec6:	2e10      	cmp	r6, #16
10012ec8:	f340 815c 	ble.w	10013184 <_svfprintf_r+0x1074>
10012ecc:	3301      	adds	r3, #1
10012ece:	3210      	adds	r2, #16
10012ed0:	2b07      	cmp	r3, #7
10012ed2:	e9c9 7800 	strd	r7, r8, [r9]
10012ed6:	e9cd 3226 	strd	r3, r2, [sp, #152]	@ 0x98
10012eda:	ddf1      	ble.n	10012ec0 <_svfprintf_r+0xdb0>
10012edc:	aa25      	add	r2, sp, #148	@ 0x94
10012ede:	4621      	mov	r1, r4
10012ee0:	4650      	mov	r0, sl
10012ee2:	f002 f8e9 	bl	100150b8 <__ssprint_r>
10012ee6:	2800      	cmp	r0, #0
10012ee8:	f47f aa7d 	bne.w	100123e6 <_svfprintf_r+0x2d6>
10012eec:	e9dd 3226 	ldrd	r3, r2, [sp, #152]	@ 0x98
10012ef0:	f10d 09c8 	add.w	r9, sp, #200	@ 0xc8
10012ef4:	e7e6      	b.n	10012ec4 <_svfprintf_r+0xdb4>
10012ef6:	4628      	mov	r0, r5
10012ef8:	f7fc ff22 	bl	1000fd40 <strlen>
10012efc:	ea20 73e0 	bic.w	r3, r0, r0, asr #31
10012f00:	940d      	str	r4, [sp, #52]	@ 0x34
10012f02:	900a      	str	r0, [sp, #40]	@ 0x28
10012f04:	f89d 4077 	ldrb.w	r4, [sp, #119]	@ 0x77
10012f08:	9706      	str	r7, [sp, #24]
10012f0a:	46b2      	mov	sl, r6
10012f0c:	9307      	str	r3, [sp, #28]
10012f0e:	960f      	str	r6, [sp, #60]	@ 0x3c
10012f10:	f7ff ba3c 	b.w	1001238c <_svfprintf_r+0x27c>
10012f14:	9b0d      	ldr	r3, [sp, #52]	@ 0x34
10012f16:	9a09      	ldr	r2, [sp, #36]	@ 0x24
10012f18:	681b      	ldr	r3, [r3, #0]
10012f1a:	601a      	str	r2, [r3, #0]
10012f1c:	e402      	b.n	10012724 <_svfprintf_r+0x614>
10012f1e:	9b23      	ldr	r3, [sp, #140]	@ 0x8c
10012f20:	1a1b      	subs	r3, r3, r0
10012f22:	9312      	str	r3, [sp, #72]	@ 0x48
10012f24:	9b1f      	ldr	r3, [sp, #124]	@ 0x7c
10012f26:	930f      	str	r3, [sp, #60]	@ 0x3c
10012f28:	9b0f      	ldr	r3, [sp, #60]	@ 0x3c
10012f2a:	1cda      	adds	r2, r3, #3
10012f2c:	f280 8185 	bge.w	1001323a <_svfprintf_r+0x112a>
10012f30:	f1a8 0802 	sub.w	r8, r8, #2
10012f34:	9b0f      	ldr	r3, [sp, #60]	@ 0x3c
10012f36:	f88d 8084 	strb.w	r8, [sp, #132]	@ 0x84
10012f3a:	1e59      	subs	r1, r3, #1
10012f3c:	2900      	cmp	r1, #0
10012f3e:	911f      	str	r1, [sp, #124]	@ 0x7c
10012f40:	bfb6      	itet	lt
10012f42:	f1c3 0101 	rsblt	r1, r3, #1
10012f46:	232b      	movge	r3, #43	@ 0x2b
10012f48:	232d      	movlt	r3, #45	@ 0x2d
10012f4a:	2909      	cmp	r1, #9
10012f4c:	f88d 3085 	strb.w	r3, [sp, #133]	@ 0x85
10012f50:	f300 819e 	bgt.w	10013290 <_svfprintf_r+0x1180>
10012f54:	2330      	movs	r3, #48	@ 0x30
10012f56:	3130      	adds	r1, #48	@ 0x30
10012f58:	f88d 3086 	strb.w	r3, [sp, #134]	@ 0x86
10012f5c:	2304      	movs	r3, #4
10012f5e:	f88d 1087 	strb.w	r1, [sp, #135]	@ 0x87
10012f62:	9316      	str	r3, [sp, #88]	@ 0x58
10012f64:	9a12      	ldr	r2, [sp, #72]	@ 0x48
10012f66:	9b16      	ldr	r3, [sp, #88]	@ 0x58
10012f68:	2a01      	cmp	r2, #1
10012f6a:	4413      	add	r3, r2
10012f6c:	930a      	str	r3, [sp, #40]	@ 0x28
10012f6e:	f340 8216 	ble.w	1001339e <_svfprintf_r+0x128e>
10012f72:	9b0a      	ldr	r3, [sp, #40]	@ 0x28
10012f74:	9a13      	ldr	r2, [sp, #76]	@ 0x4c
10012f76:	4413      	add	r3, r2
10012f78:	930a      	str	r3, [sp, #40]	@ 0x28
10012f7a:	ea23 73e3 	bic.w	r3, r3, r3, asr #31
10012f7e:	9307      	str	r3, [sp, #28]
10012f80:	2300      	movs	r3, #0
10012f82:	930f      	str	r3, [sp, #60]	@ 0x3c
10012f84:	e16b      	b.n	1001325e <_svfprintf_r+0x114e>
10012f86:	2102      	movs	r1, #2
10012f88:	f7ff b9c9 	b.w	1001231e <_svfprintf_r+0x20e>
10012f8c:	990d      	ldr	r1, [sp, #52]	@ 0x34
10012f8e:	f851 3b04 	ldr.w	r3, [r1], #4
10012f92:	910d      	str	r1, [sp, #52]	@ 0x34
10012f94:	f017 0110 	ands.w	r1, r7, #16
10012f98:	f47f af59 	bne.w	10012e4e <_svfprintf_r+0xd3e>
10012f9c:	f017 0240 	ands.w	r2, r7, #64	@ 0x40
10012fa0:	bf1c      	itt	ne
10012fa2:	b29b      	uxthne	r3, r3
10012fa4:	460a      	movne	r2, r1
10012fa6:	e752      	b.n	10012e4e <_svfprintf_r+0xd3e>
10012fa8:	e9cd 8706 	strd	r8, r7, [sp, #24]
10012fac:	4eb4      	ldr	r6, [pc, #720]	@ (10013280 <_svfprintf_r+0x1170>)
10012fae:	ad32      	add	r5, sp, #200	@ 0xc8
10012fb0:	f04f 0e05 	mov.w	lr, #5
10012fb4:	1899      	adds	r1, r3, r2
10012fb6:	f141 0100 	adc.w	r1, r1, #0
10012fba:	fba6 0701 	umull	r0, r7, r6, r1
10012fbe:	f027 0003 	bic.w	r0, r7, #3
10012fc2:	eb00 0097 	add.w	r0, r0, r7, lsr #2
10012fc6:	1a09      	subs	r1, r1, r0
10012fc8:	1a58      	subs	r0, r3, r1
10012fca:	4698      	mov	r8, r3
10012fcc:	4694      	mov	ip, r2
10012fce:	f162 0300 	sbc.w	r3, r2, #0
10012fd2:	f04f 32cc 	mov.w	r2, #3435973836	@ 0xcccccccc
10012fd6:	fb02 f200 	mul.w	r2, r2, r0
10012fda:	fb06 2203 	mla	r2, r6, r3, r2
10012fde:	fba0 3006 	umull	r3, r0, r0, r6
10012fe2:	f003 0701 	and.w	r7, r3, #1
10012fe6:	4402      	add	r2, r0
10012fe8:	fba7 070e 	umull	r0, r7, r7, lr
10012fec:	1840      	adds	r0, r0, r1
10012fee:	f1b8 0f0a 	cmp.w	r8, #10
10012ff2:	ea4f 0353 	mov.w	r3, r3, lsr #1
10012ff6:	f100 0030 	add.w	r0, r0, #48	@ 0x30
10012ffa:	f17c 0c00 	sbcs.w	ip, ip, #0
10012ffe:	ea43 73c2 	orr.w	r3, r3, r2, lsl #31
10013002:	f805 0d01 	strb.w	r0, [r5, #-1]!
10013006:	ea4f 0252 	mov.w	r2, r2, lsr #1
1001300a:	d2d3      	bcs.n	10012fb4 <_svfprintf_r+0xea4>
1001300c:	e9dd 8706 	ldrd	r8, r7, [sp, #24]
10013010:	ab32      	add	r3, sp, #200	@ 0xc8
10013012:	1b5b      	subs	r3, r3, r5
10013014:	9706      	str	r7, [sp, #24]
10013016:	930a      	str	r3, [sp, #40]	@ 0x28
10013018:	f7ff b9b1 	b.w	1001237e <_svfprintf_r+0x26e>
1001301c:	e9dd 100b 	ldrd	r1, r0, [sp, #44]	@ 0x2c
10013020:	aa25      	add	r2, sp, #148	@ 0x94
10013022:	9317      	str	r3, [sp, #92]	@ 0x5c
10013024:	f002 f848 	bl	100150b8 <__ssprint_r>
10013028:	2800      	cmp	r0, #0
1001302a:	f47f a9dc 	bne.w	100123e6 <_svfprintf_r+0x2d6>
1001302e:	9c27      	ldr	r4, [sp, #156]	@ 0x9c
10013030:	9b17      	ldr	r3, [sp, #92]	@ 0x5c
10013032:	f10d 09c8 	add.w	r9, sp, #200	@ 0xc8
10013036:	f7ff b9fd 	b.w	10012434 <_svfprintf_r+0x324>
1001303a:	9b26      	ldr	r3, [sp, #152]	@ 0x98
1001303c:	4a91      	ldr	r2, [pc, #580]	@ (10013284 <_svfprintf_r+0x1174>)
1001303e:	f8c9 2000 	str.w	r2, [r9]
10013042:	3301      	adds	r3, #1
10013044:	3401      	adds	r4, #1
10013046:	2201      	movs	r2, #1
10013048:	2b07      	cmp	r3, #7
1001304a:	9427      	str	r4, [sp, #156]	@ 0x9c
1001304c:	9326      	str	r3, [sp, #152]	@ 0x98
1001304e:	f8c9 2004 	str.w	r2, [r9, #4]
10013052:	f300 80b8 	bgt.w	100131c6 <_svfprintf_r+0x10b6>
10013056:	f109 0908 	add.w	r9, r9, #8
1001305a:	2900      	cmp	r1, #0
1001305c:	d152      	bne.n	10013104 <_svfprintf_r+0xff4>
1001305e:	9b06      	ldr	r3, [sp, #24]
10013060:	9a12      	ldr	r2, [sp, #72]	@ 0x48
10013062:	f003 0301 	and.w	r3, r3, #1
10013066:	4313      	orrs	r3, r2
10013068:	f43f aa28 	beq.w	100124bc <_svfprintf_r+0x3ac>
1001306c:	9b13      	ldr	r3, [sp, #76]	@ 0x4c
1001306e:	9914      	ldr	r1, [sp, #80]	@ 0x50
10013070:	191a      	adds	r2, r3, r4
10013072:	e9c9 1300 	strd	r1, r3, [r9]
10013076:	9b26      	ldr	r3, [sp, #152]	@ 0x98
10013078:	9227      	str	r2, [sp, #156]	@ 0x9c
1001307a:	3301      	adds	r3, #1
1001307c:	2b07      	cmp	r3, #7
1001307e:	9326      	str	r3, [sp, #152]	@ 0x98
10013080:	f300 8139 	bgt.w	100132f6 <_svfprintf_r+0x11e6>
10013084:	f109 0908 	add.w	r9, r9, #8
10013088:	9912      	ldr	r1, [sp, #72]	@ 0x48
1001308a:	f8c9 5000 	str.w	r5, [r9]
1001308e:	3301      	adds	r3, #1
10013090:	188c      	adds	r4, r1, r2
10013092:	2b07      	cmp	r3, #7
10013094:	e9cd 3426 	strd	r3, r4, [sp, #152]	@ 0x98
10013098:	f8c9 1004 	str.w	r1, [r9, #4]
1001309c:	f77f aa0c 	ble.w	100124b8 <_svfprintf_r+0x3a8>
100130a0:	e45e      	b.n	10012960 <_svfprintf_r+0x850>
100130a2:	e9dd 100b 	ldrd	r1, r0, [sp, #44]	@ 0x2c
100130a6:	aa25      	add	r2, sp, #148	@ 0x94
100130a8:	f002 f806 	bl	100150b8 <__ssprint_r>
100130ac:	2800      	cmp	r0, #0
100130ae:	f47f a99a 	bne.w	100123e6 <_svfprintf_r+0x2d6>
100130b2:	9c27      	ldr	r4, [sp, #156]	@ 0x9c
100130b4:	f10d 09c8 	add.w	r9, sp, #200	@ 0xc8
100130b8:	f7ff bb55 	b.w	10012766 <_svfprintf_r+0x656>
100130bc:	e9dd 100b 	ldrd	r1, r0, [sp, #44]	@ 0x2c
100130c0:	aa25      	add	r2, sp, #148	@ 0x94
100130c2:	f001 fff9 	bl	100150b8 <__ssprint_r>
100130c6:	2800      	cmp	r0, #0
100130c8:	f47f a98d 	bne.w	100123e6 <_svfprintf_r+0x2d6>
100130cc:	9c27      	ldr	r4, [sp, #156]	@ 0x9c
100130ce:	f10d 09c8 	add.w	r9, sp, #200	@ 0xc8
100130d2:	f7ff b9da 	b.w	1001248a <_svfprintf_r+0x37a>
100130d6:	e9dd 100b 	ldrd	r1, r0, [sp, #44]	@ 0x2c
100130da:	aa25      	add	r2, sp, #148	@ 0x94
100130dc:	f001 ffec 	bl	100150b8 <__ssprint_r>
100130e0:	2800      	cmp	r0, #0
100130e2:	f47f a980 	bne.w	100123e6 <_svfprintf_r+0x2d6>
100130e6:	9c27      	ldr	r4, [sp, #156]	@ 0x9c
100130e8:	f10d 09c8 	add.w	r9, sp, #200	@ 0xc8
100130ec:	f7ff bb51 	b.w	10012792 <_svfprintf_r+0x682>
100130f0:	4653      	mov	r3, sl
100130f2:	2b06      	cmp	r3, #6
100130f4:	bf28      	it	cs
100130f6:	2306      	movcs	r3, #6
100130f8:	4d63      	ldr	r5, [pc, #396]	@ (10013288 <_svfprintf_r+0x1178>)
100130fa:	930a      	str	r3, [sp, #40]	@ 0x28
100130fc:	940d      	str	r4, [sp, #52]	@ 0x34
100130fe:	9307      	str	r3, [sp, #28]
10013100:	f7ff b986 	b.w	10012410 <_svfprintf_r+0x300>
10013104:	9b13      	ldr	r3, [sp, #76]	@ 0x4c
10013106:	9814      	ldr	r0, [sp, #80]	@ 0x50
10013108:	191a      	adds	r2, r3, r4
1001310a:	e9c9 0300 	strd	r0, r3, [r9]
1001310e:	9b26      	ldr	r3, [sp, #152]	@ 0x98
10013110:	9227      	str	r2, [sp, #156]	@ 0x9c
10013112:	3301      	adds	r3, #1
10013114:	2b07      	cmp	r3, #7
10013116:	9326      	str	r3, [sp, #152]	@ 0x98
10013118:	f300 80ed 	bgt.w	100132f6 <_svfprintf_r+0x11e6>
1001311c:	f109 0908 	add.w	r9, r9, #8
10013120:	2900      	cmp	r1, #0
10013122:	dab1      	bge.n	10013088 <_svfprintf_r+0xf78>
10013124:	424e      	negs	r6, r1
10013126:	3110      	adds	r1, #16
10013128:	4f58      	ldr	r7, [pc, #352]	@ (1001328c <_svfprintf_r+0x117c>)
1001312a:	f280 8141 	bge.w	100133b0 <_svfprintf_r+0x12a0>
1001312e:	e9dd a80b 	ldrd	sl, r8, [sp, #44]	@ 0x2c
10013132:	2410      	movs	r4, #16
10013134:	e005      	b.n	10013142 <_svfprintf_r+0x1032>
10013136:	f109 0908 	add.w	r9, r9, #8
1001313a:	3e10      	subs	r6, #16
1001313c:	2e10      	cmp	r6, #16
1001313e:	f340 8137 	ble.w	100133b0 <_svfprintf_r+0x12a0>
10013142:	3301      	adds	r3, #1
10013144:	3210      	adds	r2, #16
10013146:	2b07      	cmp	r3, #7
10013148:	e9c9 7400 	strd	r7, r4, [r9]
1001314c:	e9cd 3226 	strd	r3, r2, [sp, #152]	@ 0x98
10013150:	ddf1      	ble.n	10013136 <_svfprintf_r+0x1026>
10013152:	aa25      	add	r2, sp, #148	@ 0x94
10013154:	4651      	mov	r1, sl
10013156:	4640      	mov	r0, r8
10013158:	f001 ffae 	bl	100150b8 <__ssprint_r>
1001315c:	2800      	cmp	r0, #0
1001315e:	f47f a942 	bne.w	100123e6 <_svfprintf_r+0x2d6>
10013162:	e9dd 3226 	ldrd	r3, r2, [sp, #152]	@ 0x98
10013166:	f10d 09c8 	add.w	r9, sp, #200	@ 0xc8
1001316a:	e7e6      	b.n	1001313a <_svfprintf_r+0x102a>
1001316c:	3601      	adds	r6, #1
1001316e:	444c      	add	r4, r9
10013170:	2e07      	cmp	r6, #7
10013172:	e9cd 6426 	strd	r6, r4, [sp, #152]	@ 0x98
10013176:	f8c8 7000 	str.w	r7, [r8]
1001317a:	f8c8 9004 	str.w	r9, [r8, #4]
1001317e:	f77f ac35 	ble.w	100129ec <_svfprintf_r+0x8dc>
10013182:	e56d      	b.n	10012c60 <_svfprintf_r+0xb50>
10013184:	4614      	mov	r4, r2
10013186:	3301      	adds	r3, #1
10013188:	4434      	add	r4, r6
1001318a:	2b07      	cmp	r3, #7
1001318c:	e9cd 3426 	strd	r3, r4, [sp, #152]	@ 0x98
10013190:	f8c9 7000 	str.w	r7, [r9]
10013194:	f8c9 6004 	str.w	r6, [r9, #4]
10013198:	f300 80bb 	bgt.w	10013312 <_svfprintf_r+0x1202>
1001319c:	f109 0908 	add.w	r9, r9, #8
100131a0:	e4f5      	b.n	10012b8e <_svfprintf_r+0xa7e>
100131a2:	242d      	movs	r4, #45	@ 0x2d
100131a4:	f88d 4077 	strb.w	r4, [sp, #119]	@ 0x77
100131a8:	f7ff b9cd 	b.w	10012546 <_svfprintf_r+0x436>
100131ac:	e9dd 100b 	ldrd	r1, r0, [sp, #44]	@ 0x2c
100131b0:	aa25      	add	r2, sp, #148	@ 0x94
100131b2:	f001 ff81 	bl	100150b8 <__ssprint_r>
100131b6:	2800      	cmp	r0, #0
100131b8:	f47f a915 	bne.w	100123e6 <_svfprintf_r+0x2d6>
100131bc:	9b1f      	ldr	r3, [sp, #124]	@ 0x7c
100131be:	9c27      	ldr	r4, [sp, #156]	@ 0x9c
100131c0:	f10d 09c8 	add.w	r9, sp, #200	@ 0xc8
100131c4:	e4f6      	b.n	10012bb4 <_svfprintf_r+0xaa4>
100131c6:	e9dd 100b 	ldrd	r1, r0, [sp, #44]	@ 0x2c
100131ca:	aa25      	add	r2, sp, #148	@ 0x94
100131cc:	f001 ff74 	bl	100150b8 <__ssprint_r>
100131d0:	2800      	cmp	r0, #0
100131d2:	f47f a908 	bne.w	100123e6 <_svfprintf_r+0x2d6>
100131d6:	991f      	ldr	r1, [sp, #124]	@ 0x7c
100131d8:	9c27      	ldr	r4, [sp, #156]	@ 0x9c
100131da:	f10d 09c8 	add.w	r9, sp, #200	@ 0xc8
100131de:	e73c      	b.n	1001305a <_svfprintf_r+0xf4a>
100131e0:	f102 4300 	add.w	r3, r2, #2147483648	@ 0x80000000
100131e4:	931b      	str	r3, [sp, #108]	@ 0x6c
100131e6:	232d      	movs	r3, #45	@ 0x2d
100131e8:	911a      	str	r1, [sp, #104]	@ 0x68
100131ea:	930e      	str	r3, [sp, #56]	@ 0x38
100131ec:	e5c9      	b.n	10012d82 <_svfprintf_r+0xc72>
100131ee:	f1b8 0f66 	cmp.w	r8, #102	@ 0x66
100131f2:	f47f add0 	bne.w	10012d96 <_svfprintf_r+0xc86>
100131f6:	f8cd a01c 	str.w	sl, [sp, #28]
100131fa:	2303      	movs	r3, #3
100131fc:	9300      	str	r3, [sp, #0]
100131fe:	ab23      	add	r3, sp, #140	@ 0x8c
10013200:	9304      	str	r3, [sp, #16]
10013202:	ab20      	add	r3, sp, #128	@ 0x80
10013204:	9c07      	ldr	r4, [sp, #28]
10013206:	9303      	str	r3, [sp, #12]
10013208:	ab1f      	add	r3, sp, #124	@ 0x7c
1001320a:	9401      	str	r4, [sp, #4]
1001320c:	9302      	str	r3, [sp, #8]
1001320e:	980c      	ldr	r0, [sp, #48]	@ 0x30
10013210:	e9dd 231a 	ldrd	r2, r3, [sp, #104]	@ 0x68
10013214:	f000 fd26 	bl	10013c64 <_dtoa_r>
10013218:	f1b8 0f66 	cmp.w	r8, #102	@ 0x66
1001321c:	4605      	mov	r5, r0
1001321e:	4404      	add	r4, r0
10013220:	f47f adce 	bne.w	10012dc0 <_svfprintf_r+0xcb0>
10013224:	782b      	ldrb	r3, [r5, #0]
10013226:	2b30      	cmp	r3, #48	@ 0x30
10013228:	f000 80e7 	beq.w	100133fa <_svfprintf_r+0x12ea>
1001322c:	9b1f      	ldr	r3, [sp, #124]	@ 0x7c
1001322e:	441c      	add	r4, r3
10013230:	e5c6      	b.n	10012dc0 <_svfprintf_r+0xcb0>
10013232:	9a1f      	ldr	r2, [sp, #124]	@ 0x7c
10013234:	920f      	str	r2, [sp, #60]	@ 0x3c
10013236:	4623      	mov	r3, r4
10013238:	e5d7      	b.n	10012dea <_svfprintf_r+0xcda>
1001323a:	459a      	cmp	sl, r3
1001323c:	f6ff ae78 	blt.w	10012f30 <_svfprintf_r+0xe20>
10013240:	9b12      	ldr	r3, [sp, #72]	@ 0x48
10013242:	9a0f      	ldr	r2, [sp, #60]	@ 0x3c
10013244:	4293      	cmp	r3, r2
10013246:	f300 80cb 	bgt.w	100133e0 <_svfprintf_r+0x12d0>
1001324a:	07fe      	lsls	r6, r7, #31
1001324c:	9b0f      	ldr	r3, [sp, #60]	@ 0x3c
1001324e:	f100 80fb 	bmi.w	10013448 <_svfprintf_r+0x1338>
10013252:	ea23 72e3 	bic.w	r2, r3, r3, asr #31
10013256:	9207      	str	r2, [sp, #28]
10013258:	930a      	str	r3, [sp, #40]	@ 0x28
1001325a:	f04f 0867 	mov.w	r8, #103	@ 0x67
1001325e:	9b0e      	ldr	r3, [sp, #56]	@ 0x38
10013260:	2b00      	cmp	r3, #0
10013262:	d062      	beq.n	1001332a <_svfprintf_r+0x121a>
10013264:	232d      	movs	r3, #45	@ 0x2d
10013266:	f88d 3077 	strb.w	r3, [sp, #119]	@ 0x77
1001326a:	f04f 0a00 	mov.w	sl, #0
1001326e:	f7ff b88e 	b.w	1001238e <_svfprintf_r+0x27e>
10013272:	e9dd 100b 	ldrd	r1, r0, [sp, #44]	@ 0x2c
10013276:	aa25      	add	r2, sp, #148	@ 0x94
10013278:	f001 ff1e 	bl	100150b8 <__ssprint_r>
1001327c:	f7ff b8b3 	b.w	100123e6 <_svfprintf_r+0x2d6>
10013280:	cccccccd 	.word	0xcccccccd
10013284:	10017c1c 	.word	0x10017c1c
10013288:	10017c14 	.word	0x10017c14
1001328c:	10017e90 	.word	0x10017e90
10013290:	f10d 0493 	add.w	r4, sp, #147	@ 0x93
10013294:	4e8d      	ldr	r6, [pc, #564]	@ (100134cc <_svfprintf_r+0x13bc>)
10013296:	4623      	mov	r3, r4
10013298:	4618      	mov	r0, r3
1001329a:	fba6 2301 	umull	r2, r3, r6, r1
1001329e:	08db      	lsrs	r3, r3, #3
100132a0:	eb03 0283 	add.w	r2, r3, r3, lsl #2
100132a4:	eba1 0242 	sub.w	r2, r1, r2, lsl #1
100132a8:	3230      	adds	r2, #48	@ 0x30
100132aa:	f800 2c01 	strb.w	r2, [r0, #-1]
100132ae:	460a      	mov	r2, r1
100132b0:	2a63      	cmp	r2, #99	@ 0x63
100132b2:	4619      	mov	r1, r3
100132b4:	f100 33ff 	add.w	r3, r0, #4294967295	@ 0xffffffff
100132b8:	dcee      	bgt.n	10013298 <_svfprintf_r+0x1188>
100132ba:	3130      	adds	r1, #48	@ 0x30
100132bc:	f803 1c01 	strb.w	r1, [r3, #-1]
100132c0:	1e83      	subs	r3, r0, #2
100132c2:	42a3      	cmp	r3, r4
100132c4:	f080 80fe 	bcs.w	100134c4 <_svfprintf_r+0x13b4>
100132c8:	f10d 0285 	add.w	r2, sp, #133	@ 0x85
100132cc:	f813 1b01 	ldrb.w	r1, [r3], #1
100132d0:	f802 1f01 	strb.w	r1, [r2, #1]!
100132d4:	42a3      	cmp	r3, r4
100132d6:	d1f9      	bne.n	100132cc <_svfprintf_r+0x11bc>
100132d8:	ab42      	add	r3, sp, #264	@ 0x108
100132da:	1a18      	subs	r0, r3, r0
100132dc:	f1a0 0371 	sub.w	r3, r0, #113	@ 0x71
100132e0:	9316      	str	r3, [sp, #88]	@ 0x58
100132e2:	e63f      	b.n	10012f64 <_svfprintf_r+0xe54>
100132e4:	2b00      	cmp	r3, #0
100132e6:	f040 80d0 	bne.w	1001348a <_svfprintf_r+0x137a>
100132ea:	2301      	movs	r3, #1
100132ec:	9307      	str	r3, [sp, #28]
100132ee:	f04f 0866 	mov.w	r8, #102	@ 0x66
100132f2:	930a      	str	r3, [sp, #40]	@ 0x28
100132f4:	e7b3      	b.n	1001325e <_svfprintf_r+0x114e>
100132f6:	e9dd 100b 	ldrd	r1, r0, [sp, #44]	@ 0x2c
100132fa:	aa25      	add	r2, sp, #148	@ 0x94
100132fc:	f001 fedc 	bl	100150b8 <__ssprint_r>
10013300:	2800      	cmp	r0, #0
10013302:	f47f a870 	bne.w	100123e6 <_svfprintf_r+0x2d6>
10013306:	e9dd 3226 	ldrd	r3, r2, [sp, #152]	@ 0x98
1001330a:	991f      	ldr	r1, [sp, #124]	@ 0x7c
1001330c:	f10d 09c8 	add.w	r9, sp, #200	@ 0xc8
10013310:	e706      	b.n	10013120 <_svfprintf_r+0x1010>
10013312:	e9dd 100b 	ldrd	r1, r0, [sp, #44]	@ 0x2c
10013316:	aa25      	add	r2, sp, #148	@ 0x94
10013318:	f001 fece 	bl	100150b8 <__ssprint_r>
1001331c:	2800      	cmp	r0, #0
1001331e:	f47f a862 	bne.w	100123e6 <_svfprintf_r+0x2d6>
10013322:	9c27      	ldr	r4, [sp, #156]	@ 0x9c
10013324:	f10d 09c8 	add.w	r9, sp, #200	@ 0xc8
10013328:	e431      	b.n	10012b8e <_svfprintf_r+0xa7e>
1001332a:	f8dd a038 	ldr.w	sl, [sp, #56]	@ 0x38
1001332e:	f89d 4077 	ldrb.w	r4, [sp, #119]	@ 0x77
10013332:	f7ff b82b 	b.w	1001238c <_svfprintf_r+0x27c>
10013336:	e9dd 100b 	ldrd	r1, r0, [sp, #44]	@ 0x2c
1001333a:	aa25      	add	r2, sp, #148	@ 0x94
1001333c:	f001 febc 	bl	100150b8 <__ssprint_r>
10013340:	2800      	cmp	r0, #0
10013342:	f47f a850 	bne.w	100123e6 <_svfprintf_r+0x2d6>
10013346:	9c27      	ldr	r4, [sp, #156]	@ 0x9c
10013348:	f10d 09c8 	add.w	r9, sp, #200	@ 0xc8
1001334c:	e418      	b.n	10012b80 <_svfprintf_r+0xa70>
1001334e:	e9dd 100b 	ldrd	r1, r0, [sp, #44]	@ 0x2c
10013352:	aa25      	add	r2, sp, #148	@ 0x94
10013354:	f001 feb0 	bl	100150b8 <__ssprint_r>
10013358:	2800      	cmp	r0, #0
1001335a:	f47f a844 	bne.w	100123e6 <_svfprintf_r+0x2d6>
1001335e:	9b1f      	ldr	r3, [sp, #124]	@ 0x7c
10013360:	9a12      	ldr	r2, [sp, #72]	@ 0x48
10013362:	9c27      	ldr	r4, [sp, #156]	@ 0x9c
10013364:	1ad3      	subs	r3, r2, r3
10013366:	f10d 09c8 	add.w	r9, sp, #200	@ 0xc8
1001336a:	e43b      	b.n	10012be4 <_svfprintf_r+0xad4>
1001336c:	f04f 0a06 	mov.w	sl, #6
10013370:	e4f9      	b.n	10012d66 <_svfprintf_r+0xc56>
10013372:	940d      	str	r4, [sp, #52]	@ 0x34
10013374:	f8cd a01c 	str.w	sl, [sp, #28]
10013378:	f8cd a028 	str.w	sl, [sp, #40]	@ 0x28
1001337c:	f89d 4077 	ldrb.w	r4, [sp, #119]	@ 0x77
10013380:	9706      	str	r7, [sp, #24]
10013382:	4682      	mov	sl, r0
10013384:	900f      	str	r0, [sp, #60]	@ 0x3c
10013386:	f7ff b801 	b.w	1001238c <_svfprintf_r+0x27c>
1001338a:	f10a 0301 	add.w	r3, sl, #1
1001338e:	9307      	str	r3, [sp, #28]
10013390:	2302      	movs	r3, #2
10013392:	e733      	b.n	100131fc <_svfprintf_r+0x10ec>
10013394:	4693      	mov	fp, r2
10013396:	f04f 0a00 	mov.w	sl, #0
1001339a:	f7fe bf03 	b.w	100121a4 <_svfprintf_r+0x94>
1001339e:	f017 0201 	ands.w	r2, r7, #1
100133a2:	920f      	str	r2, [sp, #60]	@ 0x3c
100133a4:	f47f ade5 	bne.w	10012f72 <_svfprintf_r+0xe62>
100133a8:	ea23 73e3 	bic.w	r3, r3, r3, asr #31
100133ac:	9307      	str	r3, [sp, #28]
100133ae:	e756      	b.n	1001325e <_svfprintf_r+0x114e>
100133b0:	3301      	adds	r3, #1
100133b2:	4432      	add	r2, r6
100133b4:	2b07      	cmp	r3, #7
100133b6:	e9cd 3226 	strd	r3, r2, [sp, #152]	@ 0x98
100133ba:	f8c9 7000 	str.w	r7, [r9]
100133be:	f8c9 6004 	str.w	r6, [r9, #4]
100133c2:	f77f ae5f 	ble.w	10013084 <_svfprintf_r+0xf74>
100133c6:	e9dd 100b 	ldrd	r1, r0, [sp, #44]	@ 0x2c
100133ca:	aa25      	add	r2, sp, #148	@ 0x94
100133cc:	f001 fe74 	bl	100150b8 <__ssprint_r>
100133d0:	2800      	cmp	r0, #0
100133d2:	f47f a808 	bne.w	100123e6 <_svfprintf_r+0x2d6>
100133d6:	e9dd 3226 	ldrd	r3, r2, [sp, #152]	@ 0x98
100133da:	f10d 09c8 	add.w	r9, sp, #200	@ 0xc8
100133de:	e653      	b.n	10013088 <_svfprintf_r+0xf78>
100133e0:	e9dd 3212 	ldrd	r3, r2, [sp, #72]	@ 0x48
100133e4:	4413      	add	r3, r2
100133e6:	9a0f      	ldr	r2, [sp, #60]	@ 0x3c
100133e8:	930a      	str	r3, [sp, #40]	@ 0x28
100133ea:	2a00      	cmp	r2, #0
100133ec:	dd41      	ble.n	10013472 <_svfprintf_r+0x1362>
100133ee:	ea23 73e3 	bic.w	r3, r3, r3, asr #31
100133f2:	9307      	str	r3, [sp, #28]
100133f4:	f04f 0867 	mov.w	r8, #103	@ 0x67
100133f8:	e731      	b.n	1001325e <_svfprintf_r+0x114e>
100133fa:	e9dd 011a 	ldrd	r0, r1, [sp, #104]	@ 0x68
100133fe:	2200      	movs	r2, #0
10013400:	2300      	movs	r3, #0
10013402:	f004 f925 	bl	10017650 <__aeabi_dcmpeq>
10013406:	2800      	cmp	r0, #0
10013408:	d04b      	beq.n	100134a2 <_svfprintf_r+0x1392>
1001340a:	9b1f      	ldr	r3, [sp, #124]	@ 0x7c
1001340c:	930f      	str	r3, [sp, #60]	@ 0x3c
1001340e:	441c      	add	r4, r3
10013410:	1b63      	subs	r3, r4, r5
10013412:	9312      	str	r3, [sp, #72]	@ 0x48
10013414:	e4f2      	b.n	10012dfc <_svfprintf_r+0xcec>
10013416:	9a0c      	ldr	r2, [sp, #48]	@ 0x30
10013418:	230c      	movs	r3, #12
1001341a:	6013      	str	r3, [r2, #0]
1001341c:	f04f 33ff 	mov.w	r3, #4294967295	@ 0xffffffff
10013420:	9309      	str	r3, [sp, #36]	@ 0x24
10013422:	f7fe bfe5 	b.w	100123f0 <_svfprintf_r+0x2e0>
10013426:	9b11      	ldr	r3, [sp, #68]	@ 0x44
10013428:	4d29      	ldr	r5, [pc, #164]	@ (100134d0 <_svfprintf_r+0x13c0>)
1001342a:	2b00      	cmp	r3, #0
1001342c:	bfb8      	it	lt
1001342e:	242d      	movlt	r4, #45	@ 0x2d
10013430:	f027 0380 	bic.w	r3, r7, #128	@ 0x80
10013434:	9306      	str	r3, [sp, #24]
10013436:	bfa8      	it	ge
10013438:	f89d 4077 	ldrbge.w	r4, [sp, #119]	@ 0x77
1001343c:	4b25      	ldr	r3, [pc, #148]	@ (100134d4 <_svfprintf_r+0x13c4>)
1001343e:	bfb8      	it	lt
10013440:	f88d 4077 	strblt.w	r4, [sp, #119]	@ 0x77
10013444:	f7ff b884 	b.w	10012550 <_svfprintf_r+0x440>
10013448:	9a13      	ldr	r2, [sp, #76]	@ 0x4c
1001344a:	4413      	add	r3, r2
1001344c:	930a      	str	r3, [sp, #40]	@ 0x28
1001344e:	ea23 73e3 	bic.w	r3, r3, r3, asr #31
10013452:	9307      	str	r3, [sp, #28]
10013454:	f04f 0867 	mov.w	r8, #103	@ 0x67
10013458:	e701      	b.n	1001325e <_svfprintf_r+0x114e>
1001345a:	9b13      	ldr	r3, [sp, #76]	@ 0x4c
1001345c:	eb0a 0803 	add.w	r8, sl, r3
10013460:	eb08 0302 	add.w	r3, r8, r2
10013464:	930a      	str	r3, [sp, #40]	@ 0x28
10013466:	ea23 73e3 	bic.w	r3, r3, r3, asr #31
1001346a:	9307      	str	r3, [sp, #28]
1001346c:	f04f 0866 	mov.w	r8, #102	@ 0x66
10013470:	e6f5      	b.n	1001325e <_svfprintf_r+0x114e>
10013472:	9b0f      	ldr	r3, [sp, #60]	@ 0x3c
10013474:	9a0a      	ldr	r2, [sp, #40]	@ 0x28
10013476:	f1c3 0301 	rsb	r3, r3, #1
1001347a:	441a      	add	r2, r3
1001347c:	ea22 73e2 	bic.w	r3, r2, r2, asr #31
10013480:	920a      	str	r2, [sp, #40]	@ 0x28
10013482:	9307      	str	r3, [sp, #28]
10013484:	f04f 0867 	mov.w	r8, #103	@ 0x67
10013488:	e6e9      	b.n	1001325e <_svfprintf_r+0x114e>
1001348a:	9b13      	ldr	r3, [sp, #76]	@ 0x4c
1001348c:	f103 0801 	add.w	r8, r3, #1
10013490:	eb08 030a 	add.w	r3, r8, sl
10013494:	930a      	str	r3, [sp, #40]	@ 0x28
10013496:	ea23 73e3 	bic.w	r3, r3, r3, asr #31
1001349a:	9307      	str	r3, [sp, #28]
1001349c:	f04f 0866 	mov.w	r8, #102	@ 0x66
100134a0:	e6dd      	b.n	1001325e <_svfprintf_r+0x114e>
100134a2:	9b07      	ldr	r3, [sp, #28]
100134a4:	f1c3 0301 	rsb	r3, r3, #1
100134a8:	931f      	str	r3, [sp, #124]	@ 0x7c
100134aa:	441c      	add	r4, r3
100134ac:	e488      	b.n	10012dc0 <_svfprintf_r+0xcb0>
100134ae:	990d      	ldr	r1, [sp, #52]	@ 0x34
100134b0:	f89b 3001 	ldrb.w	r3, [fp, #1]
100134b4:	f851 ab04 	ldr.w	sl, [r1], #4
100134b8:	910d      	str	r1, [sp, #52]	@ 0x34
100134ba:	4693      	mov	fp, r2
100134bc:	ea4a 7aea 	orr.w	sl, sl, sl, asr #31
100134c0:	f7fe be6d 	b.w	1001219e <_svfprintf_r+0x8e>
100134c4:	2302      	movs	r3, #2
100134c6:	9316      	str	r3, [sp, #88]	@ 0x58
100134c8:	e54c      	b.n	10012f64 <_svfprintf_r+0xe54>
100134ca:	bf00      	nop
100134cc:	cccccccd 	.word	0xcccccccd
100134d0:	10017be8 	.word	0x10017be8
100134d4:	10017be4 	.word	0x10017be4

100134d8 <memmove>:
100134d8:	4288      	cmp	r0, r1
100134da:	d90e      	bls.n	100134fa <memmove+0x22>
100134dc:	188b      	adds	r3, r1, r2
100134de:	4283      	cmp	r3, r0
100134e0:	d90b      	bls.n	100134fa <memmove+0x22>
100134e2:	eb00 0c02 	add.w	ip, r0, r2
100134e6:	2a00      	cmp	r2, #0
100134e8:	d06e      	beq.n	100135c8 <memmove+0xf0>
100134ea:	4662      	mov	r2, ip
100134ec:	f813 cd01 	ldrb.w	ip, [r3, #-1]!
100134f0:	f802 cd01 	strb.w	ip, [r2, #-1]!
100134f4:	4299      	cmp	r1, r3
100134f6:	d1f9      	bne.n	100134ec <memmove+0x14>
100134f8:	4770      	bx	lr
100134fa:	2a0f      	cmp	r2, #15
100134fc:	d80f      	bhi.n	1001351e <memmove+0x46>
100134fe:	4603      	mov	r3, r0
10013500:	f102 3cff 	add.w	ip, r2, #4294967295	@ 0xffffffff
10013504:	2a00      	cmp	r2, #0
10013506:	d05f      	beq.n	100135c8 <memmove+0xf0>
10013508:	f10c 0c01 	add.w	ip, ip, #1
1001350c:	3b01      	subs	r3, #1
1001350e:	448c      	add	ip, r1
10013510:	f811 2b01 	ldrb.w	r2, [r1], #1
10013514:	f803 2f01 	strb.w	r2, [r3, #1]!
10013518:	4561      	cmp	r1, ip
1001351a:	d1f9      	bne.n	10013510 <memmove+0x38>
1001351c:	4770      	bx	lr
1001351e:	ea40 0301 	orr.w	r3, r0, r1
10013522:	079b      	lsls	r3, r3, #30
10013524:	d151      	bne.n	100135ca <memmove+0xf2>
10013526:	f1a2 0310 	sub.w	r3, r2, #16
1001352a:	b570      	push	{r4, r5, r6, lr}
1001352c:	f101 0c20 	add.w	ip, r1, #32
10013530:	f023 050f 	bic.w	r5, r3, #15
10013534:	f101 0e10 	add.w	lr, r1, #16
10013538:	f100 0410 	add.w	r4, r0, #16
1001353c:	44ac      	add	ip, r5
1001353e:	091b      	lsrs	r3, r3, #4
10013540:	f85e 5c10 	ldr.w	r5, [lr, #-16]
10013544:	f844 5c10 	str.w	r5, [r4, #-16]
10013548:	f85e 5c0c 	ldr.w	r5, [lr, #-12]
1001354c:	f844 5c0c 	str.w	r5, [r4, #-12]
10013550:	f85e 5c08 	ldr.w	r5, [lr, #-8]
10013554:	f844 5c08 	str.w	r5, [r4, #-8]
10013558:	f85e 5c04 	ldr.w	r5, [lr, #-4]
1001355c:	f844 5c04 	str.w	r5, [r4, #-4]
10013560:	f10e 0e10 	add.w	lr, lr, #16
10013564:	45e6      	cmp	lr, ip
10013566:	f104 0410 	add.w	r4, r4, #16
1001356a:	d1e9      	bne.n	10013540 <memmove+0x68>
1001356c:	3301      	adds	r3, #1
1001356e:	f012 0f0c 	tst.w	r2, #12
10013572:	eb01 1103 	add.w	r1, r1, r3, lsl #4
10013576:	f002 040f 	and.w	r4, r2, #15
1001357a:	eb00 1303 	add.w	r3, r0, r3, lsl #4
1001357e:	d028      	beq.n	100135d2 <memmove+0xfa>
10013580:	3c04      	subs	r4, #4
10013582:	f024 0603 	bic.w	r6, r4, #3
10013586:	ea4f 0c94 	mov.w	ip, r4, lsr #2
1001358a:	441e      	add	r6, r3
1001358c:	1f1c      	subs	r4, r3, #4
1001358e:	468e      	mov	lr, r1
10013590:	f85e 5b04 	ldr.w	r5, [lr], #4
10013594:	f844 5f04 	str.w	r5, [r4, #4]!
10013598:	42b4      	cmp	r4, r6
1001359a:	d1f9      	bne.n	10013590 <memmove+0xb8>
1001359c:	f10c 0401 	add.w	r4, ip, #1
100135a0:	f002 0203 	and.w	r2, r2, #3
100135a4:	eb03 0384 	add.w	r3, r3, r4, lsl #2
100135a8:	eb01 0184 	add.w	r1, r1, r4, lsl #2
100135ac:	f102 3cff 	add.w	ip, r2, #4294967295	@ 0xffffffff
100135b0:	b14a      	cbz	r2, 100135c6 <memmove+0xee>
100135b2:	f10c 0c01 	add.w	ip, ip, #1
100135b6:	3b01      	subs	r3, #1
100135b8:	448c      	add	ip, r1
100135ba:	f811 2b01 	ldrb.w	r2, [r1], #1
100135be:	f803 2f01 	strb.w	r2, [r3, #1]!
100135c2:	4561      	cmp	r1, ip
100135c4:	d1f9      	bne.n	100135ba <memmove+0xe2>
100135c6:	bd70      	pop	{r4, r5, r6, pc}
100135c8:	4770      	bx	lr
100135ca:	f102 3cff 	add.w	ip, r2, #4294967295	@ 0xffffffff
100135ce:	4603      	mov	r3, r0
100135d0:	e79a      	b.n	10013508 <memmove+0x30>
100135d2:	4622      	mov	r2, r4
100135d4:	e7ea      	b.n	100135ac <memmove+0xd4>
100135d6:	bf00      	nop

100135d8 <_malloc_r>:
100135d8:	e92d 4ff0 	stmdb	sp!, {r4, r5, r6, r7, r8, r9, sl, fp, lr}
100135dc:	f101 050b 	add.w	r5, r1, #11
100135e0:	2d16      	cmp	r5, #22
100135e2:	b083      	sub	sp, #12
100135e4:	4606      	mov	r6, r0
100135e6:	d823      	bhi.n	10013630 <_malloc_r+0x58>
100135e8:	2910      	cmp	r1, #16
100135ea:	f200 80af 	bhi.w	1001374c <_malloc_r+0x174>
100135ee:	f7fc ff61 	bl	100104b4 <__malloc_lock>
100135f2:	2510      	movs	r5, #16
100135f4:	2318      	movs	r3, #24
100135f6:	2002      	movs	r0, #2
100135f8:	4fc1      	ldr	r7, [pc, #772]	@ (10013900 <_malloc_r+0x328>)
100135fa:	443b      	add	r3, r7
100135fc:	f1a3 0208 	sub.w	r2, r3, #8
10013600:	685c      	ldr	r4, [r3, #4]
10013602:	4294      	cmp	r4, r2
10013604:	f000 8125 	beq.w	10013852 <_malloc_r+0x27a>
10013608:	6863      	ldr	r3, [r4, #4]
1001360a:	68e2      	ldr	r2, [r4, #12]
1001360c:	68a1      	ldr	r1, [r4, #8]
1001360e:	f023 0303 	bic.w	r3, r3, #3
10013612:	60ca      	str	r2, [r1, #12]
10013614:	4423      	add	r3, r4
10013616:	4630      	mov	r0, r6
10013618:	6091      	str	r1, [r2, #8]
1001361a:	685a      	ldr	r2, [r3, #4]
1001361c:	f042 0201 	orr.w	r2, r2, #1
10013620:	605a      	str	r2, [r3, #4]
10013622:	f7fc ff49 	bl	100104b8 <__malloc_unlock>
10013626:	3408      	adds	r4, #8
10013628:	4620      	mov	r0, r4
1001362a:	b003      	add	sp, #12
1001362c:	e8bd 8ff0 	ldmia.w	sp!, {r4, r5, r6, r7, r8, r9, sl, fp, pc}
10013630:	f035 0507 	bics.w	r5, r5, #7
10013634:	f100 808a 	bmi.w	1001374c <_malloc_r+0x174>
10013638:	42a9      	cmp	r1, r5
1001363a:	f200 8087 	bhi.w	1001374c <_malloc_r+0x174>
1001363e:	f7fc ff39 	bl	100104b4 <__malloc_lock>
10013642:	f5b5 7ffc 	cmp.w	r5, #504	@ 0x1f8
10013646:	f0c0 816d 	bcc.w	10013924 <_malloc_r+0x34c>
1001364a:	0a6b      	lsrs	r3, r5, #9
1001364c:	f000 8082 	beq.w	10013754 <_malloc_r+0x17c>
10013650:	2b04      	cmp	r3, #4
10013652:	f200 8124 	bhi.w	1001389e <_malloc_r+0x2c6>
10013656:	09ab      	lsrs	r3, r5, #6
10013658:	f103 0039 	add.w	r0, r3, #57	@ 0x39
1001365c:	f103 0e38 	add.w	lr, r3, #56	@ 0x38
10013660:	00c3      	lsls	r3, r0, #3
10013662:	4fa7      	ldr	r7, [pc, #668]	@ (10013900 <_malloc_r+0x328>)
10013664:	443b      	add	r3, r7
10013666:	f1a3 0c08 	sub.w	ip, r3, #8
1001366a:	685c      	ldr	r4, [r3, #4]
1001366c:	45a4      	cmp	ip, r4
1001366e:	d107      	bne.n	10013680 <_malloc_r+0xa8>
10013670:	e00d      	b.n	1001368e <_malloc_r+0xb6>
10013672:	2a00      	cmp	r2, #0
10013674:	68e1      	ldr	r1, [r4, #12]
10013676:	f280 80e6 	bge.w	10013846 <_malloc_r+0x26e>
1001367a:	458c      	cmp	ip, r1
1001367c:	d007      	beq.n	1001368e <_malloc_r+0xb6>
1001367e:	460c      	mov	r4, r1
10013680:	6863      	ldr	r3, [r4, #4]
10013682:	f023 0303 	bic.w	r3, r3, #3
10013686:	1b5a      	subs	r2, r3, r5
10013688:	2a0f      	cmp	r2, #15
1001368a:	ddf2      	ble.n	10013672 <_malloc_r+0x9a>
1001368c:	4670      	mov	r0, lr
1001368e:	f8df 8274 	ldr.w	r8, [pc, #628]	@ 10013904 <_malloc_r+0x32c>
10013692:	693c      	ldr	r4, [r7, #16]
10013694:	4544      	cmp	r4, r8
10013696:	f000 80c3 	beq.w	10013820 <_malloc_r+0x248>
1001369a:	6863      	ldr	r3, [r4, #4]
1001369c:	f023 0c03 	bic.w	ip, r3, #3
100136a0:	ebac 0305 	sub.w	r3, ip, r5
100136a4:	2b0f      	cmp	r3, #15
100136a6:	f300 8141 	bgt.w	1001392c <_malloc_r+0x354>
100136aa:	2b00      	cmp	r3, #0
100136ac:	e9c7 8804 	strd	r8, r8, [r7, #16]
100136b0:	f280 812c 	bge.w	1001390c <_malloc_r+0x334>
100136b4:	f5bc 7f00 	cmp.w	ip, #512	@ 0x200
100136b8:	f8d7 e004 	ldr.w	lr, [r7, #4]
100136bc:	f080 80cf 	bcs.w	1001385e <_malloc_r+0x286>
100136c0:	ea4f 01dc 	mov.w	r1, ip, lsr #3
100136c4:	3101      	adds	r1, #1
100136c6:	ea4f 1c5c 	mov.w	ip, ip, lsr #5
100136ca:	2301      	movs	r3, #1
100136cc:	fa03 f30c 	lsl.w	r3, r3, ip
100136d0:	f857 2031 	ldr.w	r2, [r7, r1, lsl #3]
100136d4:	60a2      	str	r2, [r4, #8]
100136d6:	ea4e 0e03 	orr.w	lr, lr, r3
100136da:	eb07 03c1 	add.w	r3, r7, r1, lsl #3
100136de:	3b08      	subs	r3, #8
100136e0:	60e3      	str	r3, [r4, #12]
100136e2:	f8c7 e004 	str.w	lr, [r7, #4]
100136e6:	f847 4031 	str.w	r4, [r7, r1, lsl #3]
100136ea:	60d4      	str	r4, [r2, #12]
100136ec:	1083      	asrs	r3, r0, #2
100136ee:	f04f 0c01 	mov.w	ip, #1
100136f2:	fa0c fc03 	lsl.w	ip, ip, r3
100136f6:	45f4      	cmp	ip, lr
100136f8:	d832      	bhi.n	10013760 <_malloc_r+0x188>
100136fa:	ea1c 0f0e 	tst.w	ip, lr
100136fe:	d108      	bne.n	10013712 <_malloc_r+0x13a>
10013700:	f020 0003 	bic.w	r0, r0, #3
10013704:	ea4f 0c4c 	mov.w	ip, ip, lsl #1
10013708:	ea1c 0f0e 	tst.w	ip, lr
1001370c:	f100 0004 	add.w	r0, r0, #4
10013710:	d0f8      	beq.n	10013704 <_malloc_r+0x12c>
10013712:	eb07 0ac0 	add.w	sl, r7, r0, lsl #3
10013716:	46d6      	mov	lr, sl
10013718:	4681      	mov	r9, r0
1001371a:	f8de 300c 	ldr.w	r3, [lr, #12]
1001371e:	e00b      	b.n	10013738 <_malloc_r+0x160>
10013720:	6859      	ldr	r1, [r3, #4]
10013722:	f021 0103 	bic.w	r1, r1, #3
10013726:	1b4a      	subs	r2, r1, r5
10013728:	2a0f      	cmp	r2, #15
1001372a:	461c      	mov	r4, r3
1001372c:	68db      	ldr	r3, [r3, #12]
1001372e:	f300 80c2 	bgt.w	100138b6 <_malloc_r+0x2de>
10013732:	2a00      	cmp	r2, #0
10013734:	f280 80d6 	bge.w	100138e4 <_malloc_r+0x30c>
10013738:	459e      	cmp	lr, r3
1001373a:	d1f1      	bne.n	10013720 <_malloc_r+0x148>
1001373c:	f109 0901 	add.w	r9, r9, #1
10013740:	f019 0f03 	tst.w	r9, #3
10013744:	f10e 0e08 	add.w	lr, lr, #8
10013748:	d1e7      	bne.n	1001371a <_malloc_r+0x142>
1001374a:	e118      	b.n	1001397e <_malloc_r+0x3a6>
1001374c:	230c      	movs	r3, #12
1001374e:	6033      	str	r3, [r6, #0]
10013750:	2400      	movs	r4, #0
10013752:	e769      	b.n	10013628 <_malloc_r+0x50>
10013754:	f44f 7300 	mov.w	r3, #512	@ 0x200
10013758:	2040      	movs	r0, #64	@ 0x40
1001375a:	f04f 0e3f 	mov.w	lr, #63	@ 0x3f
1001375e:	e780      	b.n	10013662 <_malloc_r+0x8a>
10013760:	68bc      	ldr	r4, [r7, #8]
10013762:	6863      	ldr	r3, [r4, #4]
10013764:	f023 0903 	bic.w	r9, r3, #3
10013768:	45a9      	cmp	r9, r5
1001376a:	d303      	bcc.n	10013774 <_malloc_r+0x19c>
1001376c:	eba9 0305 	sub.w	r3, r9, r5
10013770:	2b0f      	cmp	r3, #15
10013772:	dc58      	bgt.n	10013826 <_malloc_r+0x24e>
10013774:	f8df b190 	ldr.w	fp, [pc, #400]	@ 10013908 <_malloc_r+0x330>
10013778:	f8db 2000 	ldr.w	r2, [fp]
1001377c:	eb04 0309 	add.w	r3, r4, r9
10013780:	3210      	adds	r2, #16
10013782:	2008      	movs	r0, #8
10013784:	eb02 0805 	add.w	r8, r2, r5
10013788:	9300      	str	r3, [sp, #0]
1001378a:	f7fc fe5d 	bl	10010448 <sysconf>
1001378e:	f8d7 1408 	ldr.w	r1, [r7, #1032]	@ 0x408
10013792:	3101      	adds	r1, #1
10013794:	4602      	mov	r2, r0
10013796:	d005      	beq.n	100137a4 <_malloc_r+0x1cc>
10013798:	f108 38ff 	add.w	r8, r8, #4294967295	@ 0xffffffff
1001379c:	4480      	add	r8, r0
1001379e:	4241      	negs	r1, r0
100137a0:	ea01 0808 	and.w	r8, r1, r8
100137a4:	4641      	mov	r1, r8
100137a6:	4630      	mov	r0, r6
100137a8:	9200      	str	r2, [sp, #0]
100137aa:	f7fd f9bd 	bl	10010b28 <_sbrk_r>
100137ae:	f1b0 3fff 	cmp.w	r0, #4294967295	@ 0xffffffff
100137b2:	9a00      	ldr	r2, [sp, #0]
100137b4:	4682      	mov	sl, r0
100137b6:	f000 80d4 	beq.w	10013962 <_malloc_r+0x38a>
100137ba:	eb04 0309 	add.w	r3, r4, r9
100137be:	4283      	cmp	r3, r0
100137c0:	f200 80cd 	bhi.w	1001395e <_malloc_r+0x386>
100137c4:	f8db 1004 	ldr.w	r1, [fp, #4]
100137c8:	4441      	add	r1, r8
100137ca:	f8cb 1004 	str.w	r1, [fp, #4]
100137ce:	4608      	mov	r0, r1
100137d0:	f102 3cff 	add.w	ip, r2, #4294967295	@ 0xffffffff
100137d4:	f040 80f5 	bne.w	100139c2 <_malloc_r+0x3ea>
100137d8:	ea1a 0f0c 	tst.w	sl, ip
100137dc:	f040 80f1 	bne.w	100139c2 <_malloc_r+0x3ea>
100137e0:	f8d7 a008 	ldr.w	sl, [r7, #8]
100137e4:	44c8      	add	r8, r9
100137e6:	f048 0001 	orr.w	r0, r8, #1
100137ea:	f8ca 0004 	str.w	r0, [sl, #4]
100137ee:	f8db 202c 	ldr.w	r2, [fp, #44]	@ 0x2c
100137f2:	428a      	cmp	r2, r1
100137f4:	f8db 2030 	ldr.w	r2, [fp, #48]	@ 0x30
100137f8:	bf38      	it	cc
100137fa:	f8cb 102c 	strcc.w	r1, [fp, #44]	@ 0x2c
100137fe:	428a      	cmp	r2, r1
10013800:	bf38      	it	cc
10013802:	f8cb 1030 	strcc.w	r1, [fp, #48]	@ 0x30
10013806:	4654      	mov	r4, sl
10013808:	f020 0803 	bic.w	r8, r0, #3
1001380c:	45a8      	cmp	r8, r5
1001380e:	eba8 0305 	sub.w	r3, r8, r5
10013812:	d301      	bcc.n	10013818 <_malloc_r+0x240>
10013814:	2b0f      	cmp	r3, #15
10013816:	dc06      	bgt.n	10013826 <_malloc_r+0x24e>
10013818:	4630      	mov	r0, r6
1001381a:	f7fc fe4d 	bl	100104b8 <__malloc_unlock>
1001381e:	e797      	b.n	10013750 <_malloc_r+0x178>
10013820:	f8d7 e004 	ldr.w	lr, [r7, #4]
10013824:	e762      	b.n	100136ec <_malloc_r+0x114>
10013826:	1962      	adds	r2, r4, r5
10013828:	f043 0301 	orr.w	r3, r3, #1
1001382c:	f045 0501 	orr.w	r5, r5, #1
10013830:	6065      	str	r5, [r4, #4]
10013832:	4630      	mov	r0, r6
10013834:	60ba      	str	r2, [r7, #8]
10013836:	6053      	str	r3, [r2, #4]
10013838:	f7fc fe3e 	bl	100104b8 <__malloc_unlock>
1001383c:	3408      	adds	r4, #8
1001383e:	4620      	mov	r0, r4
10013840:	b003      	add	sp, #12
10013842:	e8bd 8ff0 	ldmia.w	sp!, {r4, r5, r6, r7, r8, r9, sl, fp, pc}
10013846:	68a2      	ldr	r2, [r4, #8]
10013848:	4423      	add	r3, r4
1001384a:	60d1      	str	r1, [r2, #12]
1001384c:	4630      	mov	r0, r6
1001384e:	608a      	str	r2, [r1, #8]
10013850:	e6e3      	b.n	1001361a <_malloc_r+0x42>
10013852:	68dc      	ldr	r4, [r3, #12]
10013854:	42a3      	cmp	r3, r4
10013856:	f47f aed7 	bne.w	10013608 <_malloc_r+0x30>
1001385a:	3002      	adds	r0, #2
1001385c:	e717      	b.n	1001368e <_malloc_r+0xb6>
1001385e:	f5bc 6f20 	cmp.w	ip, #2560	@ 0xa00
10013862:	ea4f 225c 	mov.w	r2, ip, lsr #9
10013866:	d373      	bcc.n	10013950 <_malloc_r+0x378>
10013868:	2a14      	cmp	r2, #20
1001386a:	f200 810a 	bhi.w	10013a82 <_malloc_r+0x4aa>
1001386e:	f102 035c 	add.w	r3, r2, #92	@ 0x5c
10013872:	00db      	lsls	r3, r3, #3
10013874:	325b      	adds	r2, #91	@ 0x5b
10013876:	18f9      	adds	r1, r7, r3
10013878:	58fb      	ldr	r3, [r7, r3]
1001387a:	3908      	subs	r1, #8
1001387c:	4299      	cmp	r1, r3
1001387e:	d103      	bne.n	10013888 <_malloc_r+0x2b0>
10013880:	e0e6      	b.n	10013a50 <_malloc_r+0x478>
10013882:	689b      	ldr	r3, [r3, #8]
10013884:	4299      	cmp	r1, r3
10013886:	d004      	beq.n	10013892 <_malloc_r+0x2ba>
10013888:	685a      	ldr	r2, [r3, #4]
1001388a:	f022 0203 	bic.w	r2, r2, #3
1001388e:	4562      	cmp	r2, ip
10013890:	d8f7      	bhi.n	10013882 <_malloc_r+0x2aa>
10013892:	68d9      	ldr	r1, [r3, #12]
10013894:	e9c4 3102 	strd	r3, r1, [r4, #8]
10013898:	608c      	str	r4, [r1, #8]
1001389a:	60dc      	str	r4, [r3, #12]
1001389c:	e726      	b.n	100136ec <_malloc_r+0x114>
1001389e:	2b14      	cmp	r3, #20
100138a0:	d962      	bls.n	10013968 <_malloc_r+0x390>
100138a2:	2b54      	cmp	r3, #84	@ 0x54
100138a4:	f200 80f6 	bhi.w	10013a94 <_malloc_r+0x4bc>
100138a8:	0b2b      	lsrs	r3, r5, #12
100138aa:	f103 006f 	add.w	r0, r3, #111	@ 0x6f
100138ae:	f103 0e6e 	add.w	lr, r3, #110	@ 0x6e
100138b2:	00c3      	lsls	r3, r0, #3
100138b4:	e6d5      	b.n	10013662 <_malloc_r+0x8a>
100138b6:	f8d4 c008 	ldr.w	ip, [r4, #8]
100138ba:	4630      	mov	r0, r6
100138bc:	1966      	adds	r6, r4, r5
100138be:	f045 0501 	orr.w	r5, r5, #1
100138c2:	6065      	str	r5, [r4, #4]
100138c4:	f8cc 300c 	str.w	r3, [ip, #12]
100138c8:	f8c3 c008 	str.w	ip, [r3, #8]
100138cc:	f042 0301 	orr.w	r3, r2, #1
100138d0:	e9c7 6604 	strd	r6, r6, [r7, #16]
100138d4:	e9c6 8802 	strd	r8, r8, [r6, #8]
100138d8:	6073      	str	r3, [r6, #4]
100138da:	5062      	str	r2, [r4, r1]
100138dc:	f7fc fdec 	bl	100104b8 <__malloc_unlock>
100138e0:	3408      	adds	r4, #8
100138e2:	e6a1      	b.n	10013628 <_malloc_r+0x50>
100138e4:	4421      	add	r1, r4
100138e6:	4630      	mov	r0, r6
100138e8:	684a      	ldr	r2, [r1, #4]
100138ea:	f042 0201 	orr.w	r2, r2, #1
100138ee:	604a      	str	r2, [r1, #4]
100138f0:	f854 2f08 	ldr.w	r2, [r4, #8]!
100138f4:	60d3      	str	r3, [r2, #12]
100138f6:	609a      	str	r2, [r3, #8]
100138f8:	f7fc fdde 	bl	100104b8 <__malloc_unlock>
100138fc:	e694      	b.n	10013628 <_malloc_r+0x50>
100138fe:	bf00      	nop
10013900:	20000148 	.word	0x20000148
10013904:	20000150 	.word	0x20000150
10013908:	20001570 	.word	0x20001570
1001390c:	44a4      	add	ip, r4
1001390e:	4630      	mov	r0, r6
10013910:	f8dc 3004 	ldr.w	r3, [ip, #4]
10013914:	f043 0301 	orr.w	r3, r3, #1
10013918:	f8cc 3004 	str.w	r3, [ip, #4]
1001391c:	f7fc fdcc 	bl	100104b8 <__malloc_unlock>
10013920:	3408      	adds	r4, #8
10013922:	e681      	b.n	10013628 <_malloc_r+0x50>
10013924:	08e8      	lsrs	r0, r5, #3
10013926:	f105 0308 	add.w	r3, r5, #8
1001392a:	e665      	b.n	100135f8 <_malloc_r+0x20>
1001392c:	1962      	adds	r2, r4, r5
1001392e:	f043 0101 	orr.w	r1, r3, #1
10013932:	f045 0501 	orr.w	r5, r5, #1
10013936:	6065      	str	r5, [r4, #4]
10013938:	4630      	mov	r0, r6
1001393a:	e9c7 2204 	strd	r2, r2, [r7, #16]
1001393e:	e9c2 8802 	strd	r8, r8, [r2, #8]
10013942:	6051      	str	r1, [r2, #4]
10013944:	f844 300c 	str.w	r3, [r4, ip]
10013948:	f7fc fdb6 	bl	100104b8 <__malloc_unlock>
1001394c:	3408      	adds	r4, #8
1001394e:	e66b      	b.n	10013628 <_malloc_r+0x50>
10013950:	ea4f 129c 	mov.w	r2, ip, lsr #6
10013954:	f102 0339 	add.w	r3, r2, #57	@ 0x39
10013958:	00db      	lsls	r3, r3, #3
1001395a:	3238      	adds	r2, #56	@ 0x38
1001395c:	e78b      	b.n	10013876 <_malloc_r+0x29e>
1001395e:	42bc      	cmp	r4, r7
10013960:	d028      	beq.n	100139b4 <_malloc_r+0x3dc>
10013962:	68bc      	ldr	r4, [r7, #8]
10013964:	6860      	ldr	r0, [r4, #4]
10013966:	e74f      	b.n	10013808 <_malloc_r+0x230>
10013968:	f103 005c 	add.w	r0, r3, #92	@ 0x5c
1001396c:	f103 0e5b 	add.w	lr, r3, #91	@ 0x5b
10013970:	00c3      	lsls	r3, r0, #3
10013972:	e676      	b.n	10013662 <_malloc_r+0x8a>
10013974:	f85a 3908 	ldr.w	r3, [sl], #-8
10013978:	4553      	cmp	r3, sl
1001397a:	f040 80d8 	bne.w	10013b2e <_malloc_r+0x556>
1001397e:	f010 0f03 	tst.w	r0, #3
10013982:	f100 30ff 	add.w	r0, r0, #4294967295	@ 0xffffffff
10013986:	d1f5      	bne.n	10013974 <_malloc_r+0x39c>
10013988:	687b      	ldr	r3, [r7, #4]
1001398a:	ea23 030c 	bic.w	r3, r3, ip
1001398e:	607b      	str	r3, [r7, #4]
10013990:	ea4f 0c4c 	mov.w	ip, ip, lsl #1
10013994:	459c      	cmp	ip, r3
10013996:	f63f aee3 	bhi.w	10013760 <_malloc_r+0x188>
1001399a:	f1bc 0f00 	cmp.w	ip, #0
1001399e:	d104      	bne.n	100139aa <_malloc_r+0x3d2>
100139a0:	e6de      	b.n	10013760 <_malloc_r+0x188>
100139a2:	ea4f 0c4c 	mov.w	ip, ip, lsl #1
100139a6:	f109 0904 	add.w	r9, r9, #4
100139aa:	ea1c 0f03 	tst.w	ip, r3
100139ae:	d0f8      	beq.n	100139a2 <_malloc_r+0x3ca>
100139b0:	4648      	mov	r0, r9
100139b2:	e6ae      	b.n	10013712 <_malloc_r+0x13a>
100139b4:	f8db 0004 	ldr.w	r0, [fp, #4]
100139b8:	4440      	add	r0, r8
100139ba:	f8cb 0004 	str.w	r0, [fp, #4]
100139be:	f102 3cff 	add.w	ip, r2, #4294967295	@ 0xffffffff
100139c2:	f8d7 1408 	ldr.w	r1, [r7, #1032]	@ 0x408
100139c6:	3101      	adds	r1, #1
100139c8:	d06e      	beq.n	10013aa8 <_malloc_r+0x4d0>
100139ca:	eb04 0309 	add.w	r3, r4, r9
100139ce:	ebaa 0303 	sub.w	r3, sl, r3
100139d2:	4418      	add	r0, r3
100139d4:	f8cb 0004 	str.w	r0, [fp, #4]
100139d8:	f01a 0307 	ands.w	r3, sl, #7
100139dc:	9300      	str	r3, [sp, #0]
100139de:	d041      	beq.n	10013a64 <_malloc_r+0x48c>
100139e0:	f1c3 0108 	rsb	r1, r3, #8
100139e4:	448a      	add	sl, r1
100139e6:	44d0      	add	r8, sl
100139e8:	440a      	add	r2, r1
100139ea:	ea08 010c 	and.w	r1, r8, ip
100139ee:	1a52      	subs	r2, r2, r1
100139f0:	ea02 010c 	and.w	r1, r2, ip
100139f4:	4630      	mov	r0, r6
100139f6:	9101      	str	r1, [sp, #4]
100139f8:	f7fd f896 	bl	10010b28 <_sbrk_r>
100139fc:	1c42      	adds	r2, r0, #1
100139fe:	d06f      	beq.n	10013ae0 <_malloc_r+0x508>
10013a00:	9901      	ldr	r1, [sp, #4]
10013a02:	eba0 000a 	sub.w	r0, r0, sl
10013a06:	eb00 0801 	add.w	r8, r0, r1
10013a0a:	f8db 2004 	ldr.w	r2, [fp, #4]
10013a0e:	f8c7 a008 	str.w	sl, [r7, #8]
10013a12:	f048 0001 	orr.w	r0, r8, #1
10013a16:	4411      	add	r1, r2
10013a18:	42bc      	cmp	r4, r7
10013a1a:	f8ca 0004 	str.w	r0, [sl, #4]
10013a1e:	f8cb 1004 	str.w	r1, [fp, #4]
10013a22:	f43f aee4 	beq.w	100137ee <_malloc_r+0x216>
10013a26:	f1b9 0f0f 	cmp.w	r9, #15
10013a2a:	d940      	bls.n	10013aae <_malloc_r+0x4d6>
10013a2c:	6862      	ldr	r2, [r4, #4]
10013a2e:	f1a9 000c 	sub.w	r0, r9, #12
10013a32:	f020 0007 	bic.w	r0, r0, #7
10013a36:	f002 0201 	and.w	r2, r2, #1
10013a3a:	4302      	orrs	r2, r0
10013a3c:	6062      	str	r2, [r4, #4]
10013a3e:	2305      	movs	r3, #5
10013a40:	1822      	adds	r2, r4, r0
10013a42:	280f      	cmp	r0, #15
10013a44:	e9c2 3301 	strd	r3, r3, [r2, #4]
10013a48:	d852      	bhi.n	10013af0 <_malloc_r+0x518>
10013a4a:	f8da 0004 	ldr.w	r0, [sl, #4]
10013a4e:	e6ce      	b.n	100137ee <_malloc_r+0x216>
10013a50:	1092      	asrs	r2, r2, #2
10013a52:	f04f 0c01 	mov.w	ip, #1
10013a56:	fa0c f202 	lsl.w	r2, ip, r2
10013a5a:	ea4e 0e02 	orr.w	lr, lr, r2
10013a5e:	f8c7 e004 	str.w	lr, [r7, #4]
10013a62:	e717      	b.n	10013894 <_malloc_r+0x2bc>
10013a64:	eb0a 0108 	add.w	r1, sl, r8
10013a68:	ea01 010c 	and.w	r1, r1, ip
10013a6c:	1a52      	subs	r2, r2, r1
10013a6e:	ea02 010c 	and.w	r1, r2, ip
10013a72:	4630      	mov	r0, r6
10013a74:	9101      	str	r1, [sp, #4]
10013a76:	f7fd f857 	bl	10010b28 <_sbrk_r>
10013a7a:	1c43      	adds	r3, r0, #1
10013a7c:	d1c0      	bne.n	10013a00 <_malloc_r+0x428>
10013a7e:	9900      	ldr	r1, [sp, #0]
10013a80:	e7c3      	b.n	10013a0a <_malloc_r+0x432>
10013a82:	2a54      	cmp	r2, #84	@ 0x54
10013a84:	d817      	bhi.n	10013ab6 <_malloc_r+0x4de>
10013a86:	ea4f 321c 	mov.w	r2, ip, lsr #12
10013a8a:	f102 036f 	add.w	r3, r2, #111	@ 0x6f
10013a8e:	00db      	lsls	r3, r3, #3
10013a90:	326e      	adds	r2, #110	@ 0x6e
10013a92:	e6f0      	b.n	10013876 <_malloc_r+0x29e>
10013a94:	f5b3 7faa 	cmp.w	r3, #340	@ 0x154
10013a98:	d817      	bhi.n	10013aca <_malloc_r+0x4f2>
10013a9a:	0beb      	lsrs	r3, r5, #15
10013a9c:	f103 0078 	add.w	r0, r3, #120	@ 0x78
10013aa0:	f103 0e77 	add.w	lr, r3, #119	@ 0x77
10013aa4:	00c3      	lsls	r3, r0, #3
10013aa6:	e5dc      	b.n	10013662 <_malloc_r+0x8a>
10013aa8:	f8c7 a408 	str.w	sl, [r7, #1032]	@ 0x408
10013aac:	e794      	b.n	100139d8 <_malloc_r+0x400>
10013aae:	2301      	movs	r3, #1
10013ab0:	f8ca 3004 	str.w	r3, [sl, #4]
10013ab4:	e6b0      	b.n	10013818 <_malloc_r+0x240>
10013ab6:	f5b2 7faa 	cmp.w	r2, #340	@ 0x154
10013aba:	d823      	bhi.n	10013b04 <_malloc_r+0x52c>
10013abc:	ea4f 32dc 	mov.w	r2, ip, lsr #15
10013ac0:	f102 0378 	add.w	r3, r2, #120	@ 0x78
10013ac4:	00db      	lsls	r3, r3, #3
10013ac6:	3277      	adds	r2, #119	@ 0x77
10013ac8:	e6d5      	b.n	10013876 <_malloc_r+0x29e>
10013aca:	f240 5254 	movw	r2, #1364	@ 0x554
10013ace:	4293      	cmp	r3, r2
10013ad0:	d823      	bhi.n	10013b1a <_malloc_r+0x542>
10013ad2:	0cab      	lsrs	r3, r5, #18
10013ad4:	f103 007d 	add.w	r0, r3, #125	@ 0x7d
10013ad8:	f103 0e7c 	add.w	lr, r3, #124	@ 0x7c
10013adc:	00c3      	lsls	r3, r0, #3
10013ade:	e5c0      	b.n	10013662 <_malloc_r+0x8a>
10013ae0:	9b00      	ldr	r3, [sp, #0]
10013ae2:	f1a3 0208 	sub.w	r2, r3, #8
10013ae6:	4490      	add	r8, r2
10013ae8:	eba8 080a 	sub.w	r8, r8, sl
10013aec:	2100      	movs	r1, #0
10013aee:	e78c      	b.n	10013a0a <_malloc_r+0x432>
10013af0:	f104 0108 	add.w	r1, r4, #8
10013af4:	4630      	mov	r0, r6
10013af6:	f7fc fb11 	bl	1001011c <_free_r>
10013afa:	f8db 1004 	ldr.w	r1, [fp, #4]
10013afe:	f8d7 a008 	ldr.w	sl, [r7, #8]
10013b02:	e7a2      	b.n	10013a4a <_malloc_r+0x472>
10013b04:	f240 5354 	movw	r3, #1364	@ 0x554
10013b08:	429a      	cmp	r2, r3
10013b0a:	d80c      	bhi.n	10013b26 <_malloc_r+0x54e>
10013b0c:	ea4f 429c 	mov.w	r2, ip, lsr #18
10013b10:	f102 037d 	add.w	r3, r2, #125	@ 0x7d
10013b14:	00db      	lsls	r3, r3, #3
10013b16:	327c      	adds	r2, #124	@ 0x7c
10013b18:	e6ad      	b.n	10013876 <_malloc_r+0x29e>
10013b1a:	f44f 737e 	mov.w	r3, #1016	@ 0x3f8
10013b1e:	207f      	movs	r0, #127	@ 0x7f
10013b20:	f04f 0e7e 	mov.w	lr, #126	@ 0x7e
10013b24:	e59d      	b.n	10013662 <_malloc_r+0x8a>
10013b26:	f44f 737e 	mov.w	r3, #1016	@ 0x3f8
10013b2a:	227e      	movs	r2, #126	@ 0x7e
10013b2c:	e6a3      	b.n	10013876 <_malloc_r+0x29e>
10013b2e:	687b      	ldr	r3, [r7, #4]
10013b30:	e72e      	b.n	10013990 <_malloc_r+0x3b8>
10013b32:	bf00      	nop
10013b34:	0000      	movs	r0, r0
	...

10013b38 <quorem>:
10013b38:	e92d 4ff0 	stmdb	sp!, {r4, r5, r6, r7, r8, r9, sl, fp, lr}
10013b3c:	6903      	ldr	r3, [r0, #16]
10013b3e:	690c      	ldr	r4, [r1, #16]
10013b40:	42a3      	cmp	r3, r4
10013b42:	b083      	sub	sp, #12
10013b44:	f2c0 808a 	blt.w	10013c5c <quorem+0x124>
10013b48:	3c01      	subs	r4, #1
10013b4a:	f101 0514 	add.w	r5, r1, #20
10013b4e:	f100 0814 	add.w	r8, r0, #20
10013b52:	f855 3024 	ldr.w	r3, [r5, r4, lsl #2]
10013b56:	f858 2024 	ldr.w	r2, [r8, r4, lsl #2]
10013b5a:	3301      	adds	r3, #1
10013b5c:	429a      	cmp	r2, r3
10013b5e:	468e      	mov	lr, r1
10013b60:	4681      	mov	r9, r0
10013b62:	ea4f 0184 	mov.w	r1, r4, lsl #2
10013b66:	eb05 0784 	add.w	r7, r5, r4, lsl #2
10013b6a:	eb08 0a84 	add.w	sl, r8, r4, lsl #2
10013b6e:	fbb2 f6f3 	udiv	r6, r2, r3
10013b72:	d33a      	bcc.n	10013bea <quorem+0xb2>
10013b74:	e9cd 1500 	strd	r1, r5, [sp]
10013b78:	2200      	movs	r2, #0
10013b7a:	46ac      	mov	ip, r5
10013b7c:	4640      	mov	r0, r8
10013b7e:	4613      	mov	r3, r2
10013b80:	f85c 1b04 	ldr.w	r1, [ip], #4
10013b84:	6805      	ldr	r5, [r0, #0]
10013b86:	fa1f fb81 	uxth.w	fp, r1
10013b8a:	fb06 220b 	mla	r2, r6, fp, r2
10013b8e:	0c09      	lsrs	r1, r1, #16
10013b90:	ea4f 4b12 	mov.w	fp, r2, lsr #16
10013b94:	fb06 bb01 	mla	fp, r6, r1, fp
10013b98:	b292      	uxth	r2, r2
10013b9a:	b2a9      	uxth	r1, r5
10013b9c:	1a89      	subs	r1, r1, r2
10013b9e:	4419      	add	r1, r3
10013ba0:	fa1f f38b 	uxth.w	r3, fp
10013ba4:	ebc3 4321 	rsb	r3, r3, r1, asr #16
10013ba8:	eb03 4315 	add.w	r3, r3, r5, lsr #16
10013bac:	b289      	uxth	r1, r1
10013bae:	ea41 4103 	orr.w	r1, r1, r3, lsl #16
10013bb2:	4567      	cmp	r7, ip
10013bb4:	f840 1b04 	str.w	r1, [r0], #4
10013bb8:	ea4f 421b 	mov.w	r2, fp, lsr #16
10013bbc:	ea4f 4323 	mov.w	r3, r3, asr #16
10013bc0:	d2de      	bcs.n	10013b80 <quorem+0x48>
10013bc2:	e9dd 1500 	ldrd	r1, r5, [sp]
10013bc6:	f858 3001 	ldr.w	r3, [r8, r1]
10013bca:	b973      	cbnz	r3, 10013bea <quorem+0xb2>
10013bcc:	f1aa 0a04 	sub.w	sl, sl, #4
10013bd0:	45d0      	cmp	r8, sl
10013bd2:	d304      	bcc.n	10013bde <quorem+0xa6>
10013bd4:	e007      	b.n	10013be6 <quorem+0xae>
10013bd6:	45d0      	cmp	r8, sl
10013bd8:	f104 34ff 	add.w	r4, r4, #4294967295	@ 0xffffffff
10013bdc:	d203      	bcs.n	10013be6 <quorem+0xae>
10013bde:	f85a 3904 	ldr.w	r3, [sl], #-4
10013be2:	2b00      	cmp	r3, #0
10013be4:	d0f7      	beq.n	10013bd6 <quorem+0x9e>
10013be6:	f8c9 4010 	str.w	r4, [r9, #16]
10013bea:	4671      	mov	r1, lr
10013bec:	4648      	mov	r0, r9
10013bee:	f001 fdb9 	bl	10015764 <__mcmp>
10013bf2:	2800      	cmp	r0, #0
10013bf4:	db2e      	blt.n	10013c54 <quorem+0x11c>
10013bf6:	4641      	mov	r1, r8
10013bf8:	2200      	movs	r2, #0
10013bfa:	f855 0b04 	ldr.w	r0, [r5], #4
10013bfe:	f8d1 c000 	ldr.w	ip, [r1]
10013c02:	fa1f fe80 	uxth.w	lr, r0
10013c06:	fa1f f38c 	uxth.w	r3, ip
10013c0a:	eba3 030e 	sub.w	r3, r3, lr
10013c0e:	4413      	add	r3, r2
10013c10:	0c02      	lsrs	r2, r0, #16
10013c12:	ebc2 4223 	rsb	r2, r2, r3, asr #16
10013c16:	eb02 421c 	add.w	r2, r2, ip, lsr #16
10013c1a:	b29b      	uxth	r3, r3
10013c1c:	ea43 4302 	orr.w	r3, r3, r2, lsl #16
10013c20:	42af      	cmp	r7, r5
10013c22:	f841 3b04 	str.w	r3, [r1], #4
10013c26:	ea4f 4222 	mov.w	r2, r2, asr #16
10013c2a:	d2e6      	bcs.n	10013bfa <quorem+0xc2>
10013c2c:	f858 2024 	ldr.w	r2, [r8, r4, lsl #2]
10013c30:	eb08 0384 	add.w	r3, r8, r4, lsl #2
10013c34:	b96a      	cbnz	r2, 10013c52 <quorem+0x11a>
10013c36:	3b04      	subs	r3, #4
10013c38:	4543      	cmp	r3, r8
10013c3a:	d804      	bhi.n	10013c46 <quorem+0x10e>
10013c3c:	e007      	b.n	10013c4e <quorem+0x116>
10013c3e:	4598      	cmp	r8, r3
10013c40:	f104 34ff 	add.w	r4, r4, #4294967295	@ 0xffffffff
10013c44:	d203      	bcs.n	10013c4e <quorem+0x116>
10013c46:	f853 2904 	ldr.w	r2, [r3], #-4
10013c4a:	2a00      	cmp	r2, #0
10013c4c:	d0f7      	beq.n	10013c3e <quorem+0x106>
10013c4e:	f8c9 4010 	str.w	r4, [r9, #16]
10013c52:	3601      	adds	r6, #1
10013c54:	4630      	mov	r0, r6
10013c56:	b003      	add	sp, #12
10013c58:	e8bd 8ff0 	ldmia.w	sp!, {r4, r5, r6, r7, r8, r9, sl, fp, pc}
10013c5c:	2000      	movs	r0, #0
10013c5e:	b003      	add	sp, #12
10013c60:	e8bd 8ff0 	ldmia.w	sp!, {r4, r5, r6, r7, r8, r9, sl, fp, pc}

10013c64 <_dtoa_r>:
10013c64:	e92d 4ff0 	stmdb	sp!, {r4, r5, r6, r7, r8, r9, sl, fp, lr}
10013c68:	6b81      	ldr	r1, [r0, #56]	@ 0x38
10013c6a:	b09b      	sub	sp, #108	@ 0x6c
10013c6c:	4616      	mov	r6, r2
10013c6e:	461f      	mov	r7, r3
10013c70:	e9cd 6706 	strd	r6, r7, [sp, #24]
10013c74:	9d27      	ldr	r5, [sp, #156]	@ 0x9c
10013c76:	9004      	str	r0, [sp, #16]
10013c78:	b149      	cbz	r1, 10013c8e <_dtoa_r+0x2a>
10013c7a:	6bc2      	ldr	r2, [r0, #60]	@ 0x3c
10013c7c:	604a      	str	r2, [r1, #4]
10013c7e:	2301      	movs	r3, #1
10013c80:	4093      	lsls	r3, r2
10013c82:	4604      	mov	r4, r0
10013c84:	608b      	str	r3, [r1, #8]
10013c86:	f001 fab1 	bl	100151ec <_Bfree>
10013c8a:	2300      	movs	r3, #0
10013c8c:	63a3      	str	r3, [r4, #56]	@ 0x38
10013c8e:	f1b7 0900 	subs.w	r9, r7, #0
10013c92:	bfb4      	ite	lt
10013c94:	2301      	movlt	r3, #1
10013c96:	2300      	movge	r3, #0
10013c98:	602b      	str	r3, [r5, #0]
10013c9a:	4b79      	ldr	r3, [pc, #484]	@ (10013e80 <_dtoa_r+0x21c>)
10013c9c:	bfbc      	itt	lt
10013c9e:	f029 4900 	biclt.w	r9, r9, #2147483648	@ 0x80000000
10013ca2:	f8cd 901c 	strlt.w	r9, [sp, #28]
10013ca6:	ea33 0309 	bics.w	r3, r3, r9
10013caa:	f000 80ad 	beq.w	10013e08 <_dtoa_r+0x1a4>
10013cae:	e9dd 3406 	ldrd	r3, r4, [sp, #24]
10013cb2:	2200      	movs	r2, #0
10013cb4:	4618      	mov	r0, r3
10013cb6:	4621      	mov	r1, r4
10013cb8:	2300      	movs	r3, #0
10013cba:	e9cd 0102 	strd	r0, r1, [sp, #8]
10013cbe:	f003 fcc7 	bl	10017650 <__aeabi_dcmpeq>
10013cc2:	4680      	mov	r8, r0
10013cc4:	b168      	cbz	r0, 10013ce2 <_dtoa_r+0x7e>
10013cc6:	9a26      	ldr	r2, [sp, #152]	@ 0x98
10013cc8:	2301      	movs	r3, #1
10013cca:	6013      	str	r3, [r2, #0]
10013ccc:	9b28      	ldr	r3, [sp, #160]	@ 0xa0
10013cce:	b113      	cbz	r3, 10013cd6 <_dtoa_r+0x72>
10013cd0:	9a28      	ldr	r2, [sp, #160]	@ 0xa0
10013cd2:	4b6c      	ldr	r3, [pc, #432]	@ (10013e84 <_dtoa_r+0x220>)
10013cd4:	6013      	str	r3, [r2, #0]
10013cd6:	4b6c      	ldr	r3, [pc, #432]	@ (10013e88 <_dtoa_r+0x224>)
10013cd8:	9305      	str	r3, [sp, #20]
10013cda:	9805      	ldr	r0, [sp, #20]
10013cdc:	b01b      	add	sp, #108	@ 0x6c
10013cde:	e8bd 8ff0 	ldmia.w	sp!, {r4, r5, r6, r7, r8, r9, sl, fp, pc}
10013ce2:	ab18      	add	r3, sp, #96	@ 0x60
10013ce4:	9301      	str	r3, [sp, #4]
10013ce6:	ab19      	add	r3, sp, #100	@ 0x64
10013ce8:	9300      	str	r3, [sp, #0]
10013cea:	9804      	ldr	r0, [sp, #16]
10013cec:	e9dd 2302 	ldrd	r2, r3, [sp, #8]
10013cf0:	f001 fe9a 	bl	10015a28 <__d2b>
10013cf4:	ea5f 5519 	movs.w	r5, r9, lsr #20
10013cf8:	4682      	mov	sl, r0
10013cfa:	f040 809b 	bne.w	10013e34 <_dtoa_r+0x1d0>
10013cfe:	e9dd 8518 	ldrd	r8, r5, [sp, #96]	@ 0x60
10013d02:	4445      	add	r5, r8
10013d04:	f205 4332 	addw	r3, r5, #1074	@ 0x432
10013d08:	2b20      	cmp	r3, #32
10013d0a:	f340 838f 	ble.w	1001442c <_dtoa_r+0x7c8>
10013d0e:	f1c3 0340 	rsb	r3, r3, #64	@ 0x40
10013d12:	fa09 f903 	lsl.w	r9, r9, r3
10013d16:	f205 4312 	addw	r3, r5, #1042	@ 0x412
10013d1a:	fa26 f303 	lsr.w	r3, r6, r3
10013d1e:	ea49 0003 	orr.w	r0, r9, r3
10013d22:	f003 f9b3 	bl	1001708c <__aeabi_ui2d>
10013d26:	2301      	movs	r3, #1
10013d28:	3d01      	subs	r5, #1
10013d2a:	f1a1 71f8 	sub.w	r1, r1, #32505856	@ 0x1f00000
10013d2e:	9310      	str	r3, [sp, #64]	@ 0x40
10013d30:	4b56      	ldr	r3, [pc, #344]	@ (10013e8c <_dtoa_r+0x228>)
10013d32:	2200      	movs	r2, #0
10013d34:	f003 f86c 	bl	10016e10 <__aeabi_dsub>
10013d38:	a34b      	add	r3, pc, #300	@ (adr r3, 10013e68 <_dtoa_r+0x204>)
10013d3a:	e9d3 2300 	ldrd	r2, r3, [r3]
10013d3e:	f003 fa1f 	bl	10017180 <__aeabi_dmul>
10013d42:	a34b      	add	r3, pc, #300	@ (adr r3, 10013e70 <_dtoa_r+0x20c>)
10013d44:	e9d3 2300 	ldrd	r2, r3, [r3]
10013d48:	f003 f864 	bl	10016e14 <__adddf3>
10013d4c:	4606      	mov	r6, r0
10013d4e:	4628      	mov	r0, r5
10013d50:	460f      	mov	r7, r1
10013d52:	f003 f9ab 	bl	100170ac <__aeabi_i2d>
10013d56:	a348      	add	r3, pc, #288	@ (adr r3, 10013e78 <_dtoa_r+0x214>)
10013d58:	e9d3 2300 	ldrd	r2, r3, [r3]
10013d5c:	f003 fa10 	bl	10017180 <__aeabi_dmul>
10013d60:	4602      	mov	r2, r0
10013d62:	460b      	mov	r3, r1
10013d64:	4630      	mov	r0, r6
10013d66:	4639      	mov	r1, r7
10013d68:	f003 f854 	bl	10016e14 <__adddf3>
10013d6c:	4606      	mov	r6, r0
10013d6e:	460f      	mov	r7, r1
10013d70:	f003 fcb6 	bl	100176e0 <__aeabi_d2iz>
10013d74:	2200      	movs	r2, #0
10013d76:	4604      	mov	r4, r0
10013d78:	9008      	str	r0, [sp, #32]
10013d7a:	2300      	movs	r3, #0
10013d7c:	4630      	mov	r0, r6
10013d7e:	4639      	mov	r1, r7
10013d80:	f003 fc70 	bl	10017664 <__aeabi_dcmplt>
10013d84:	2800      	cmp	r0, #0
10013d86:	f040 8327 	bne.w	100143d8 <_dtoa_r+0x774>
10013d8a:	9c08      	ldr	r4, [sp, #32]
10013d8c:	eba8 0805 	sub.w	r8, r8, r5
10013d90:	f108 33ff 	add.w	r3, r8, #4294967295	@ 0xffffffff
10013d94:	2c16      	cmp	r4, #22
10013d96:	9309      	str	r3, [sp, #36]	@ 0x24
10013d98:	f200 818d 	bhi.w	100140b6 <_dtoa_r+0x452>
10013d9c:	4b3c      	ldr	r3, [pc, #240]	@ (10013e90 <_dtoa_r+0x22c>)
10013d9e:	eb03 03c4 	add.w	r3, r3, r4, lsl #3
10013da2:	e9d3 2300 	ldrd	r2, r3, [r3]
10013da6:	e9dd 0102 	ldrd	r0, r1, [sp, #8]
10013daa:	f003 fc5b 	bl	10017664 <__aeabi_dcmplt>
10013dae:	2800      	cmp	r0, #0
10013db0:	d074      	beq.n	10013e9c <_dtoa_r+0x238>
10013db2:	1e63      	subs	r3, r4, #1
10013db4:	9308      	str	r3, [sp, #32]
10013db6:	2300      	movs	r3, #0
10013db8:	930f      	str	r3, [sp, #60]	@ 0x3c
10013dba:	f108 33ff 	add.w	r3, r8, #4294967295	@ 0xffffffff
10013dbe:	2b00      	cmp	r3, #0
10013dc0:	f2c0 8180 	blt.w	100140c4 <_dtoa_r+0x460>
10013dc4:	2300      	movs	r3, #0
10013dc6:	930a      	str	r3, [sp, #40]	@ 0x28
10013dc8:	9b08      	ldr	r3, [sp, #32]
10013dca:	2b00      	cmp	r3, #0
10013dcc:	da6c      	bge.n	10013ea8 <_dtoa_r+0x244>
10013dce:	9b08      	ldr	r3, [sp, #32]
10013dd0:	9a0a      	ldr	r2, [sp, #40]	@ 0x28
10013dd2:	930b      	str	r3, [sp, #44]	@ 0x2c
10013dd4:	1ad2      	subs	r2, r2, r3
10013dd6:	920a      	str	r2, [sp, #40]	@ 0x28
10013dd8:	425a      	negs	r2, r3
10013dda:	2300      	movs	r3, #0
10013ddc:	9308      	str	r3, [sp, #32]
10013dde:	9b24      	ldr	r3, [sp, #144]	@ 0x90
10013de0:	920e      	str	r2, [sp, #56]	@ 0x38
10013de2:	2b09      	cmp	r3, #9
10013de4:	d86a      	bhi.n	10013ebc <_dtoa_r+0x258>
10013de6:	2b05      	cmp	r3, #5
10013de8:	f340 8325 	ble.w	10014436 <_dtoa_r+0x7d2>
10013dec:	3b04      	subs	r3, #4
10013dee:	9324      	str	r3, [sp, #144]	@ 0x90
10013df0:	2500      	movs	r5, #0
10013df2:	9b24      	ldr	r3, [sp, #144]	@ 0x90
10013df4:	3b02      	subs	r3, #2
10013df6:	2b03      	cmp	r3, #3
10013df8:	f200 8637 	bhi.w	10014a6a <_dtoa_r+0xe06>
10013dfc:	e8df f013 	tbh	[pc, r3, lsl #1]
10013e00:	04700473 	.word	0x04700473
10013e04:	044b0467 	.word	0x044b0467
10013e08:	9a26      	ldr	r2, [sp, #152]	@ 0x98
10013e0a:	f3c9 0913 	ubfx	r9, r9, #0, #20
10013e0e:	f242 730f 	movw	r3, #9999	@ 0x270f
10013e12:	ea59 0906 	orrs.w	r9, r9, r6
10013e16:	6013      	str	r3, [r2, #0]
10013e18:	d11c      	bne.n	10013e54 <_dtoa_r+0x1f0>
10013e1a:	9b28      	ldr	r3, [sp, #160]	@ 0xa0
10013e1c:	2b00      	cmp	r3, #0
10013e1e:	f000 8644 	beq.w	10014aaa <_dtoa_r+0xe46>
10013e22:	4b1c      	ldr	r3, [pc, #112]	@ (10013e94 <_dtoa_r+0x230>)
10013e24:	9305      	str	r3, [sp, #20]
10013e26:	3308      	adds	r3, #8
10013e28:	9a28      	ldr	r2, [sp, #160]	@ 0xa0
10013e2a:	9805      	ldr	r0, [sp, #20]
10013e2c:	6013      	str	r3, [r2, #0]
10013e2e:	b01b      	add	sp, #108	@ 0x6c
10013e30:	e8bd 8ff0 	ldmia.w	sp!, {r4, r5, r6, r7, r8, r9, sl, fp, pc}
10013e34:	e9dd 1202 	ldrd	r1, r2, [sp, #8]
10013e38:	f3c2 0313 	ubfx	r3, r2, #0, #20
10013e3c:	4608      	mov	r0, r1
10013e3e:	f043 517f 	orr.w	r1, r3, #1069547520	@ 0x3fc00000
10013e42:	f8cd 8040 	str.w	r8, [sp, #64]	@ 0x40
10013e46:	f2a5 35ff 	subw	r5, r5, #1023	@ 0x3ff
10013e4a:	f8dd 8060 	ldr.w	r8, [sp, #96]	@ 0x60
10013e4e:	f441 1140 	orr.w	r1, r1, #3145728	@ 0x300000
10013e52:	e76d      	b.n	10013d30 <_dtoa_r+0xcc>
10013e54:	9b28      	ldr	r3, [sp, #160]	@ 0xa0
10013e56:	2b00      	cmp	r3, #0
10013e58:	f040 83f8 	bne.w	1001464c <_dtoa_r+0x9e8>
10013e5c:	4b0e      	ldr	r3, [pc, #56]	@ (10013e98 <_dtoa_r+0x234>)
10013e5e:	9305      	str	r3, [sp, #20]
10013e60:	e73b      	b.n	10013cda <_dtoa_r+0x76>
10013e62:	bf00      	nop
10013e64:	f3af 8000 	nop.w
10013e68:	636f4361 	.word	0x636f4361
10013e6c:	3fd287a7 	.word	0x3fd287a7
10013e70:	8b60c8b3 	.word	0x8b60c8b3
10013e74:	3fc68a28 	.word	0x3fc68a28
10013e78:	509f79fb 	.word	0x509f79fb
10013e7c:	3fd34413 	.word	0x3fd34413
10013e80:	7ff00000 	.word	0x7ff00000
10013e84:	10017c1d 	.word	0x10017c1d
10013e88:	10017c1c 	.word	0x10017c1c
10013e8c:	3ff80000 	.word	0x3ff80000
10013e90:	10017eb0 	.word	0x10017eb0
10013e94:	10017c20 	.word	0x10017c20
10013e98:	10017c2c 	.word	0x10017c2c
10013e9c:	f1b8 0f00 	cmp.w	r8, #0
10013ea0:	f340 84a6 	ble.w	100147f0 <_dtoa_r+0xb8c>
10013ea4:	900f      	str	r0, [sp, #60]	@ 0x3c
10013ea6:	900a      	str	r0, [sp, #40]	@ 0x28
10013ea8:	e9dd 2308 	ldrd	r2, r3, [sp, #32]
10013eac:	4413      	add	r3, r2
10013eae:	9309      	str	r3, [sp, #36]	@ 0x24
10013eb0:	2300      	movs	r3, #0
10013eb2:	930e      	str	r3, [sp, #56]	@ 0x38
10013eb4:	9b24      	ldr	r3, [sp, #144]	@ 0x90
10013eb6:	920b      	str	r2, [sp, #44]	@ 0x2c
10013eb8:	2b09      	cmp	r3, #9
10013eba:	d994      	bls.n	10013de6 <_dtoa_r+0x182>
10013ebc:	2300      	movs	r3, #0
10013ebe:	e9cd 3324 	strd	r3, r3, [sp, #144]	@ 0x90
10013ec2:	2501      	movs	r5, #1
10013ec4:	950c      	str	r5, [sp, #48]	@ 0x30
10013ec6:	f04f 3bff 	mov.w	fp, #4294967295	@ 0xffffffff
10013eca:	9b04      	ldr	r3, [sp, #16]
10013ecc:	f8cd b044 	str.w	fp, [sp, #68]	@ 0x44
10013ed0:	2100      	movs	r1, #0
10013ed2:	63d9      	str	r1, [r3, #60]	@ 0x3c
10013ed4:	9804      	ldr	r0, [sp, #16]
10013ed6:	f001 f963 	bl	100151a0 <_Balloc>
10013eda:	9005      	str	r0, [sp, #20]
10013edc:	2800      	cmp	r0, #0
10013ede:	f000 85cd 	beq.w	10014a7c <_dtoa_r+0xe18>
10013ee2:	e9dd 3204 	ldrd	r3, r2, [sp, #16]
10013ee6:	f1bb 0f0e 	cmp.w	fp, #14
10013eea:	639a      	str	r2, [r3, #56]	@ 0x38
10013eec:	f200 8119 	bhi.w	10014122 <_dtoa_r+0x4be>
10013ef0:	2d00      	cmp	r5, #0
10013ef2:	f000 8116 	beq.w	10014122 <_dtoa_r+0x4be>
10013ef6:	990b      	ldr	r1, [sp, #44]	@ 0x2c
10013ef8:	2900      	cmp	r1, #0
10013efa:	f340 8449 	ble.w	10014790 <_dtoa_r+0xb2c>
10013efe:	4bb4      	ldr	r3, [pc, #720]	@ (100141d0 <_dtoa_r+0x56c>)
10013f00:	f001 020f 	and.w	r2, r1, #15
10013f04:	eb03 03c2 	add.w	r3, r3, r2, lsl #3
10013f08:	05c8      	lsls	r0, r1, #23
10013f0a:	e9d3 8900 	ldrd	r8, r9, [r3]
10013f0e:	ea4f 1521 	mov.w	r5, r1, asr #4
10013f12:	f140 840b 	bpl.w	1001472c <_dtoa_r+0xac8>
10013f16:	4baf      	ldr	r3, [pc, #700]	@ (100141d4 <_dtoa_r+0x570>)
10013f18:	e9dd 0102 	ldrd	r0, r1, [sp, #8]
10013f1c:	e9d3 2308 	ldrd	r2, r3, [r3, #32]
10013f20:	f003 fa58 	bl	100173d4 <__aeabi_ddiv>
10013f24:	e9cd 0112 	strd	r0, r1, [sp, #72]	@ 0x48
10013f28:	f005 050f 	and.w	r5, r5, #15
10013f2c:	2703      	movs	r7, #3
10013f2e:	b17d      	cbz	r5, 10013f50 <_dtoa_r+0x2ec>
10013f30:	4ea8      	ldr	r6, [pc, #672]	@ (100141d4 <_dtoa_r+0x570>)
10013f32:	07e9      	lsls	r1, r5, #31
10013f34:	d508      	bpl.n	10013f48 <_dtoa_r+0x2e4>
10013f36:	4640      	mov	r0, r8
10013f38:	4649      	mov	r1, r9
10013f3a:	e9d6 2300 	ldrd	r2, r3, [r6]
10013f3e:	f003 f91f 	bl	10017180 <__aeabi_dmul>
10013f42:	3701      	adds	r7, #1
10013f44:	4680      	mov	r8, r0
10013f46:	4689      	mov	r9, r1
10013f48:	106d      	asrs	r5, r5, #1
10013f4a:	f106 0608 	add.w	r6, r6, #8
10013f4e:	d1f0      	bne.n	10013f32 <_dtoa_r+0x2ce>
10013f50:	4642      	mov	r2, r8
10013f52:	464b      	mov	r3, r9
10013f54:	e9dd 0112 	ldrd	r0, r1, [sp, #72]	@ 0x48
10013f58:	f003 fa3c 	bl	100173d4 <__aeabi_ddiv>
10013f5c:	4680      	mov	r8, r0
10013f5e:	4689      	mov	r9, r1
10013f60:	9b0f      	ldr	r3, [sp, #60]	@ 0x3c
10013f62:	b143      	cbz	r3, 10013f76 <_dtoa_r+0x312>
10013f64:	4b9c      	ldr	r3, [pc, #624]	@ (100141d8 <_dtoa_r+0x574>)
10013f66:	2200      	movs	r2, #0
10013f68:	4640      	mov	r0, r8
10013f6a:	4649      	mov	r1, r9
10013f6c:	f003 fb7a 	bl	10017664 <__aeabi_dcmplt>
10013f70:	2800      	cmp	r0, #0
10013f72:	f040 850a 	bne.w	1001498a <_dtoa_r+0xd26>
10013f76:	4638      	mov	r0, r7
10013f78:	f003 f898 	bl	100170ac <__aeabi_i2d>
10013f7c:	4642      	mov	r2, r8
10013f7e:	464b      	mov	r3, r9
10013f80:	f003 f8fe 	bl	10017180 <__aeabi_dmul>
10013f84:	4b95      	ldr	r3, [pc, #596]	@ (100141dc <_dtoa_r+0x578>)
10013f86:	2200      	movs	r2, #0
10013f88:	f002 ff44 	bl	10016e14 <__adddf3>
10013f8c:	f1a1 7350 	sub.w	r3, r1, #54525952	@ 0x3400000
10013f90:	e9cd 0112 	strd	r0, r1, [sp, #72]	@ 0x48
10013f94:	9313      	str	r3, [sp, #76]	@ 0x4c
10013f96:	f1bb 0f00 	cmp.w	fp, #0
10013f9a:	f000 80a9 	beq.w	100140f0 <_dtoa_r+0x48c>
10013f9e:	9b0b      	ldr	r3, [sp, #44]	@ 0x2c
10013fa0:	e9cd b316 	strd	fp, r3, [sp, #88]	@ 0x58
10013fa4:	4649      	mov	r1, r9
10013fa6:	4640      	mov	r0, r8
10013fa8:	f003 fb9a 	bl	100176e0 <__aeabi_d2iz>
10013fac:	4988      	ldr	r1, [pc, #544]	@ (100141d0 <_dtoa_r+0x56c>)
10013fae:	9c16      	ldr	r4, [sp, #88]	@ 0x58
10013fb0:	eb01 03c4 	add.w	r3, r1, r4, lsl #3
10013fb4:	e953 1202 	ldrd	r1, r2, [r3, #-8]
10013fb8:	4605      	mov	r5, r0
10013fba:	e9cd 1214 	strd	r1, r2, [sp, #80]	@ 0x50
10013fbe:	f003 f875 	bl	100170ac <__aeabi_i2d>
10013fc2:	460b      	mov	r3, r1
10013fc4:	4602      	mov	r2, r0
10013fc6:	4649      	mov	r1, r9
10013fc8:	4640      	mov	r0, r8
10013fca:	f002 ff21 	bl	10016e10 <__aeabi_dsub>
10013fce:	9f05      	ldr	r7, [sp, #20]
10013fd0:	9b0c      	ldr	r3, [sp, #48]	@ 0x30
10013fd2:	3530      	adds	r5, #48	@ 0x30
10013fd4:	1c7e      	adds	r6, r7, #1
10013fd6:	b2ec      	uxtb	r4, r5
10013fd8:	4680      	mov	r8, r0
10013fda:	4689      	mov	r9, r1
10013fdc:	4635      	mov	r5, r6
10013fde:	2b00      	cmp	r3, #0
10013fe0:	f000 846e 	beq.w	100148c0 <_dtoa_r+0xc5c>
10013fe4:	e9dd 2314 	ldrd	r2, r3, [sp, #80]	@ 0x50
10013fe8:	497d      	ldr	r1, [pc, #500]	@ (100141e0 <_dtoa_r+0x57c>)
10013fea:	2000      	movs	r0, #0
10013fec:	f003 f9f2 	bl	100173d4 <__aeabi_ddiv>
10013ff0:	e9dd 2312 	ldrd	r2, r3, [sp, #72]	@ 0x48
10013ff4:	f002 ff0c 	bl	10016e10 <__aeabi_dsub>
10013ff8:	703c      	strb	r4, [r7, #0]
10013ffa:	4642      	mov	r2, r8
10013ffc:	464b      	mov	r3, r9
10013ffe:	4604      	mov	r4, r0
10014000:	460d      	mov	r5, r1
10014002:	f003 fb4d 	bl	100176a0 <__aeabi_dcmpgt>
10014006:	2800      	cmp	r0, #0
10014008:	f040 84b7 	bne.w	1001497a <_dtoa_r+0xd16>
1001400c:	f8cd b050 	str.w	fp, [sp, #80]	@ 0x50
10014010:	2700      	movs	r7, #0
10014012:	f8dd b058 	ldr.w	fp, [sp, #88]	@ 0x58
10014016:	f8cd a048 	str.w	sl, [sp, #72]	@ 0x48
1001401a:	e02b      	b.n	10014074 <_dtoa_r+0x410>
1001401c:	3701      	adds	r7, #1
1001401e:	455f      	cmp	r7, fp
10014020:	f280 84fd 	bge.w	10014a1e <_dtoa_r+0xdba>
10014024:	4b6f      	ldr	r3, [pc, #444]	@ (100141e4 <_dtoa_r+0x580>)
10014026:	4620      	mov	r0, r4
10014028:	4629      	mov	r1, r5
1001402a:	2200      	movs	r2, #0
1001402c:	f003 f8a8 	bl	10017180 <__aeabi_dmul>
10014030:	4b6c      	ldr	r3, [pc, #432]	@ (100141e4 <_dtoa_r+0x580>)
10014032:	2200      	movs	r2, #0
10014034:	4604      	mov	r4, r0
10014036:	460d      	mov	r5, r1
10014038:	4640      	mov	r0, r8
1001403a:	4649      	mov	r1, r9
1001403c:	f003 f8a0 	bl	10017180 <__aeabi_dmul>
10014040:	4689      	mov	r9, r1
10014042:	4680      	mov	r8, r0
10014044:	f003 fb4c 	bl	100176e0 <__aeabi_d2iz>
10014048:	4682      	mov	sl, r0
1001404a:	f003 f82f 	bl	100170ac <__aeabi_i2d>
1001404e:	4602      	mov	r2, r0
10014050:	460b      	mov	r3, r1
10014052:	4640      	mov	r0, r8
10014054:	4649      	mov	r1, r9
10014056:	f002 fedb 	bl	10016e10 <__aeabi_dsub>
1001405a:	f10a 0a30 	add.w	sl, sl, #48	@ 0x30
1001405e:	f806 ab01 	strb.w	sl, [r6], #1
10014062:	4622      	mov	r2, r4
10014064:	462b      	mov	r3, r5
10014066:	4680      	mov	r8, r0
10014068:	4689      	mov	r9, r1
1001406a:	f003 fafb 	bl	10017664 <__aeabi_dcmplt>
1001406e:	2800      	cmp	r0, #0
10014070:	f040 84d2 	bne.w	10014a18 <_dtoa_r+0xdb4>
10014074:	4642      	mov	r2, r8
10014076:	464b      	mov	r3, r9
10014078:	4957      	ldr	r1, [pc, #348]	@ (100141d8 <_dtoa_r+0x574>)
1001407a:	2000      	movs	r0, #0
1001407c:	f002 fec8 	bl	10016e10 <__aeabi_dsub>
10014080:	4622      	mov	r2, r4
10014082:	462b      	mov	r3, r5
10014084:	f003 faee 	bl	10017664 <__aeabi_dcmplt>
10014088:	2800      	cmp	r0, #0
1001408a:	d0c7      	beq.n	1001401c <_dtoa_r+0x3b8>
1001408c:	9b17      	ldr	r3, [sp, #92]	@ 0x5c
1001408e:	f8dd a048 	ldr.w	sl, [sp, #72]	@ 0x48
10014092:	9a05      	ldr	r2, [sp, #20]
10014094:	4637      	mov	r7, r6
10014096:	f103 0801 	add.w	r8, r3, #1
1001409a:	e002      	b.n	100140a2 <_dtoa_r+0x43e>
1001409c:	4297      	cmp	r7, r2
1001409e:	f000 849a 	beq.w	100149d6 <_dtoa_r+0xd72>
100140a2:	463e      	mov	r6, r7
100140a4:	f817 3d01 	ldrb.w	r3, [r7, #-1]!
100140a8:	2b39      	cmp	r3, #57	@ 0x39
100140aa:	d0f7      	beq.n	1001409c <_dtoa_r+0x438>
100140ac:	3301      	adds	r3, #1
100140ae:	b2db      	uxtb	r3, r3
100140b0:	703b      	strb	r3, [r7, #0]
100140b2:	4645      	mov	r5, r8
100140b4:	e17f      	b.n	100143b6 <_dtoa_r+0x752>
100140b6:	2301      	movs	r3, #1
100140b8:	930f      	str	r3, [sp, #60]	@ 0x3c
100140ba:	f108 33ff 	add.w	r3, r8, #4294967295	@ 0xffffffff
100140be:	2b00      	cmp	r3, #0
100140c0:	f6bf ae80 	bge.w	10013dc4 <_dtoa_r+0x160>
100140c4:	f1c8 0301 	rsb	r3, r8, #1
100140c8:	930a      	str	r3, [sp, #40]	@ 0x28
100140ca:	2300      	movs	r3, #0
100140cc:	9309      	str	r3, [sp, #36]	@ 0x24
100140ce:	e67b      	b.n	10013dc8 <_dtoa_r+0x164>
100140d0:	4638      	mov	r0, r7
100140d2:	f002 ffeb 	bl	100170ac <__aeabi_i2d>
100140d6:	4642      	mov	r2, r8
100140d8:	464b      	mov	r3, r9
100140da:	f003 f851 	bl	10017180 <__aeabi_dmul>
100140de:	4b3f      	ldr	r3, [pc, #252]	@ (100141dc <_dtoa_r+0x578>)
100140e0:	2200      	movs	r2, #0
100140e2:	f002 fe97 	bl	10016e14 <__adddf3>
100140e6:	f1a1 7350 	sub.w	r3, r1, #54525952	@ 0x3400000
100140ea:	e9cd 0112 	strd	r0, r1, [sp, #72]	@ 0x48
100140ee:	9313      	str	r3, [sp, #76]	@ 0x4c
100140f0:	4b3d      	ldr	r3, [pc, #244]	@ (100141e8 <_dtoa_r+0x584>)
100140f2:	2200      	movs	r2, #0
100140f4:	4640      	mov	r0, r8
100140f6:	4649      	mov	r1, r9
100140f8:	f002 fe8a 	bl	10016e10 <__aeabi_dsub>
100140fc:	e9dd 4512 	ldrd	r4, r5, [sp, #72]	@ 0x48
10014100:	4622      	mov	r2, r4
10014102:	462b      	mov	r3, r5
10014104:	4606      	mov	r6, r0
10014106:	460f      	mov	r7, r1
10014108:	f003 faca 	bl	100176a0 <__aeabi_dcmpgt>
1001410c:	2800      	cmp	r0, #0
1001410e:	f040 8471 	bne.w	100149f4 <_dtoa_r+0xd90>
10014112:	4630      	mov	r0, r6
10014114:	4639      	mov	r1, r7
10014116:	4622      	mov	r2, r4
10014118:	f105 4300 	add.w	r3, r5, #2147483648	@ 0x80000000
1001411c:	f003 faa2 	bl	10017664 <__aeabi_dcmplt>
10014120:	bb28      	cbnz	r0, 1001416e <_dtoa_r+0x50a>
10014122:	9b19      	ldr	r3, [sp, #100]	@ 0x64
10014124:	2b00      	cmp	r3, #0
10014126:	f2c0 8091 	blt.w	1001424c <_dtoa_r+0x5e8>
1001412a:	9a0b      	ldr	r2, [sp, #44]	@ 0x2c
1001412c:	2a0e      	cmp	r2, #14
1001412e:	f300 808d 	bgt.w	1001424c <_dtoa_r+0x5e8>
10014132:	4b27      	ldr	r3, [pc, #156]	@ (100141d0 <_dtoa_r+0x56c>)
10014134:	9a0b      	ldr	r2, [sp, #44]	@ 0x2c
10014136:	eb03 03c2 	add.w	r3, r3, r2, lsl #3
1001413a:	e9d3 3400 	ldrd	r3, r4, [r3]
1001413e:	e9cd 3406 	strd	r3, r4, [sp, #24]
10014142:	9b25      	ldr	r3, [sp, #148]	@ 0x94
10014144:	2b00      	cmp	r3, #0
10014146:	da19      	bge.n	1001417c <_dtoa_r+0x518>
10014148:	f1bb 0f00 	cmp.w	fp, #0
1001414c:	dc16      	bgt.n	1001417c <_dtoa_r+0x518>
1001414e:	d10e      	bne.n	1001416e <_dtoa_r+0x50a>
10014150:	4b25      	ldr	r3, [pc, #148]	@ (100141e8 <_dtoa_r+0x584>)
10014152:	2200      	movs	r2, #0
10014154:	e9dd 0106 	ldrd	r0, r1, [sp, #24]
10014158:	f003 f812 	bl	10017180 <__aeabi_dmul>
1001415c:	4602      	mov	r2, r0
1001415e:	460b      	mov	r3, r1
10014160:	e9dd 0102 	ldrd	r0, r1, [sp, #8]
10014164:	f003 fa88 	bl	10017678 <__aeabi_dcmple>
10014168:	2800      	cmp	r0, #0
1001416a:	f000 8443 	beq.w	100149f4 <_dtoa_r+0xd90>
1001416e:	2300      	movs	r3, #0
10014170:	9e05      	ldr	r6, [sp, #20]
10014172:	9302      	str	r3, [sp, #8]
10014174:	461f      	mov	r7, r3
10014176:	9b25      	ldr	r3, [sp, #148]	@ 0x94
10014178:	43dd      	mvns	r5, r3
1001417a:	e22e      	b.n	100145da <_dtoa_r+0x976>
1001417c:	9b05      	ldr	r3, [sp, #20]
1001417e:	1c5d      	adds	r5, r3, #1
10014180:	e9dd 7806 	ldrd	r7, r8, [sp, #24]
10014184:	e9dd 0102 	ldrd	r0, r1, [sp, #8]
10014188:	463a      	mov	r2, r7
1001418a:	4643      	mov	r3, r8
1001418c:	f003 f922 	bl	100173d4 <__aeabi_ddiv>
10014190:	f003 faa6 	bl	100176e0 <__aeabi_d2iz>
10014194:	4606      	mov	r6, r0
10014196:	f002 ff89 	bl	100170ac <__aeabi_i2d>
1001419a:	463a      	mov	r2, r7
1001419c:	4643      	mov	r3, r8
1001419e:	f002 ffef 	bl	10017180 <__aeabi_dmul>
100141a2:	4602      	mov	r2, r0
100141a4:	460b      	mov	r3, r1
100141a6:	e9dd 0102 	ldrd	r0, r1, [sp, #8]
100141aa:	f002 fe31 	bl	10016e10 <__aeabi_dsub>
100141ae:	9a05      	ldr	r2, [sp, #20]
100141b0:	f106 0330 	add.w	r3, r6, #48	@ 0x30
100141b4:	f1bb 0f01 	cmp.w	fp, #1
100141b8:	462f      	mov	r7, r5
100141ba:	7013      	strb	r3, [r2, #0]
100141bc:	f000 8323 	beq.w	10014806 <_dtoa_r+0xba2>
100141c0:	2501      	movs	r5, #1
100141c2:	f8cd a008 	str.w	sl, [sp, #8]
100141c6:	46a8      	mov	r8, r5
100141c8:	e9dd 9a06 	ldrd	r9, sl, [sp, #24]
100141cc:	e02c      	b.n	10014228 <_dtoa_r+0x5c4>
100141ce:	bf00      	nop
100141d0:	10017eb0 	.word	0x10017eb0
100141d4:	10017fa0 	.word	0x10017fa0
100141d8:	3ff00000 	.word	0x3ff00000
100141dc:	401c0000 	.word	0x401c0000
100141e0:	3fe00000 	.word	0x3fe00000
100141e4:	40240000 	.word	0x40240000
100141e8:	40140000 	.word	0x40140000
100141ec:	464a      	mov	r2, r9
100141ee:	4653      	mov	r3, sl
100141f0:	4620      	mov	r0, r4
100141f2:	4629      	mov	r1, r5
100141f4:	f003 f8ee 	bl	100173d4 <__aeabi_ddiv>
100141f8:	f003 fa72 	bl	100176e0 <__aeabi_d2iz>
100141fc:	4606      	mov	r6, r0
100141fe:	f002 ff55 	bl	100170ac <__aeabi_i2d>
10014202:	464a      	mov	r2, r9
10014204:	4653      	mov	r3, sl
10014206:	f002 ffbb 	bl	10017180 <__aeabi_dmul>
1001420a:	f108 0801 	add.w	r8, r8, #1
1001420e:	460b      	mov	r3, r1
10014210:	4602      	mov	r2, r0
10014212:	4629      	mov	r1, r5
10014214:	4620      	mov	r0, r4
10014216:	f002 fdfb 	bl	10016e10 <__aeabi_dsub>
1001421a:	f106 0330 	add.w	r3, r6, #48	@ 0x30
1001421e:	45d8      	cmp	r8, fp
10014220:	f807 3b01 	strb.w	r3, [r7], #1
10014224:	f000 82ed 	beq.w	10014802 <_dtoa_r+0xb9e>
10014228:	4b84      	ldr	r3, [pc, #528]	@ (1001443c <_dtoa_r+0x7d8>)
1001422a:	2200      	movs	r2, #0
1001422c:	f002 ffa8 	bl	10017180 <__aeabi_dmul>
10014230:	2200      	movs	r2, #0
10014232:	2300      	movs	r3, #0
10014234:	4604      	mov	r4, r0
10014236:	460d      	mov	r5, r1
10014238:	f003 fa0a 	bl	10017650 <__aeabi_dcmpeq>
1001423c:	2800      	cmp	r0, #0
1001423e:	d0d5      	beq.n	100141ec <_dtoa_r+0x588>
10014240:	9d0b      	ldr	r5, [sp, #44]	@ 0x2c
10014242:	f8dd a008 	ldr.w	sl, [sp, #8]
10014246:	3501      	adds	r5, #1
10014248:	463e      	mov	r6, r7
1001424a:	e0b4      	b.n	100143b6 <_dtoa_r+0x752>
1001424c:	9a0c      	ldr	r2, [sp, #48]	@ 0x30
1001424e:	2a00      	cmp	r2, #0
10014250:	f040 80d8 	bne.w	10014404 <_dtoa_r+0x7a0>
10014254:	2300      	movs	r3, #0
10014256:	9e0e      	ldr	r6, [sp, #56]	@ 0x38
10014258:	9d0a      	ldr	r5, [sp, #40]	@ 0x28
1001425a:	930c      	str	r3, [sp, #48]	@ 0x30
1001425c:	461f      	mov	r7, r3
1001425e:	b165      	cbz	r5, 1001427a <_dtoa_r+0x616>
10014260:	9909      	ldr	r1, [sp, #36]	@ 0x24
10014262:	2900      	cmp	r1, #0
10014264:	460b      	mov	r3, r1
10014266:	dd08      	ble.n	1001427a <_dtoa_r+0x616>
10014268:	9a0a      	ldr	r2, [sp, #40]	@ 0x28
1001426a:	42a9      	cmp	r1, r5
1001426c:	bfa8      	it	ge
1001426e:	462b      	movge	r3, r5
10014270:	1ad2      	subs	r2, r2, r3
10014272:	1aed      	subs	r5, r5, r3
10014274:	1acb      	subs	r3, r1, r3
10014276:	920a      	str	r2, [sp, #40]	@ 0x28
10014278:	9309      	str	r3, [sp, #36]	@ 0x24
1001427a:	9b0e      	ldr	r3, [sp, #56]	@ 0x38
1001427c:	b153      	cbz	r3, 10014294 <_dtoa_r+0x630>
1001427e:	9b0c      	ldr	r3, [sp, #48]	@ 0x30
10014280:	b113      	cbz	r3, 10014288 <_dtoa_r+0x624>
10014282:	2e00      	cmp	r6, #0
10014284:	f040 82f8 	bne.w	10014878 <_dtoa_r+0xc14>
10014288:	4651      	mov	r1, sl
1001428a:	9a0e      	ldr	r2, [sp, #56]	@ 0x38
1001428c:	9804      	ldr	r0, [sp, #16]
1001428e:	f001 f997 	bl	100155c0 <__pow5mult>
10014292:	4682      	mov	sl, r0
10014294:	9804      	ldr	r0, [sp, #16]
10014296:	2101      	movs	r1, #1
10014298:	f001 f8ae 	bl	100153f8 <__i2b>
1001429c:	9b08      	ldr	r3, [sp, #32]
1001429e:	9002      	str	r0, [sp, #8]
100142a0:	2b00      	cmp	r3, #0
100142a2:	f040 81be 	bne.w	10014622 <_dtoa_r+0x9be>
100142a6:	9b24      	ldr	r3, [sp, #144]	@ 0x90
100142a8:	2b01      	cmp	r3, #1
100142aa:	f340 81d4 	ble.w	10014656 <_dtoa_r+0x9f2>
100142ae:	2001      	movs	r0, #1
100142b0:	9a09      	ldr	r2, [sp, #36]	@ 0x24
100142b2:	4410      	add	r0, r2
100142b4:	f010 001f 	ands.w	r0, r0, #31
100142b8:	f000 809b 	beq.w	100143f2 <_dtoa_r+0x78e>
100142bc:	f1c0 0320 	rsb	r3, r0, #32
100142c0:	2b04      	cmp	r3, #4
100142c2:	f340 81e3 	ble.w	1001468c <_dtoa_r+0xa28>
100142c6:	9b0a      	ldr	r3, [sp, #40]	@ 0x28
100142c8:	f1c0 001c 	rsb	r0, r0, #28
100142cc:	4403      	add	r3, r0
100142ce:	4402      	add	r2, r0
100142d0:	930a      	str	r3, [sp, #40]	@ 0x28
100142d2:	4405      	add	r5, r0
100142d4:	9209      	str	r2, [sp, #36]	@ 0x24
100142d6:	9b0a      	ldr	r3, [sp, #40]	@ 0x28
100142d8:	2b00      	cmp	r3, #0
100142da:	dd05      	ble.n	100142e8 <_dtoa_r+0x684>
100142dc:	4651      	mov	r1, sl
100142de:	9804      	ldr	r0, [sp, #16]
100142e0:	461a      	mov	r2, r3
100142e2:	f001 f9c7 	bl	10015674 <__lshift>
100142e6:	4682      	mov	sl, r0
100142e8:	9b09      	ldr	r3, [sp, #36]	@ 0x24
100142ea:	2b00      	cmp	r3, #0
100142ec:	dd05      	ble.n	100142fa <_dtoa_r+0x696>
100142ee:	9902      	ldr	r1, [sp, #8]
100142f0:	9804      	ldr	r0, [sp, #16]
100142f2:	461a      	mov	r2, r3
100142f4:	f001 f9be 	bl	10015674 <__lshift>
100142f8:	9002      	str	r0, [sp, #8]
100142fa:	9b0f      	ldr	r3, [sp, #60]	@ 0x3c
100142fc:	2b00      	cmp	r3, #0
100142fe:	f040 8175 	bne.w	100145ec <_dtoa_r+0x988>
10014302:	f1bb 0f00 	cmp.w	fp, #0
10014306:	f340 814c 	ble.w	100145a2 <_dtoa_r+0x93e>
1001430a:	9b0c      	ldr	r3, [sp, #48]	@ 0x30
1001430c:	2b00      	cmp	r3, #0
1001430e:	f040 80a4 	bne.w	1001445a <_dtoa_r+0x7f6>
10014312:	9d0b      	ldr	r5, [sp, #44]	@ 0x2c
10014314:	3501      	adds	r5, #1
10014316:	f8dd 8014 	ldr.w	r8, [sp, #20]
1001431a:	9c02      	ldr	r4, [sp, #8]
1001431c:	f8dd 9010 	ldr.w	r9, [sp, #16]
10014320:	2601      	movs	r6, #1
10014322:	e007      	b.n	10014334 <_dtoa_r+0x6d0>
10014324:	4651      	mov	r1, sl
10014326:	2300      	movs	r3, #0
10014328:	220a      	movs	r2, #10
1001432a:	4648      	mov	r0, r9
1001432c:	f000 ff68 	bl	10015200 <__multadd>
10014330:	3601      	adds	r6, #1
10014332:	4682      	mov	sl, r0
10014334:	4621      	mov	r1, r4
10014336:	4650      	mov	r0, sl
10014338:	f7ff fbfe 	bl	10013b38 <quorem>
1001433c:	45b3      	cmp	fp, r6
1001433e:	f100 0030 	add.w	r0, r0, #48	@ 0x30
10014342:	f808 0b01 	strb.w	r0, [r8], #1
10014346:	dced      	bgt.n	10014324 <_dtoa_r+0x6c0>
10014348:	f1bb 0f00 	cmp.w	fp, #0
1001434c:	9b05      	ldr	r3, [sp, #20]
1001434e:	bfcc      	ite	gt
10014350:	465e      	movgt	r6, fp
10014352:	2601      	movle	r6, #1
10014354:	4681      	mov	r9, r0
10014356:	eb03 0b06 	add.w	fp, r3, r6
1001435a:	2400      	movs	r4, #0
1001435c:	4651      	mov	r1, sl
1001435e:	2201      	movs	r2, #1
10014360:	9804      	ldr	r0, [sp, #16]
10014362:	f001 f987 	bl	10015674 <__lshift>
10014366:	9902      	ldr	r1, [sp, #8]
10014368:	4682      	mov	sl, r0
1001436a:	f001 f9fb 	bl	10015764 <__mcmp>
1001436e:	2800      	cmp	r0, #0
10014370:	f340 81ef 	ble.w	10014752 <_dtoa_r+0xaee>
10014374:	9a05      	ldr	r2, [sp, #20]
10014376:	e002      	b.n	1001437e <_dtoa_r+0x71a>
10014378:	4593      	cmp	fp, r2
1001437a:	f000 8204 	beq.w	10014786 <_dtoa_r+0xb22>
1001437e:	465e      	mov	r6, fp
10014380:	f10b 3bff 	add.w	fp, fp, #4294967295	@ 0xffffffff
10014384:	f816 3c01 	ldrb.w	r3, [r6, #-1]
10014388:	2b39      	cmp	r3, #57	@ 0x39
1001438a:	d0f5      	beq.n	10014378 <_dtoa_r+0x714>
1001438c:	3301      	adds	r3, #1
1001438e:	f88b 3000 	strb.w	r3, [fp]
10014392:	f8dd 8010 	ldr.w	r8, [sp, #16]
10014396:	9902      	ldr	r1, [sp, #8]
10014398:	4640      	mov	r0, r8
1001439a:	f000 ff27 	bl	100151ec <_Bfree>
1001439e:	b157      	cbz	r7, 100143b6 <_dtoa_r+0x752>
100143a0:	b12c      	cbz	r4, 100143ae <_dtoa_r+0x74a>
100143a2:	42bc      	cmp	r4, r7
100143a4:	d003      	beq.n	100143ae <_dtoa_r+0x74a>
100143a6:	4621      	mov	r1, r4
100143a8:	4640      	mov	r0, r8
100143aa:	f000 ff1f 	bl	100151ec <_Bfree>
100143ae:	9804      	ldr	r0, [sp, #16]
100143b0:	4639      	mov	r1, r7
100143b2:	f000 ff1b 	bl	100151ec <_Bfree>
100143b6:	9804      	ldr	r0, [sp, #16]
100143b8:	4651      	mov	r1, sl
100143ba:	f000 ff17 	bl	100151ec <_Bfree>
100143be:	2300      	movs	r3, #0
100143c0:	7033      	strb	r3, [r6, #0]
100143c2:	9b26      	ldr	r3, [sp, #152]	@ 0x98
100143c4:	601d      	str	r5, [r3, #0]
100143c6:	9b28      	ldr	r3, [sp, #160]	@ 0xa0
100143c8:	2b00      	cmp	r3, #0
100143ca:	f43f ac86 	beq.w	10013cda <_dtoa_r+0x76>
100143ce:	9805      	ldr	r0, [sp, #20]
100143d0:	601e      	str	r6, [r3, #0]
100143d2:	b01b      	add	sp, #108	@ 0x6c
100143d4:	e8bd 8ff0 	ldmia.w	sp!, {r4, r5, r6, r7, r8, r9, sl, fp, pc}
100143d8:	4620      	mov	r0, r4
100143da:	f002 fe67 	bl	100170ac <__aeabi_i2d>
100143de:	4632      	mov	r2, r6
100143e0:	463b      	mov	r3, r7
100143e2:	f003 f935 	bl	10017650 <__aeabi_dcmpeq>
100143e6:	2800      	cmp	r0, #0
100143e8:	f47f accf 	bne.w	10013d8a <_dtoa_r+0x126>
100143ec:	1e63      	subs	r3, r4, #1
100143ee:	9308      	str	r3, [sp, #32]
100143f0:	e4cb      	b.n	10013d8a <_dtoa_r+0x126>
100143f2:	231c      	movs	r3, #28
100143f4:	9a0a      	ldr	r2, [sp, #40]	@ 0x28
100143f6:	441a      	add	r2, r3
100143f8:	920a      	str	r2, [sp, #40]	@ 0x28
100143fa:	9a09      	ldr	r2, [sp, #36]	@ 0x24
100143fc:	441a      	add	r2, r3
100143fe:	441d      	add	r5, r3
10014400:	9209      	str	r2, [sp, #36]	@ 0x24
10014402:	e768      	b.n	100142d6 <_dtoa_r+0x672>
10014404:	9a24      	ldr	r2, [sp, #144]	@ 0x90
10014406:	2a01      	cmp	r2, #1
10014408:	f340 81ae 	ble.w	10014768 <_dtoa_r+0xb04>
1001440c:	9b0e      	ldr	r3, [sp, #56]	@ 0x38
1001440e:	f10b 36ff 	add.w	r6, fp, #4294967295	@ 0xffffffff
10014412:	42b3      	cmp	r3, r6
10014414:	f2c0 816a 	blt.w	100146ec <_dtoa_r+0xa88>
10014418:	f1bb 0f00 	cmp.w	fp, #0
1001441c:	eba3 0606 	sub.w	r6, r3, r6
10014420:	f280 82ec 	bge.w	100149fc <_dtoa_r+0xd98>
10014424:	9b0a      	ldr	r3, [sp, #40]	@ 0x28
10014426:	eba3 050b 	sub.w	r5, r3, fp
1001442a:	e16d      	b.n	10014708 <_dtoa_r+0xaa4>
1001442c:	f1c3 0320 	rsb	r3, r3, #32
10014430:	fa06 f003 	lsl.w	r0, r6, r3
10014434:	e475      	b.n	10013d22 <_dtoa_r+0xbe>
10014436:	2501      	movs	r5, #1
10014438:	e4db      	b.n	10013df2 <_dtoa_r+0x18e>
1001443a:	bf00      	nop
1001443c:	40240000 	.word	0x40240000
10014440:	4639      	mov	r1, r7
10014442:	2300      	movs	r3, #0
10014444:	9804      	ldr	r0, [sp, #16]
10014446:	220a      	movs	r2, #10
10014448:	f000 feda 	bl	10015200 <__multadd>
1001444c:	9b11      	ldr	r3, [sp, #68]	@ 0x44
1001444e:	2b00      	cmp	r3, #0
10014450:	4607      	mov	r7, r0
10014452:	f340 82fc 	ble.w	10014a4e <_dtoa_r+0xdea>
10014456:	960b      	str	r6, [sp, #44]	@ 0x2c
10014458:	469b      	mov	fp, r3
1001445a:	2d00      	cmp	r5, #0
1001445c:	dd05      	ble.n	1001446a <_dtoa_r+0x806>
1001445e:	4639      	mov	r1, r7
10014460:	9804      	ldr	r0, [sp, #16]
10014462:	462a      	mov	r2, r5
10014464:	f001 f906 	bl	10015674 <__lshift>
10014468:	4607      	mov	r7, r0
1001446a:	9b08      	ldr	r3, [sp, #32]
1001446c:	2b00      	cmp	r3, #0
1001446e:	f040 81e7 	bne.w	10014840 <_dtoa_r+0xbdc>
10014472:	46b8      	mov	r8, r7
10014474:	9e05      	ldr	r6, [sp, #20]
10014476:	1e73      	subs	r3, r6, #1
10014478:	eb03 040b 	add.w	r4, r3, fp
1001447c:	9b06      	ldr	r3, [sp, #24]
1001447e:	940a      	str	r4, [sp, #40]	@ 0x28
10014480:	f003 0301 	and.w	r3, r3, #1
10014484:	9c04      	ldr	r4, [sp, #16]
10014486:	930c      	str	r3, [sp, #48]	@ 0x30
10014488:	9902      	ldr	r1, [sp, #8]
1001448a:	4650      	mov	r0, sl
1001448c:	f7ff fb54 	bl	10013b38 <quorem>
10014490:	4639      	mov	r1, r7
10014492:	4683      	mov	fp, r0
10014494:	4650      	mov	r0, sl
10014496:	f001 f965 	bl	10015764 <__mcmp>
1001449a:	9902      	ldr	r1, [sp, #8]
1001449c:	4605      	mov	r5, r0
1001449e:	4642      	mov	r2, r8
100144a0:	4620      	mov	r0, r4
100144a2:	f001 f97f 	bl	100157a4 <__mdiff>
100144a6:	68c3      	ldr	r3, [r0, #12]
100144a8:	f10b 0930 	add.w	r9, fp, #48	@ 0x30
100144ac:	4601      	mov	r1, r0
100144ae:	bbab      	cbnz	r3, 1001451c <_dtoa_r+0x8b8>
100144b0:	9009      	str	r0, [sp, #36]	@ 0x24
100144b2:	4650      	mov	r0, sl
100144b4:	f001 f956 	bl	10015764 <__mcmp>
100144b8:	9909      	ldr	r1, [sp, #36]	@ 0x24
100144ba:	9008      	str	r0, [sp, #32]
100144bc:	4620      	mov	r0, r4
100144be:	f000 fe95 	bl	100151ec <_Bfree>
100144c2:	9a08      	ldr	r2, [sp, #32]
100144c4:	2a00      	cmp	r2, #0
100144c6:	d154      	bne.n	10014572 <_dtoa_r+0x90e>
100144c8:	9b24      	ldr	r3, [sp, #144]	@ 0x90
100144ca:	b91b      	cbnz	r3, 100144d4 <_dtoa_r+0x870>
100144cc:	9b0c      	ldr	r3, [sp, #48]	@ 0x30
100144ce:	2b00      	cmp	r3, #0
100144d0:	f000 82ab 	beq.w	10014a2a <_dtoa_r+0xdc6>
100144d4:	2d00      	cmp	r5, #0
100144d6:	db3f      	blt.n	10014558 <_dtoa_r+0x8f4>
100144d8:	9b0a      	ldr	r3, [sp, #40]	@ 0x28
100144da:	46b3      	mov	fp, r6
100144dc:	429e      	cmp	r6, r3
100144de:	f80b 9b01 	strb.w	r9, [fp], #1
100144e2:	f000 81c4 	beq.w	1001486e <_dtoa_r+0xc0a>
100144e6:	4651      	mov	r1, sl
100144e8:	2300      	movs	r3, #0
100144ea:	220a      	movs	r2, #10
100144ec:	4620      	mov	r0, r4
100144ee:	f000 fe87 	bl	10015200 <__multadd>
100144f2:	4547      	cmp	r7, r8
100144f4:	4682      	mov	sl, r0
100144f6:	4639      	mov	r1, r7
100144f8:	f04f 0300 	mov.w	r3, #0
100144fc:	f04f 020a 	mov.w	r2, #10
10014500:	4620      	mov	r0, r4
10014502:	d030      	beq.n	10014566 <_dtoa_r+0x902>
10014504:	f000 fe7c 	bl	10015200 <__multadd>
10014508:	4641      	mov	r1, r8
1001450a:	4607      	mov	r7, r0
1001450c:	2300      	movs	r3, #0
1001450e:	220a      	movs	r2, #10
10014510:	4620      	mov	r0, r4
10014512:	f000 fe75 	bl	10015200 <__multadd>
10014516:	465e      	mov	r6, fp
10014518:	4680      	mov	r8, r0
1001451a:	e7b5      	b.n	10014488 <_dtoa_r+0x824>
1001451c:	9804      	ldr	r0, [sp, #16]
1001451e:	f000 fe65 	bl	100151ec <_Bfree>
10014522:	2d00      	cmp	r5, #0
10014524:	db06      	blt.n	10014534 <_dtoa_r+0x8d0>
10014526:	9b06      	ldr	r3, [sp, #24]
10014528:	f003 0201 	and.w	r2, r3, #1
1001452c:	9b24      	ldr	r3, [sp, #144]	@ 0x90
1001452e:	431d      	orrs	r5, r3
10014530:	432a      	orrs	r2, r5
10014532:	d129      	bne.n	10014588 <_dtoa_r+0x924>
10014534:	4651      	mov	r1, sl
10014536:	2201      	movs	r2, #1
10014538:	9804      	ldr	r0, [sp, #16]
1001453a:	f001 f89b 	bl	10015674 <__lshift>
1001453e:	9902      	ldr	r1, [sp, #8]
10014540:	4682      	mov	sl, r0
10014542:	f001 f90f 	bl	10015764 <__mcmp>
10014546:	2800      	cmp	r0, #0
10014548:	f340 80f7 	ble.w	1001473a <_dtoa_r+0xad6>
1001454c:	f1b9 0f39 	cmp.w	r9, #57	@ 0x39
10014550:	f000 8246 	beq.w	100149e0 <_dtoa_r+0xd7c>
10014554:	f10b 0931 	add.w	r9, fp, #49	@ 0x31
10014558:	9d0b      	ldr	r5, [sp, #44]	@ 0x2c
1001455a:	f806 9b01 	strb.w	r9, [r6], #1
1001455e:	463c      	mov	r4, r7
10014560:	3501      	adds	r5, #1
10014562:	4647      	mov	r7, r8
10014564:	e715      	b.n	10014392 <_dtoa_r+0x72e>
10014566:	f000 fe4b 	bl	10015200 <__multadd>
1001456a:	465e      	mov	r6, fp
1001456c:	4607      	mov	r7, r0
1001456e:	4680      	mov	r8, r0
10014570:	e78a      	b.n	10014488 <_dtoa_r+0x824>
10014572:	2d00      	cmp	r5, #0
10014574:	f2c0 8290 	blt.w	10014a98 <_dtoa_r+0xe34>
10014578:	9b24      	ldr	r3, [sp, #144]	@ 0x90
1001457a:	431d      	orrs	r5, r3
1001457c:	9b0c      	ldr	r3, [sp, #48]	@ 0x30
1001457e:	431d      	orrs	r5, r3
10014580:	f000 828a 	beq.w	10014a98 <_dtoa_r+0xe34>
10014584:	2a00      	cmp	r2, #0
10014586:	dda7      	ble.n	100144d8 <_dtoa_r+0x874>
10014588:	f1b9 0f39 	cmp.w	r9, #57	@ 0x39
1001458c:	f000 8228 	beq.w	100149e0 <_dtoa_r+0xd7c>
10014590:	9d0b      	ldr	r5, [sp, #44]	@ 0x2c
10014592:	f109 0301 	add.w	r3, r9, #1
10014596:	463c      	mov	r4, r7
10014598:	f806 3b01 	strb.w	r3, [r6], #1
1001459c:	3501      	adds	r5, #1
1001459e:	4647      	mov	r7, r8
100145a0:	e6f7      	b.n	10014392 <_dtoa_r+0x72e>
100145a2:	9b24      	ldr	r3, [sp, #144]	@ 0x90
100145a4:	2b02      	cmp	r3, #2
100145a6:	f77f aeb0 	ble.w	1001430a <_dtoa_r+0x6a6>
100145aa:	f1bb 0f00 	cmp.w	fp, #0
100145ae:	f040 8126 	bne.w	100147fe <_dtoa_r+0xb9a>
100145b2:	9902      	ldr	r1, [sp, #8]
100145b4:	9804      	ldr	r0, [sp, #16]
100145b6:	465b      	mov	r3, fp
100145b8:	2205      	movs	r2, #5
100145ba:	f000 fe21 	bl	10015200 <__multadd>
100145be:	4601      	mov	r1, r0
100145c0:	9002      	str	r0, [sp, #8]
100145c2:	4650      	mov	r0, sl
100145c4:	f001 f8ce 	bl	10015764 <__mcmp>
100145c8:	2800      	cmp	r0, #0
100145ca:	f340 8118 	ble.w	100147fe <_dtoa_r+0xb9a>
100145ce:	9e05      	ldr	r6, [sp, #20]
100145d0:	9d0b      	ldr	r5, [sp, #44]	@ 0x2c
100145d2:	2331      	movs	r3, #49	@ 0x31
100145d4:	f806 3b01 	strb.w	r3, [r6], #1
100145d8:	3501      	adds	r5, #1
100145da:	9902      	ldr	r1, [sp, #8]
100145dc:	9804      	ldr	r0, [sp, #16]
100145de:	f000 fe05 	bl	100151ec <_Bfree>
100145e2:	3501      	adds	r5, #1
100145e4:	2f00      	cmp	r7, #0
100145e6:	f47f aee2 	bne.w	100143ae <_dtoa_r+0x74a>
100145ea:	e6e4      	b.n	100143b6 <_dtoa_r+0x752>
100145ec:	9902      	ldr	r1, [sp, #8]
100145ee:	4650      	mov	r0, sl
100145f0:	f001 f8b8 	bl	10015764 <__mcmp>
100145f4:	2800      	cmp	r0, #0
100145f6:	f6bf ae84 	bge.w	10014302 <_dtoa_r+0x69e>
100145fa:	4651      	mov	r1, sl
100145fc:	2300      	movs	r3, #0
100145fe:	9804      	ldr	r0, [sp, #16]
10014600:	9c0b      	ldr	r4, [sp, #44]	@ 0x2c
10014602:	220a      	movs	r2, #10
10014604:	f000 fdfc 	bl	10015200 <__multadd>
10014608:	9b0c      	ldr	r3, [sp, #48]	@ 0x30
1001460a:	1e66      	subs	r6, r4, #1
1001460c:	4682      	mov	sl, r0
1001460e:	2b00      	cmp	r3, #0
10014610:	f47f af16 	bne.w	10014440 <_dtoa_r+0x7dc>
10014614:	9b11      	ldr	r3, [sp, #68]	@ 0x44
10014616:	2b00      	cmp	r3, #0
10014618:	f340 820e 	ble.w	10014a38 <_dtoa_r+0xdd4>
1001461c:	9d0b      	ldr	r5, [sp, #44]	@ 0x2c
1001461e:	469b      	mov	fp, r3
10014620:	e679      	b.n	10014316 <_dtoa_r+0x6b2>
10014622:	4601      	mov	r1, r0
10014624:	461a      	mov	r2, r3
10014626:	9804      	ldr	r0, [sp, #16]
10014628:	f000 ffca 	bl	100155c0 <__pow5mult>
1001462c:	9b24      	ldr	r3, [sp, #144]	@ 0x90
1001462e:	9002      	str	r0, [sp, #8]
10014630:	2b01      	cmp	r3, #1
10014632:	dd6f      	ble.n	10014714 <_dtoa_r+0xab0>
10014634:	2300      	movs	r3, #0
10014636:	9308      	str	r3, [sp, #32]
10014638:	9a02      	ldr	r2, [sp, #8]
1001463a:	6913      	ldr	r3, [r2, #16]
1001463c:	eb02 0383 	add.w	r3, r2, r3, lsl #2
10014640:	6918      	ldr	r0, [r3, #16]
10014642:	f000 fe87 	bl	10015354 <__hi0bits>
10014646:	f1c0 0020 	rsb	r0, r0, #32
1001464a:	e631      	b.n	100142b0 <_dtoa_r+0x64c>
1001464c:	4b98      	ldr	r3, [pc, #608]	@ (100148b0 <_dtoa_r+0xc4c>)
1001464e:	9305      	str	r3, [sp, #20]
10014650:	3303      	adds	r3, #3
10014652:	f7ff bbe9 	b.w	10013e28 <_dtoa_r+0x1c4>
10014656:	9b06      	ldr	r3, [sp, #24]
10014658:	2b00      	cmp	r3, #0
1001465a:	f47f ae28 	bne.w	100142ae <_dtoa_r+0x64a>
1001465e:	e9dd 1206 	ldrd	r1, r2, [sp, #24]
10014662:	f3c2 0313 	ubfx	r3, r2, #0, #20
10014666:	2b00      	cmp	r3, #0
10014668:	f47f ae21 	bne.w	100142ae <_dtoa_r+0x64a>
1001466c:	4b91      	ldr	r3, [pc, #580]	@ (100148b4 <_dtoa_r+0xc50>)
1001466e:	4013      	ands	r3, r2
10014670:	b133      	cbz	r3, 10014680 <_dtoa_r+0xa1c>
10014672:	9b0a      	ldr	r3, [sp, #40]	@ 0x28
10014674:	3301      	adds	r3, #1
10014676:	930a      	str	r3, [sp, #40]	@ 0x28
10014678:	9b09      	ldr	r3, [sp, #36]	@ 0x24
1001467a:	3301      	adds	r3, #1
1001467c:	9309      	str	r3, [sp, #36]	@ 0x24
1001467e:	2301      	movs	r3, #1
10014680:	9a08      	ldr	r2, [sp, #32]
10014682:	9308      	str	r3, [sp, #32]
10014684:	2a00      	cmp	r2, #0
10014686:	f43f ae12 	beq.w	100142ae <_dtoa_r+0x64a>
1001468a:	e7d5      	b.n	10014638 <_dtoa_r+0x9d4>
1001468c:	f43f ae23 	beq.w	100142d6 <_dtoa_r+0x672>
10014690:	f1c0 033c 	rsb	r3, r0, #60	@ 0x3c
10014694:	e6ae      	b.n	100143f4 <_dtoa_r+0x790>
10014696:	2301      	movs	r3, #1
10014698:	930c      	str	r3, [sp, #48]	@ 0x30
1001469a:	9b25      	ldr	r3, [sp, #148]	@ 0x94
1001469c:	9a0b      	ldr	r2, [sp, #44]	@ 0x2c
1001469e:	4413      	add	r3, r2
100146a0:	f103 0b01 	add.w	fp, r3, #1
100146a4:	465e      	mov	r6, fp
100146a6:	2e01      	cmp	r6, #1
100146a8:	9311      	str	r3, [sp, #68]	@ 0x44
100146aa:	bfb8      	it	lt
100146ac:	2601      	movlt	r6, #1
100146ae:	2e17      	cmp	r6, #23
100146b0:	f340 81f6 	ble.w	10014aa0 <_dtoa_r+0xe3c>
100146b4:	2201      	movs	r2, #1
100146b6:	2304      	movs	r3, #4
100146b8:	005b      	lsls	r3, r3, #1
100146ba:	f103 0014 	add.w	r0, r3, #20
100146be:	42b0      	cmp	r0, r6
100146c0:	4611      	mov	r1, r2
100146c2:	f102 0201 	add.w	r2, r2, #1
100146c6:	d9f7      	bls.n	100146b8 <_dtoa_r+0xa54>
100146c8:	9b04      	ldr	r3, [sp, #16]
100146ca:	63d9      	str	r1, [r3, #60]	@ 0x3c
100146cc:	e402      	b.n	10013ed4 <_dtoa_r+0x270>
100146ce:	2301      	movs	r3, #1
100146d0:	930c      	str	r3, [sp, #48]	@ 0x30
100146d2:	9b25      	ldr	r3, [sp, #148]	@ 0x94
100146d4:	2b00      	cmp	r3, #0
100146d6:	dd37      	ble.n	10014748 <_dtoa_r+0xae4>
100146d8:	9311      	str	r3, [sp, #68]	@ 0x44
100146da:	469b      	mov	fp, r3
100146dc:	461e      	mov	r6, r3
100146de:	e7e6      	b.n	100146ae <_dtoa_r+0xa4a>
100146e0:	2300      	movs	r3, #0
100146e2:	930c      	str	r3, [sp, #48]	@ 0x30
100146e4:	e7d9      	b.n	1001469a <_dtoa_r+0xa36>
100146e6:	2300      	movs	r3, #0
100146e8:	930c      	str	r3, [sp, #48]	@ 0x30
100146ea:	e7f2      	b.n	100146d2 <_dtoa_r+0xa6e>
100146ec:	9b0e      	ldr	r3, [sp, #56]	@ 0x38
100146ee:	9a08      	ldr	r2, [sp, #32]
100146f0:	960e      	str	r6, [sp, #56]	@ 0x38
100146f2:	1af3      	subs	r3, r6, r3
100146f4:	441a      	add	r2, r3
100146f6:	9b09      	ldr	r3, [sp, #36]	@ 0x24
100146f8:	9208      	str	r2, [sp, #32]
100146fa:	445b      	add	r3, fp
100146fc:	9309      	str	r3, [sp, #36]	@ 0x24
100146fe:	9b0a      	ldr	r3, [sp, #40]	@ 0x28
10014700:	461d      	mov	r5, r3
10014702:	445b      	add	r3, fp
10014704:	930a      	str	r3, [sp, #40]	@ 0x28
10014706:	2600      	movs	r6, #0
10014708:	9804      	ldr	r0, [sp, #16]
1001470a:	2101      	movs	r1, #1
1001470c:	f000 fe74 	bl	100153f8 <__i2b>
10014710:	4607      	mov	r7, r0
10014712:	e5a4      	b.n	1001425e <_dtoa_r+0x5fa>
10014714:	9b06      	ldr	r3, [sp, #24]
10014716:	2b00      	cmp	r3, #0
10014718:	d18c      	bne.n	10014634 <_dtoa_r+0x9d0>
1001471a:	e9dd 0106 	ldrd	r0, r1, [sp, #24]
1001471e:	f3c1 0313 	ubfx	r3, r1, #0, #20
10014722:	460a      	mov	r2, r1
10014724:	2b00      	cmp	r3, #0
10014726:	d0a1      	beq.n	1001466c <_dtoa_r+0xa08>
10014728:	9008      	str	r0, [sp, #32]
1001472a:	e785      	b.n	10014638 <_dtoa_r+0x9d4>
1001472c:	e9dd 3402 	ldrd	r3, r4, [sp, #8]
10014730:	2702      	movs	r7, #2
10014732:	e9cd 3412 	strd	r3, r4, [sp, #72]	@ 0x48
10014736:	f7ff bbfa 	b.w	10013f2e <_dtoa_r+0x2ca>
1001473a:	f47f af0d 	bne.w	10014558 <_dtoa_r+0x8f4>
1001473e:	f019 0f01 	tst.w	r9, #1
10014742:	f47f af03 	bne.w	1001454c <_dtoa_r+0x8e8>
10014746:	e707      	b.n	10014558 <_dtoa_r+0x8f4>
10014748:	2301      	movs	r3, #1
1001474a:	9325      	str	r3, [sp, #148]	@ 0x94
1001474c:	469b      	mov	fp, r3
1001474e:	f7ff bbbc 	b.w	10013eca <_dtoa_r+0x266>
10014752:	d103      	bne.n	1001475c <_dtoa_r+0xaf8>
10014754:	f019 0f01 	tst.w	r9, #1
10014758:	f47f ae0c 	bne.w	10014374 <_dtoa_r+0x710>
1001475c:	465e      	mov	r6, fp
1001475e:	f81b 3d01 	ldrb.w	r3, [fp, #-1]!
10014762:	2b30      	cmp	r3, #48	@ 0x30
10014764:	d0fa      	beq.n	1001475c <_dtoa_r+0xaf8>
10014766:	e614      	b.n	10014392 <_dtoa_r+0x72e>
10014768:	9a10      	ldr	r2, [sp, #64]	@ 0x40
1001476a:	2a00      	cmp	r2, #0
1001476c:	f000 809c 	beq.w	100148a8 <_dtoa_r+0xc44>
10014770:	f203 4333 	addw	r3, r3, #1075	@ 0x433
10014774:	9a09      	ldr	r2, [sp, #36]	@ 0x24
10014776:	9e0e      	ldr	r6, [sp, #56]	@ 0x38
10014778:	441a      	add	r2, r3
1001477a:	9209      	str	r2, [sp, #36]	@ 0x24
1001477c:	9a0a      	ldr	r2, [sp, #40]	@ 0x28
1001477e:	4615      	mov	r5, r2
10014780:	441a      	add	r2, r3
10014782:	920a      	str	r2, [sp, #40]	@ 0x28
10014784:	e7c0      	b.n	10014708 <_dtoa_r+0xaa4>
10014786:	9a05      	ldr	r2, [sp, #20]
10014788:	2331      	movs	r3, #49	@ 0x31
1001478a:	3501      	adds	r5, #1
1001478c:	7013      	strb	r3, [r2, #0]
1001478e:	e600      	b.n	10014392 <_dtoa_r+0x72e>
10014790:	f000 80f6 	beq.w	10014980 <_dtoa_r+0xd1c>
10014794:	9a0b      	ldr	r2, [sp, #44]	@ 0x2c
10014796:	4b48      	ldr	r3, [pc, #288]	@ (100148b8 <_dtoa_r+0xc54>)
10014798:	4255      	negs	r5, r2
1001479a:	f005 020f 	and.w	r2, r5, #15
1001479e:	eb03 03c2 	add.w	r3, r3, r2, lsl #3
100147a2:	e9d3 2300 	ldrd	r2, r3, [r3]
100147a6:	e9dd 0102 	ldrd	r0, r1, [sp, #8]
100147aa:	f002 fce9 	bl	10017180 <__aeabi_dmul>
100147ae:	112d      	asrs	r5, r5, #4
100147b0:	e9cd 0112 	strd	r0, r1, [sp, #72]	@ 0x48
100147b4:	f000 8154 	beq.w	10014a60 <_dtoa_r+0xdfc>
100147b8:	4e40      	ldr	r6, [pc, #256]	@ (100148bc <_dtoa_r+0xc58>)
100147ba:	2300      	movs	r3, #0
100147bc:	2702      	movs	r7, #2
100147be:	4680      	mov	r8, r0
100147c0:	4689      	mov	r9, r1
100147c2:	07ea      	lsls	r2, r5, #31
100147c4:	d509      	bpl.n	100147da <_dtoa_r+0xb76>
100147c6:	e9d6 2300 	ldrd	r2, r3, [r6]
100147ca:	4640      	mov	r0, r8
100147cc:	4649      	mov	r1, r9
100147ce:	f002 fcd7 	bl	10017180 <__aeabi_dmul>
100147d2:	3701      	adds	r7, #1
100147d4:	4680      	mov	r8, r0
100147d6:	4689      	mov	r9, r1
100147d8:	2301      	movs	r3, #1
100147da:	106d      	asrs	r5, r5, #1
100147dc:	f106 0608 	add.w	r6, r6, #8
100147e0:	d1ef      	bne.n	100147c2 <_dtoa_r+0xb5e>
100147e2:	2b00      	cmp	r3, #0
100147e4:	f47f abbc 	bne.w	10013f60 <_dtoa_r+0x2fc>
100147e8:	e9dd 8912 	ldrd	r8, r9, [sp, #72]	@ 0x48
100147ec:	f7ff bbb8 	b.w	10013f60 <_dtoa_r+0x2fc>
100147f0:	f1c8 0301 	rsb	r3, r8, #1
100147f4:	9009      	str	r0, [sp, #36]	@ 0x24
100147f6:	930a      	str	r3, [sp, #40]	@ 0x28
100147f8:	900f      	str	r0, [sp, #60]	@ 0x3c
100147fa:	f7ff bb55 	b.w	10013ea8 <_dtoa_r+0x244>
100147fe:	9e05      	ldr	r6, [sp, #20]
10014800:	e4b9      	b.n	10014176 <_dtoa_r+0x512>
10014802:	f8dd a008 	ldr.w	sl, [sp, #8]
10014806:	4602      	mov	r2, r0
10014808:	460b      	mov	r3, r1
1001480a:	f002 fb03 	bl	10016e14 <__adddf3>
1001480e:	9d0b      	ldr	r5, [sp, #44]	@ 0x2c
10014810:	e9cd 0102 	strd	r0, r1, [sp, #8]
10014814:	3501      	adds	r5, #1
10014816:	4602      	mov	r2, r0
10014818:	460b      	mov	r3, r1
1001481a:	e9dd 0106 	ldrd	r0, r1, [sp, #24]
1001481e:	46a8      	mov	r8, r5
10014820:	f002 ff20 	bl	10017664 <__aeabi_dcmplt>
10014824:	b940      	cbnz	r0, 10014838 <_dtoa_r+0xbd4>
10014826:	e9dd 2302 	ldrd	r2, r3, [sp, #8]
1001482a:	e9dd 0106 	ldrd	r0, r1, [sp, #24]
1001482e:	f002 ff0f 	bl	10017650 <__aeabi_dcmpeq>
10014832:	b118      	cbz	r0, 1001483c <_dtoa_r+0xbd8>
10014834:	07f3      	lsls	r3, r6, #31
10014836:	d501      	bpl.n	1001483c <_dtoa_r+0xbd8>
10014838:	9a05      	ldr	r2, [sp, #20]
1001483a:	e432      	b.n	100140a2 <_dtoa_r+0x43e>
1001483c:	463e      	mov	r6, r7
1001483e:	e5ba      	b.n	100143b6 <_dtoa_r+0x752>
10014840:	6879      	ldr	r1, [r7, #4]
10014842:	9804      	ldr	r0, [sp, #16]
10014844:	f000 fcac 	bl	100151a0 <_Balloc>
10014848:	4605      	mov	r5, r0
1001484a:	2800      	cmp	r0, #0
1001484c:	f000 811d 	beq.w	10014a8a <_dtoa_r+0xe26>
10014850:	693b      	ldr	r3, [r7, #16]
10014852:	3302      	adds	r3, #2
10014854:	009a      	lsls	r2, r3, #2
10014856:	f107 010c 	add.w	r1, r7, #12
1001485a:	300c      	adds	r0, #12
1001485c:	f7fb fd5a 	bl	10010314 <memcpy>
10014860:	9804      	ldr	r0, [sp, #16]
10014862:	4629      	mov	r1, r5
10014864:	2201      	movs	r2, #1
10014866:	f000 ff05 	bl	10015674 <__lshift>
1001486a:	4680      	mov	r8, r0
1001486c:	e602      	b.n	10014474 <_dtoa_r+0x810>
1001486e:	9d0b      	ldr	r5, [sp, #44]	@ 0x2c
10014870:	463c      	mov	r4, r7
10014872:	3501      	adds	r5, #1
10014874:	4647      	mov	r7, r8
10014876:	e571      	b.n	1001435c <_dtoa_r+0x6f8>
10014878:	9c04      	ldr	r4, [sp, #16]
1001487a:	4639      	mov	r1, r7
1001487c:	4632      	mov	r2, r6
1001487e:	4620      	mov	r0, r4
10014880:	f000 fe9e 	bl	100155c0 <__pow5mult>
10014884:	4652      	mov	r2, sl
10014886:	4601      	mov	r1, r0
10014888:	4607      	mov	r7, r0
1001488a:	4620      	mov	r0, r4
1001488c:	f000 fde2 	bl	10015454 <__multiply>
10014890:	4651      	mov	r1, sl
10014892:	4680      	mov	r8, r0
10014894:	4620      	mov	r0, r4
10014896:	f000 fca9 	bl	100151ec <_Bfree>
1001489a:	9b0e      	ldr	r3, [sp, #56]	@ 0x38
1001489c:	1b9b      	subs	r3, r3, r6
1001489e:	46c2      	mov	sl, r8
100148a0:	930e      	str	r3, [sp, #56]	@ 0x38
100148a2:	f43f acf7 	beq.w	10014294 <_dtoa_r+0x630>
100148a6:	e4ef      	b.n	10014288 <_dtoa_r+0x624>
100148a8:	9b18      	ldr	r3, [sp, #96]	@ 0x60
100148aa:	f1c3 0336 	rsb	r3, r3, #54	@ 0x36
100148ae:	e761      	b.n	10014774 <_dtoa_r+0xb10>
100148b0:	10017c2c 	.word	0x10017c2c
100148b4:	7ff00000 	.word	0x7ff00000
100148b8:	10017eb0 	.word	0x10017eb0
100148bc:	10017fa0 	.word	0x10017fa0
100148c0:	e9dd 2314 	ldrd	r2, r3, [sp, #80]	@ 0x50
100148c4:	e9dd 0112 	ldrd	r0, r1, [sp, #72]	@ 0x48
100148c8:	f002 fc5a 	bl	10017180 <__aeabi_dmul>
100148cc:	9b05      	ldr	r3, [sp, #20]
100148ce:	701c      	strb	r4, [r3, #0]
100148d0:	9b16      	ldr	r3, [sp, #88]	@ 0x58
100148d2:	2b01      	cmp	r3, #1
100148d4:	e9cd 010c 	strd	r0, r1, [sp, #48]	@ 0x30
100148d8:	f000 80c0 	beq.w	10014a5c <_dtoa_r+0xdf8>
100148dc:	9f16      	ldr	r7, [sp, #88]	@ 0x58
100148de:	9b05      	ldr	r3, [sp, #20]
100148e0:	441f      	add	r7, r3
100148e2:	4b7a      	ldr	r3, [pc, #488]	@ (10014acc <_dtoa_r+0xe68>)
100148e4:	2200      	movs	r2, #0
100148e6:	4640      	mov	r0, r8
100148e8:	4649      	mov	r1, r9
100148ea:	f002 fc49 	bl	10017180 <__aeabi_dmul>
100148ee:	4689      	mov	r9, r1
100148f0:	4680      	mov	r8, r0
100148f2:	f002 fef5 	bl	100176e0 <__aeabi_d2iz>
100148f6:	4604      	mov	r4, r0
100148f8:	f002 fbd8 	bl	100170ac <__aeabi_i2d>
100148fc:	3430      	adds	r4, #48	@ 0x30
100148fe:	4602      	mov	r2, r0
10014900:	460b      	mov	r3, r1
10014902:	4640      	mov	r0, r8
10014904:	4649      	mov	r1, r9
10014906:	f002 fa83 	bl	10016e10 <__aeabi_dsub>
1001490a:	f806 4b01 	strb.w	r4, [r6], #1
1001490e:	42be      	cmp	r6, r7
10014910:	4680      	mov	r8, r0
10014912:	4689      	mov	r9, r1
10014914:	d1e5      	bne.n	100148e2 <_dtoa_r+0xc7e>
10014916:	4b6e      	ldr	r3, [pc, #440]	@ (10014ad0 <_dtoa_r+0xe6c>)
10014918:	2200      	movs	r2, #0
1001491a:	e9dd 010c 	ldrd	r0, r1, [sp, #48]	@ 0x30
1001491e:	f002 fa79 	bl	10016e14 <__adddf3>
10014922:	4602      	mov	r2, r0
10014924:	460b      	mov	r3, r1
10014926:	4640      	mov	r0, r8
10014928:	4649      	mov	r1, r9
1001492a:	f002 feb9 	bl	100176a0 <__aeabi_dcmpgt>
1001492e:	2800      	cmp	r0, #0
10014930:	d16c      	bne.n	10014a0c <_dtoa_r+0xda8>
10014932:	e9dd 230c 	ldrd	r2, r3, [sp, #48]	@ 0x30
10014936:	4966      	ldr	r1, [pc, #408]	@ (10014ad0 <_dtoa_r+0xe6c>)
10014938:	2000      	movs	r0, #0
1001493a:	f002 fa69 	bl	10016e10 <__aeabi_dsub>
1001493e:	4602      	mov	r2, r0
10014940:	460b      	mov	r3, r1
10014942:	4640      	mov	r0, r8
10014944:	4649      	mov	r1, r9
10014946:	f002 fe8d 	bl	10017664 <__aeabi_dcmplt>
1001494a:	b980      	cbnz	r0, 1001496e <_dtoa_r+0xd0a>
1001494c:	9b19      	ldr	r3, [sp, #100]	@ 0x64
1001494e:	2b00      	cmp	r3, #0
10014950:	f6ff ac80 	blt.w	10014254 <_dtoa_r+0x5f0>
10014954:	9b0b      	ldr	r3, [sp, #44]	@ 0x2c
10014956:	2b0e      	cmp	r3, #14
10014958:	f73f ac7c 	bgt.w	10014254 <_dtoa_r+0x5f0>
1001495c:	4b5d      	ldr	r3, [pc, #372]	@ (10014ad4 <_dtoa_r+0xe70>)
1001495e:	9a0b      	ldr	r2, [sp, #44]	@ 0x2c
10014960:	eb03 03c2 	add.w	r3, r3, r2, lsl #3
10014964:	e9d3 3400 	ldrd	r3, r4, [r3]
10014968:	e9cd 3406 	strd	r3, r4, [sp, #24]
1001496c:	e408      	b.n	10014180 <_dtoa_r+0x51c>
1001496e:	463e      	mov	r6, r7
10014970:	3f01      	subs	r7, #1
10014972:	f816 3c01 	ldrb.w	r3, [r6, #-1]
10014976:	2b30      	cmp	r3, #48	@ 0x30
10014978:	d0f9      	beq.n	1001496e <_dtoa_r+0xd0a>
1001497a:	9d17      	ldr	r5, [sp, #92]	@ 0x5c
1001497c:	3501      	adds	r5, #1
1001497e:	e51a      	b.n	100143b6 <_dtoa_r+0x752>
10014980:	e9dd 8902 	ldrd	r8, r9, [sp, #8]
10014984:	2702      	movs	r7, #2
10014986:	f7ff baeb 	b.w	10013f60 <_dtoa_r+0x2fc>
1001498a:	f1bb 0f00 	cmp.w	fp, #0
1001498e:	f43f ab9f 	beq.w	100140d0 <_dtoa_r+0x46c>
10014992:	9c11      	ldr	r4, [sp, #68]	@ 0x44
10014994:	2c00      	cmp	r4, #0
10014996:	f77f abc4 	ble.w	10014122 <_dtoa_r+0x4be>
1001499a:	9b0b      	ldr	r3, [sp, #44]	@ 0x2c
1001499c:	3b01      	subs	r3, #1
1001499e:	2200      	movs	r2, #0
100149a0:	4640      	mov	r0, r8
100149a2:	4649      	mov	r1, r9
100149a4:	9317      	str	r3, [sp, #92]	@ 0x5c
100149a6:	4b49      	ldr	r3, [pc, #292]	@ (10014acc <_dtoa_r+0xe68>)
100149a8:	f002 fbea 	bl	10017180 <__aeabi_dmul>
100149ac:	4680      	mov	r8, r0
100149ae:	4689      	mov	r9, r1
100149b0:	1c78      	adds	r0, r7, #1
100149b2:	f002 fb7b 	bl	100170ac <__aeabi_i2d>
100149b6:	4642      	mov	r2, r8
100149b8:	464b      	mov	r3, r9
100149ba:	f002 fbe1 	bl	10017180 <__aeabi_dmul>
100149be:	4b46      	ldr	r3, [pc, #280]	@ (10014ad8 <_dtoa_r+0xe74>)
100149c0:	2200      	movs	r2, #0
100149c2:	f002 fa27 	bl	10016e14 <__adddf3>
100149c6:	f1a1 7350 	sub.w	r3, r1, #54525952	@ 0x3400000
100149ca:	e9cd 0112 	strd	r0, r1, [sp, #72]	@ 0x48
100149ce:	9416      	str	r4, [sp, #88]	@ 0x58
100149d0:	9313      	str	r3, [sp, #76]	@ 0x4c
100149d2:	f7ff bae7 	b.w	10013fa4 <_dtoa_r+0x340>
100149d6:	f108 0801 	add.w	r8, r8, #1
100149da:	2331      	movs	r3, #49	@ 0x31
100149dc:	f7ff bb68 	b.w	100140b0 <_dtoa_r+0x44c>
100149e0:	9d0b      	ldr	r5, [sp, #44]	@ 0x2c
100149e2:	9a05      	ldr	r2, [sp, #20]
100149e4:	46b3      	mov	fp, r6
100149e6:	2339      	movs	r3, #57	@ 0x39
100149e8:	463c      	mov	r4, r7
100149ea:	f80b 3b01 	strb.w	r3, [fp], #1
100149ee:	3501      	adds	r5, #1
100149f0:	4647      	mov	r7, r8
100149f2:	e4c4      	b.n	1001437e <_dtoa_r+0x71a>
100149f4:	2300      	movs	r3, #0
100149f6:	9302      	str	r3, [sp, #8]
100149f8:	461f      	mov	r7, r3
100149fa:	e5e8      	b.n	100145ce <_dtoa_r+0x96a>
100149fc:	9b09      	ldr	r3, [sp, #36]	@ 0x24
100149fe:	445b      	add	r3, fp
10014a00:	9309      	str	r3, [sp, #36]	@ 0x24
10014a02:	9b0a      	ldr	r3, [sp, #40]	@ 0x28
10014a04:	461d      	mov	r5, r3
10014a06:	445b      	add	r3, fp
10014a08:	930a      	str	r3, [sp, #40]	@ 0x28
10014a0a:	e67d      	b.n	10014708 <_dtoa_r+0xaa4>
10014a0c:	9b17      	ldr	r3, [sp, #92]	@ 0x5c
10014a0e:	9a05      	ldr	r2, [sp, #20]
10014a10:	f103 0801 	add.w	r8, r3, #1
10014a14:	f7ff bb45 	b.w	100140a2 <_dtoa_r+0x43e>
10014a18:	f8dd a048 	ldr.w	sl, [sp, #72]	@ 0x48
10014a1c:	e7ad      	b.n	1001497a <_dtoa_r+0xd16>
10014a1e:	f8dd a048 	ldr.w	sl, [sp, #72]	@ 0x48
10014a22:	f8dd b050 	ldr.w	fp, [sp, #80]	@ 0x50
10014a26:	f7ff bb7c 	b.w	10014122 <_dtoa_r+0x4be>
10014a2a:	f1b9 0f39 	cmp.w	r9, #57	@ 0x39
10014a2e:	d0d7      	beq.n	100149e0 <_dtoa_r+0xd7c>
10014a30:	2d00      	cmp	r5, #0
10014a32:	f73f ad8f 	bgt.w	10014554 <_dtoa_r+0x8f0>
10014a36:	e58f      	b.n	10014558 <_dtoa_r+0x8f4>
10014a38:	9b24      	ldr	r3, [sp, #144]	@ 0x90
10014a3a:	2b02      	cmp	r3, #2
10014a3c:	dc03      	bgt.n	10014a46 <_dtoa_r+0xde2>
10014a3e:	9d0b      	ldr	r5, [sp, #44]	@ 0x2c
10014a40:	f8dd b044 	ldr.w	fp, [sp, #68]	@ 0x44
10014a44:	e467      	b.n	10014316 <_dtoa_r+0x6b2>
10014a46:	f8dd b044 	ldr.w	fp, [sp, #68]	@ 0x44
10014a4a:	960b      	str	r6, [sp, #44]	@ 0x2c
10014a4c:	e5ad      	b.n	100145aa <_dtoa_r+0x946>
10014a4e:	9b24      	ldr	r3, [sp, #144]	@ 0x90
10014a50:	2b02      	cmp	r3, #2
10014a52:	dcf8      	bgt.n	10014a46 <_dtoa_r+0xde2>
10014a54:	f8dd b044 	ldr.w	fp, [sp, #68]	@ 0x44
10014a58:	960b      	str	r6, [sp, #44]	@ 0x2c
10014a5a:	e4fe      	b.n	1001445a <_dtoa_r+0x7f6>
10014a5c:	4637      	mov	r7, r6
10014a5e:	e75a      	b.n	10014916 <_dtoa_r+0xcb2>
10014a60:	e9dd 8912 	ldrd	r8, r9, [sp, #72]	@ 0x48
10014a64:	2702      	movs	r7, #2
10014a66:	f7ff ba7b 	b.w	10013f60 <_dtoa_r+0x2fc>
10014a6a:	9b04      	ldr	r3, [sp, #16]
10014a6c:	2500      	movs	r5, #0
10014a6e:	63dd      	str	r5, [r3, #60]	@ 0x3c
10014a70:	4629      	mov	r1, r5
10014a72:	4618      	mov	r0, r3
10014a74:	f000 fb94 	bl	100151a0 <_Balloc>
10014a78:	9005      	str	r0, [sp, #20]
10014a7a:	b9d0      	cbnz	r0, 10014ab2 <_dtoa_r+0xe4e>
10014a7c:	4b17      	ldr	r3, [pc, #92]	@ (10014adc <_dtoa_r+0xe78>)
10014a7e:	4818      	ldr	r0, [pc, #96]	@ (10014ae0 <_dtoa_r+0xe7c>)
10014a80:	2200      	movs	r2, #0
10014a82:	f240 11af 	movw	r1, #431	@ 0x1af
10014a86:	f000 fb65 	bl	10015154 <__assert_func>
10014a8a:	4b14      	ldr	r3, [pc, #80]	@ (10014adc <_dtoa_r+0xe78>)
10014a8c:	4814      	ldr	r0, [pc, #80]	@ (10014ae0 <_dtoa_r+0xe7c>)
10014a8e:	462a      	mov	r2, r5
10014a90:	f240 21ef 	movw	r1, #751	@ 0x2ef
10014a94:	f000 fb5e 	bl	10015154 <__assert_func>
10014a98:	2a00      	cmp	r2, #0
10014a9a:	f73f ad4b 	bgt.w	10014534 <_dtoa_r+0x8d0>
10014a9e:	e55b      	b.n	10014558 <_dtoa_r+0x8f4>
10014aa0:	9b04      	ldr	r3, [sp, #16]
10014aa2:	2100      	movs	r1, #0
10014aa4:	63d9      	str	r1, [r3, #60]	@ 0x3c
10014aa6:	f7ff ba15 	b.w	10013ed4 <_dtoa_r+0x270>
10014aaa:	4b0e      	ldr	r3, [pc, #56]	@ (10014ae4 <_dtoa_r+0xe80>)
10014aac:	9305      	str	r3, [sp, #20]
10014aae:	f7ff b914 	b.w	10013cda <_dtoa_r+0x76>
10014ab2:	e9dd 3204 	ldrd	r3, r2, [sp, #16]
10014ab6:	f04f 3bff 	mov.w	fp, #4294967295	@ 0xffffffff
10014aba:	639a      	str	r2, [r3, #56]	@ 0x38
10014abc:	2301      	movs	r3, #1
10014abe:	9525      	str	r5, [sp, #148]	@ 0x94
10014ac0:	f8cd b044 	str.w	fp, [sp, #68]	@ 0x44
10014ac4:	930c      	str	r3, [sp, #48]	@ 0x30
10014ac6:	f7ff bb2c 	b.w	10014122 <_dtoa_r+0x4be>
10014aca:	bf00      	nop
10014acc:	40240000 	.word	0x40240000
10014ad0:	3fe00000 	.word	0x3fe00000
10014ad4:	10017eb0 	.word	0x10017eb0
10014ad8:	401c0000 	.word	0x401c0000
10014adc:	10017c30 	.word	0x10017c30
10014ae0:	10017c44 	.word	0x10017c44
10014ae4:	10017c20 	.word	0x10017c20

10014ae8 <__swsetup_r>:
10014ae8:	b538      	push	{r3, r4, r5, lr}
10014aea:	4b2f      	ldr	r3, [pc, #188]	@ (10014ba8 <__swsetup_r+0xc0>)
10014aec:	681b      	ldr	r3, [r3, #0]
10014aee:	4605      	mov	r5, r0
10014af0:	460c      	mov	r4, r1
10014af2:	b113      	cbz	r3, 10014afa <__swsetup_r+0x12>
10014af4:	6b5a      	ldr	r2, [r3, #52]	@ 0x34
10014af6:	2a00      	cmp	r2, #0
10014af8:	d04b      	beq.n	10014b92 <__swsetup_r+0xaa>
10014afa:	f9b4 300c 	ldrsh.w	r3, [r4, #12]
10014afe:	0718      	lsls	r0, r3, #28
10014b00:	d51c      	bpl.n	10014b3c <__swsetup_r+0x54>
10014b02:	6922      	ldr	r2, [r4, #16]
10014b04:	b322      	cbz	r2, 10014b50 <__swsetup_r+0x68>
10014b06:	f013 0101 	ands.w	r1, r3, #1
10014b0a:	d007      	beq.n	10014b1c <__swsetup_r+0x34>
10014b0c:	6961      	ldr	r1, [r4, #20]
10014b0e:	2000      	movs	r0, #0
10014b10:	4249      	negs	r1, r1
10014b12:	60a0      	str	r0, [r4, #8]
10014b14:	61a1      	str	r1, [r4, #24]
10014b16:	b13a      	cbz	r2, 10014b28 <__swsetup_r+0x40>
10014b18:	2000      	movs	r0, #0
10014b1a:	bd38      	pop	{r3, r4, r5, pc}
10014b1c:	0798      	lsls	r0, r3, #30
10014b1e:	bf58      	it	pl
10014b20:	6961      	ldrpl	r1, [r4, #20]
10014b22:	60a1      	str	r1, [r4, #8]
10014b24:	2a00      	cmp	r2, #0
10014b26:	d1f7      	bne.n	10014b18 <__swsetup_r+0x30>
10014b28:	0619      	lsls	r1, r3, #24
10014b2a:	bf58      	it	pl
10014b2c:	4610      	movpl	r0, r2
10014b2e:	d5f4      	bpl.n	10014b1a <__swsetup_r+0x32>
10014b30:	f043 0340 	orr.w	r3, r3, #64	@ 0x40
10014b34:	81a3      	strh	r3, [r4, #12]
10014b36:	f04f 30ff 	mov.w	r0, #4294967295	@ 0xffffffff
10014b3a:	bd38      	pop	{r3, r4, r5, pc}
10014b3c:	06d9      	lsls	r1, r3, #27
10014b3e:	d52c      	bpl.n	10014b9a <__swsetup_r+0xb2>
10014b40:	075a      	lsls	r2, r3, #29
10014b42:	d412      	bmi.n	10014b6a <__swsetup_r+0x82>
10014b44:	6922      	ldr	r2, [r4, #16]
10014b46:	f043 0308 	orr.w	r3, r3, #8
10014b4a:	81a3      	strh	r3, [r4, #12]
10014b4c:	2a00      	cmp	r2, #0
10014b4e:	d1da      	bne.n	10014b06 <__swsetup_r+0x1e>
10014b50:	f403 7120 	and.w	r1, r3, #640	@ 0x280
10014b54:	f5b1 7f00 	cmp.w	r1, #512	@ 0x200
10014b58:	d0d5      	beq.n	10014b06 <__swsetup_r+0x1e>
10014b5a:	4621      	mov	r1, r4
10014b5c:	4628      	mov	r0, r5
10014b5e:	f001 f86f 	bl	10015c40 <__smakebuf_r>
10014b62:	f9b4 300c 	ldrsh.w	r3, [r4, #12]
10014b66:	6922      	ldr	r2, [r4, #16]
10014b68:	e7cd      	b.n	10014b06 <__swsetup_r+0x1e>
10014b6a:	6b21      	ldr	r1, [r4, #48]	@ 0x30
10014b6c:	b151      	cbz	r1, 10014b84 <__swsetup_r+0x9c>
10014b6e:	f104 0240 	add.w	r2, r4, #64	@ 0x40
10014b72:	4291      	cmp	r1, r2
10014b74:	d004      	beq.n	10014b80 <__swsetup_r+0x98>
10014b76:	4628      	mov	r0, r5
10014b78:	f7fb fad0 	bl	1001011c <_free_r>
10014b7c:	f9b4 300c 	ldrsh.w	r3, [r4, #12]
10014b80:	2200      	movs	r2, #0
10014b82:	6322      	str	r2, [r4, #48]	@ 0x30
10014b84:	6922      	ldr	r2, [r4, #16]
10014b86:	2100      	movs	r1, #0
10014b88:	e9c4 2100 	strd	r2, r1, [r4]
10014b8c:	f023 0324 	bic.w	r3, r3, #36	@ 0x24
10014b90:	e7d9      	b.n	10014b46 <__swsetup_r+0x5e>
10014b92:	4618      	mov	r0, r3
10014b94:	f7fb fd7c 	bl	10010690 <__sinit>
10014b98:	e7af      	b.n	10014afa <__swsetup_r+0x12>
10014b9a:	2209      	movs	r2, #9
10014b9c:	f043 0340 	orr.w	r3, r3, #64	@ 0x40
10014ba0:	602a      	str	r2, [r5, #0]
10014ba2:	81a3      	strh	r3, [r4, #12]
10014ba4:	e7c7      	b.n	10014b36 <__swsetup_r+0x4e>
10014ba6:	bf00      	nop
10014ba8:	20000010 	.word	0x20000010

10014bac <_fclose_r>:
10014bac:	b570      	push	{r4, r5, r6, lr}
10014bae:	b139      	cbz	r1, 10014bc0 <_fclose_r+0x14>
10014bb0:	4606      	mov	r6, r0
10014bb2:	460c      	mov	r4, r1
10014bb4:	b108      	cbz	r0, 10014bba <_fclose_r+0xe>
10014bb6:	6b43      	ldr	r3, [r0, #52]	@ 0x34
10014bb8:	b383      	cbz	r3, 10014c1c <_fclose_r+0x70>
10014bba:	f9b4 300c 	ldrsh.w	r3, [r4, #12]
10014bbe:	b913      	cbnz	r3, 10014bc6 <_fclose_r+0x1a>
10014bc0:	2500      	movs	r5, #0
10014bc2:	4628      	mov	r0, r5
10014bc4:	bd70      	pop	{r4, r5, r6, pc}
10014bc6:	4621      	mov	r1, r4
10014bc8:	4630      	mov	r0, r6
10014bca:	f7fb f977 	bl	1000febc <__sflush_r>
10014bce:	6ae3      	ldr	r3, [r4, #44]	@ 0x2c
10014bd0:	4605      	mov	r5, r0
10014bd2:	b133      	cbz	r3, 10014be2 <_fclose_r+0x36>
10014bd4:	69e1      	ldr	r1, [r4, #28]
10014bd6:	4630      	mov	r0, r6
10014bd8:	4798      	blx	r3
10014bda:	2800      	cmp	r0, #0
10014bdc:	bfb8      	it	lt
10014bde:	f04f 35ff 	movlt.w	r5, #4294967295	@ 0xffffffff
10014be2:	89a3      	ldrh	r3, [r4, #12]
10014be4:	061b      	lsls	r3, r3, #24
10014be6:	d41c      	bmi.n	10014c22 <_fclose_r+0x76>
10014be8:	6b21      	ldr	r1, [r4, #48]	@ 0x30
10014bea:	b141      	cbz	r1, 10014bfe <_fclose_r+0x52>
10014bec:	f104 0340 	add.w	r3, r4, #64	@ 0x40
10014bf0:	4299      	cmp	r1, r3
10014bf2:	d002      	beq.n	10014bfa <_fclose_r+0x4e>
10014bf4:	4630      	mov	r0, r6
10014bf6:	f7fb fa91 	bl	1001011c <_free_r>
10014bfa:	2300      	movs	r3, #0
10014bfc:	6323      	str	r3, [r4, #48]	@ 0x30
10014bfe:	6c61      	ldr	r1, [r4, #68]	@ 0x44
10014c00:	b121      	cbz	r1, 10014c0c <_fclose_r+0x60>
10014c02:	4630      	mov	r0, r6
10014c04:	f7fb fa8a 	bl	1001011c <_free_r>
10014c08:	2300      	movs	r3, #0
10014c0a:	6463      	str	r3, [r4, #68]	@ 0x44
10014c0c:	f7fb fd50 	bl	100106b0 <__sfp_lock_acquire>
10014c10:	2300      	movs	r3, #0
10014c12:	81a3      	strh	r3, [r4, #12]
10014c14:	f7fb fd4e 	bl	100106b4 <__sfp_lock_release>
10014c18:	4628      	mov	r0, r5
10014c1a:	bd70      	pop	{r4, r5, r6, pc}
10014c1c:	f7fb fd38 	bl	10010690 <__sinit>
10014c20:	e7cb      	b.n	10014bba <_fclose_r+0xe>
10014c22:	6921      	ldr	r1, [r4, #16]
10014c24:	4630      	mov	r0, r6
10014c26:	f7fb fa79 	bl	1001011c <_free_r>
10014c2a:	e7dd      	b.n	10014be8 <_fclose_r+0x3c>

10014c2c <fclose>:
10014c2c:	4b02      	ldr	r3, [pc, #8]	@ (10014c38 <fclose+0xc>)
10014c2e:	4601      	mov	r1, r0
10014c30:	6818      	ldr	r0, [r3, #0]
10014c32:	f7ff bfbb 	b.w	10014bac <_fclose_r>
10014c36:	bf00      	nop
10014c38:	20000010 	.word	0x20000010

10014c3c <register_fini>:
10014c3c:	4b02      	ldr	r3, [pc, #8]	@ (10014c48 <register_fini+0xc>)
10014c3e:	b113      	cbz	r3, 10014c46 <register_fini+0xa>
10014c40:	4802      	ldr	r0, [pc, #8]	@ (10014c4c <register_fini+0x10>)
10014c42:	f7fb bf07 	b.w	10010a54 <atexit>
10014c46:	4770      	bx	lr
10014c48:	00000000 	.word	0x00000000
10014c4c:	10010b4d 	.word	0x10010b4d

10014c50 <__sread>:
10014c50:	b510      	push	{r4, lr}
10014c52:	460c      	mov	r4, r1
10014c54:	f9b1 100e 	ldrsh.w	r1, [r1, #14]
10014c58:	f001 f94e 	bl	10015ef8 <_read_r>
10014c5c:	2800      	cmp	r0, #0
10014c5e:	db03      	blt.n	10014c68 <__sread+0x18>
10014c60:	6d23      	ldr	r3, [r4, #80]	@ 0x50
10014c62:	4403      	add	r3, r0
10014c64:	6523      	str	r3, [r4, #80]	@ 0x50
10014c66:	bd10      	pop	{r4, pc}
10014c68:	89a3      	ldrh	r3, [r4, #12]
10014c6a:	f423 5380 	bic.w	r3, r3, #4096	@ 0x1000
10014c6e:	81a3      	strh	r3, [r4, #12]
10014c70:	bd10      	pop	{r4, pc}
10014c72:	bf00      	nop

10014c74 <__seofread>:
10014c74:	2000      	movs	r0, #0
10014c76:	4770      	bx	lr

10014c78 <__swrite>:
10014c78:	e92d 41f0 	stmdb	sp!, {r4, r5, r6, r7, r8, lr}
10014c7c:	460c      	mov	r4, r1
10014c7e:	f9b1 100c 	ldrsh.w	r1, [r1, #12]
10014c82:	461f      	mov	r7, r3
10014c84:	05cb      	lsls	r3, r1, #23
10014c86:	4605      	mov	r5, r0
10014c88:	4616      	mov	r6, r2
10014c8a:	d40b      	bmi.n	10014ca4 <__swrite+0x2c>
10014c8c:	f421 5180 	bic.w	r1, r1, #4096	@ 0x1000
10014c90:	81a1      	strh	r1, [r4, #12]
10014c92:	463b      	mov	r3, r7
10014c94:	f9b4 100e 	ldrsh.w	r1, [r4, #14]
10014c98:	4632      	mov	r2, r6
10014c9a:	4628      	mov	r0, r5
10014c9c:	e8bd 41f0 	ldmia.w	sp!, {r4, r5, r6, r7, r8, lr}
10014ca0:	f000 b9f4 	b.w	1001508c <_write_r>
10014ca4:	f9b4 100e 	ldrsh.w	r1, [r4, #14]
10014ca8:	2302      	movs	r3, #2
10014caa:	2200      	movs	r2, #0
10014cac:	f001 f974 	bl	10015f98 <_lseek_r>
10014cb0:	f9b4 100c 	ldrsh.w	r1, [r4, #12]
10014cb4:	e7ea      	b.n	10014c8c <__swrite+0x14>
10014cb6:	bf00      	nop

10014cb8 <__sseek>:
10014cb8:	b510      	push	{r4, lr}
10014cba:	460c      	mov	r4, r1
10014cbc:	f9b1 100e 	ldrsh.w	r1, [r1, #14]
10014cc0:	f001 f96a 	bl	10015f98 <_lseek_r>
10014cc4:	f9b4 300c 	ldrsh.w	r3, [r4, #12]
10014cc8:	1c42      	adds	r2, r0, #1
10014cca:	bf0e      	itee	eq
10014ccc:	f423 5380 	biceq.w	r3, r3, #4096	@ 0x1000
10014cd0:	f443 5380 	orrne.w	r3, r3, #4096	@ 0x1000
10014cd4:	6520      	strne	r0, [r4, #80]	@ 0x50
10014cd6:	81a3      	strh	r3, [r4, #12]
10014cd8:	bd10      	pop	{r4, pc}
10014cda:	bf00      	nop

10014cdc <__sclose>:
10014cdc:	f9b1 100e 	ldrsh.w	r1, [r1, #14]
10014ce0:	f000 ba16 	b.w	10015110 <_close_r>

10014ce4 <__register_exitproc>:
10014ce4:	b470      	push	{r4, r5, r6}
10014ce6:	4d16      	ldr	r5, [pc, #88]	@ (10014d40 <__register_exitproc+0x5c>)
10014ce8:	682c      	ldr	r4, [r5, #0]
10014cea:	b31c      	cbz	r4, 10014d34 <__register_exitproc+0x50>
10014cec:	6865      	ldr	r5, [r4, #4]
10014cee:	2d1f      	cmp	r5, #31
10014cf0:	dc23      	bgt.n	10014d3a <__register_exitproc+0x56>
10014cf2:	b938      	cbnz	r0, 10014d04 <__register_exitproc+0x20>
10014cf4:	1cab      	adds	r3, r5, #2
10014cf6:	3501      	adds	r5, #1
10014cf8:	6065      	str	r5, [r4, #4]
10014cfa:	f844 1023 	str.w	r1, [r4, r3, lsl #2]
10014cfe:	2000      	movs	r0, #0
10014d00:	bc70      	pop	{r4, r5, r6}
10014d02:	4770      	bx	lr
10014d04:	eb04 0c85 	add.w	ip, r4, r5, lsl #2
10014d08:	2802      	cmp	r0, #2
10014d0a:	f8cc 2088 	str.w	r2, [ip, #136]	@ 0x88
10014d0e:	f8d4 6188 	ldr.w	r6, [r4, #392]	@ 0x188
10014d12:	f04f 0201 	mov.w	r2, #1
10014d16:	fa02 f205 	lsl.w	r2, r2, r5
10014d1a:	ea46 0602 	orr.w	r6, r6, r2
10014d1e:	f8c4 6188 	str.w	r6, [r4, #392]	@ 0x188
10014d22:	f8cc 3108 	str.w	r3, [ip, #264]	@ 0x108
10014d26:	d1e5      	bne.n	10014cf4 <__register_exitproc+0x10>
10014d28:	f8d4 318c 	ldr.w	r3, [r4, #396]	@ 0x18c
10014d2c:	4313      	orrs	r3, r2
10014d2e:	f8c4 318c 	str.w	r3, [r4, #396]	@ 0x18c
10014d32:	e7df      	b.n	10014cf4 <__register_exitproc+0x10>
10014d34:	4c03      	ldr	r4, [pc, #12]	@ (10014d44 <__register_exitproc+0x60>)
10014d36:	602c      	str	r4, [r5, #0]
10014d38:	e7d8      	b.n	10014cec <__register_exitproc+0x8>
10014d3a:	f04f 30ff 	mov.w	r0, #4294967295	@ 0xffffffff
10014d3e:	e7df      	b.n	10014d00 <__register_exitproc+0x1c>
10014d40:	200015a4 	.word	0x200015a4
10014d44:	200015ac 	.word	0x200015ac

10014d48 <_realloc_r>:
10014d48:	e92d 4ff8 	stmdb	sp!, {r3, r4, r5, r6, r7, r8, r9, sl, fp, lr}
10014d4c:	4616      	mov	r6, r2
10014d4e:	2900      	cmp	r1, #0
10014d50:	f000 8096 	beq.w	10014e80 <_realloc_r+0x138>
10014d54:	460c      	mov	r4, r1
10014d56:	4680      	mov	r8, r0
10014d58:	f106 050b 	add.w	r5, r6, #11
10014d5c:	f7fb fbaa 	bl	100104b4 <__malloc_lock>
10014d60:	f854 1c04 	ldr.w	r1, [r4, #-4]
10014d64:	2d16      	cmp	r5, #22
10014d66:	f1a4 0908 	sub.w	r9, r4, #8
10014d6a:	f021 0703 	bic.w	r7, r1, #3
10014d6e:	d858      	bhi.n	10014e22 <_realloc_r+0xda>
10014d70:	2510      	movs	r5, #16
10014d72:	42ae      	cmp	r6, r5
10014d74:	d858      	bhi.n	10014e28 <_realloc_r+0xe0>
10014d76:	42af      	cmp	r7, r5
10014d78:	da60      	bge.n	10014e3c <_realloc_r+0xf4>
10014d7a:	4bbe      	ldr	r3, [pc, #760]	@ (10015074 <_realloc_r+0x32c>)
10014d7c:	689a      	ldr	r2, [r3, #8]
10014d7e:	eb09 0c07 	add.w	ip, r9, r7
10014d82:	4562      	cmp	r2, ip
10014d84:	f8dc 0004 	ldr.w	r0, [ip, #4]
10014d88:	f000 8090 	beq.w	10014eac <_realloc_r+0x164>
10014d8c:	f020 0301 	bic.w	r3, r0, #1
10014d90:	4463      	add	r3, ip
10014d92:	685b      	ldr	r3, [r3, #4]
10014d94:	07db      	lsls	r3, r3, #31
10014d96:	d468      	bmi.n	10014e6a <_realloc_r+0x122>
10014d98:	f020 0003 	bic.w	r0, r0, #3
10014d9c:	183b      	adds	r3, r7, r0
10014d9e:	429d      	cmp	r5, r3
10014da0:	dd47      	ble.n	10014e32 <_realloc_r+0xea>
10014da2:	07cb      	lsls	r3, r1, #31
10014da4:	d412      	bmi.n	10014dcc <_realloc_r+0x84>
10014da6:	f854 3c08 	ldr.w	r3, [r4, #-8]
10014daa:	eba9 0b03 	sub.w	fp, r9, r3
10014dae:	f8db 3004 	ldr.w	r3, [fp, #4]
10014db2:	f023 0203 	bic.w	r2, r3, #3
10014db6:	4410      	add	r0, r2
10014db8:	eb00 0a07 	add.w	sl, r0, r7
10014dbc:	4555      	cmp	r5, sl
10014dbe:	f340 80f6 	ble.w	10014fae <_realloc_r+0x266>
10014dc2:	eb07 0a02 	add.w	sl, r7, r2
10014dc6:	4555      	cmp	r5, sl
10014dc8:	f340 80cc 	ble.w	10014f64 <_realloc_r+0x21c>
10014dcc:	4631      	mov	r1, r6
10014dce:	4640      	mov	r0, r8
10014dd0:	f7fe fc02 	bl	100135d8 <_malloc_r>
10014dd4:	4606      	mov	r6, r0
10014dd6:	2800      	cmp	r0, #0
10014dd8:	f000 8120 	beq.w	1001501c <_realloc_r+0x2d4>
10014ddc:	f854 3c04 	ldr.w	r3, [r4, #-4]
10014de0:	f023 0301 	bic.w	r3, r3, #1
10014de4:	444b      	add	r3, r9
10014de6:	f1a0 0208 	sub.w	r2, r0, #8
10014dea:	4293      	cmp	r3, r2
10014dec:	f000 80b4 	beq.w	10014f58 <_realloc_r+0x210>
10014df0:	1f3a      	subs	r2, r7, #4
10014df2:	2a24      	cmp	r2, #36	@ 0x24
10014df4:	f200 80d7 	bhi.w	10014fa6 <_realloc_r+0x25e>
10014df8:	2a13      	cmp	r2, #19
10014dfa:	f200 80a2 	bhi.w	10014f42 <_realloc_r+0x1fa>
10014dfe:	4603      	mov	r3, r0
10014e00:	4622      	mov	r2, r4
10014e02:	6811      	ldr	r1, [r2, #0]
10014e04:	6019      	str	r1, [r3, #0]
10014e06:	6851      	ldr	r1, [r2, #4]
10014e08:	6059      	str	r1, [r3, #4]
10014e0a:	6892      	ldr	r2, [r2, #8]
10014e0c:	609a      	str	r2, [r3, #8]
10014e0e:	4621      	mov	r1, r4
10014e10:	4640      	mov	r0, r8
10014e12:	f7fb f983 	bl	1001011c <_free_r>
10014e16:	4640      	mov	r0, r8
10014e18:	f7fb fb4e 	bl	100104b8 <__malloc_unlock>
10014e1c:	4630      	mov	r0, r6
10014e1e:	e8bd 8ff8 	ldmia.w	sp!, {r3, r4, r5, r6, r7, r8, r9, sl, fp, pc}
10014e22:	f035 0507 	bics.w	r5, r5, #7
10014e26:	d5a4      	bpl.n	10014d72 <_realloc_r+0x2a>
10014e28:	230c      	movs	r3, #12
10014e2a:	f8c8 3000 	str.w	r3, [r8]
10014e2e:	2600      	movs	r6, #0
10014e30:	e018      	b.n	10014e64 <_realloc_r+0x11c>
10014e32:	461f      	mov	r7, r3
10014e34:	e9dc 2302 	ldrd	r2, r3, [ip, #8]
10014e38:	60d3      	str	r3, [r2, #12]
10014e3a:	609a      	str	r2, [r3, #8]
10014e3c:	f8d9 3004 	ldr.w	r3, [r9, #4]
10014e40:	1b7a      	subs	r2, r7, r5
10014e42:	2a0f      	cmp	r2, #15
10014e44:	f003 0301 	and.w	r3, r3, #1
10014e48:	eb09 0007 	add.w	r0, r9, r7
10014e4c:	d81d      	bhi.n	10014e8a <_realloc_r+0x142>
10014e4e:	433b      	orrs	r3, r7
10014e50:	f8c9 3004 	str.w	r3, [r9, #4]
10014e54:	6843      	ldr	r3, [r0, #4]
10014e56:	f043 0301 	orr.w	r3, r3, #1
10014e5a:	6043      	str	r3, [r0, #4]
10014e5c:	4640      	mov	r0, r8
10014e5e:	f7fb fb2b 	bl	100104b8 <__malloc_unlock>
10014e62:	4626      	mov	r6, r4
10014e64:	4630      	mov	r0, r6
10014e66:	e8bd 8ff8 	ldmia.w	sp!, {r3, r4, r5, r6, r7, r8, r9, sl, fp, pc}
10014e6a:	07c9      	lsls	r1, r1, #31
10014e6c:	d4ae      	bmi.n	10014dcc <_realloc_r+0x84>
10014e6e:	f854 3c08 	ldr.w	r3, [r4, #-8]
10014e72:	eba9 0b03 	sub.w	fp, r9, r3
10014e76:	f8db 3004 	ldr.w	r3, [fp, #4]
10014e7a:	f023 0203 	bic.w	r2, r3, #3
10014e7e:	e7a0      	b.n	10014dc2 <_realloc_r+0x7a>
10014e80:	e8bd 4ff8 	ldmia.w	sp!, {r3, r4, r5, r6, r7, r8, r9, sl, fp, lr}
10014e84:	4611      	mov	r1, r2
10014e86:	f7fe bba7 	b.w	100135d8 <_malloc_r>
10014e8a:	eb09 0105 	add.w	r1, r9, r5
10014e8e:	432b      	orrs	r3, r5
10014e90:	f042 0201 	orr.w	r2, r2, #1
10014e94:	f8c9 3004 	str.w	r3, [r9, #4]
10014e98:	604a      	str	r2, [r1, #4]
10014e9a:	6843      	ldr	r3, [r0, #4]
10014e9c:	f043 0301 	orr.w	r3, r3, #1
10014ea0:	6043      	str	r3, [r0, #4]
10014ea2:	3108      	adds	r1, #8
10014ea4:	4640      	mov	r0, r8
10014ea6:	f7fb f939 	bl	1001011c <_free_r>
10014eaa:	e7d7      	b.n	10014e5c <_realloc_r+0x114>
10014eac:	f020 0003 	bic.w	r0, r0, #3
10014eb0:	19c2      	adds	r2, r0, r7
10014eb2:	f105 0c10 	add.w	ip, r5, #16
10014eb6:	4562      	cmp	r2, ip
10014eb8:	f280 8091 	bge.w	10014fde <_realloc_r+0x296>
10014ebc:	07ca      	lsls	r2, r1, #31
10014ebe:	d485      	bmi.n	10014dcc <_realloc_r+0x84>
10014ec0:	f854 2c08 	ldr.w	r2, [r4, #-8]
10014ec4:	eba9 0b02 	sub.w	fp, r9, r2
10014ec8:	f8db 2004 	ldr.w	r2, [fp, #4]
10014ecc:	f022 0203 	bic.w	r2, r2, #3
10014ed0:	4410      	add	r0, r2
10014ed2:	eb00 0a07 	add.w	sl, r0, r7
10014ed6:	45d4      	cmp	ip, sl
10014ed8:	f73f af73 	bgt.w	10014dc2 <_realloc_r+0x7a>
10014edc:	465e      	mov	r6, fp
10014ede:	f8db 100c 	ldr.w	r1, [fp, #12]
10014ee2:	f856 0f08 	ldr.w	r0, [r6, #8]!
10014ee6:	1f3a      	subs	r2, r7, #4
10014ee8:	2a24      	cmp	r2, #36	@ 0x24
10014eea:	60c1      	str	r1, [r0, #12]
10014eec:	6088      	str	r0, [r1, #8]
10014eee:	f200 80ae 	bhi.w	1001504e <_realloc_r+0x306>
10014ef2:	2a13      	cmp	r2, #19
10014ef4:	f240 80a9 	bls.w	1001504a <_realloc_r+0x302>
10014ef8:	6821      	ldr	r1, [r4, #0]
10014efa:	f8cb 1008 	str.w	r1, [fp, #8]
10014efe:	6861      	ldr	r1, [r4, #4]
10014f00:	f8cb 100c 	str.w	r1, [fp, #12]
10014f04:	2a1b      	cmp	r2, #27
10014f06:	f200 80a8 	bhi.w	1001505a <_realloc_r+0x312>
10014f0a:	3408      	adds	r4, #8
10014f0c:	f10b 0210 	add.w	r2, fp, #16
10014f10:	6821      	ldr	r1, [r4, #0]
10014f12:	6011      	str	r1, [r2, #0]
10014f14:	6861      	ldr	r1, [r4, #4]
10014f16:	6051      	str	r1, [r2, #4]
10014f18:	68a1      	ldr	r1, [r4, #8]
10014f1a:	6091      	str	r1, [r2, #8]
10014f1c:	eb0b 0105 	add.w	r1, fp, r5
10014f20:	ebaa 0205 	sub.w	r2, sl, r5
10014f24:	f042 0201 	orr.w	r2, r2, #1
10014f28:	6099      	str	r1, [r3, #8]
10014f2a:	604a      	str	r2, [r1, #4]
10014f2c:	f8db 3004 	ldr.w	r3, [fp, #4]
10014f30:	f003 0301 	and.w	r3, r3, #1
10014f34:	432b      	orrs	r3, r5
10014f36:	4640      	mov	r0, r8
10014f38:	f8cb 3004 	str.w	r3, [fp, #4]
10014f3c:	f7fb fabc 	bl	100104b8 <__malloc_unlock>
10014f40:	e790      	b.n	10014e64 <_realloc_r+0x11c>
10014f42:	6823      	ldr	r3, [r4, #0]
10014f44:	6003      	str	r3, [r0, #0]
10014f46:	6863      	ldr	r3, [r4, #4]
10014f48:	6043      	str	r3, [r0, #4]
10014f4a:	2a1b      	cmp	r2, #27
10014f4c:	d83c      	bhi.n	10014fc8 <_realloc_r+0x280>
10014f4e:	f104 0208 	add.w	r2, r4, #8
10014f52:	f100 0308 	add.w	r3, r0, #8
10014f56:	e754      	b.n	10014e02 <_realloc_r+0xba>
10014f58:	f850 3c04 	ldr.w	r3, [r0, #-4]
10014f5c:	f023 0303 	bic.w	r3, r3, #3
10014f60:	441f      	add	r7, r3
10014f62:	e76b      	b.n	10014e3c <_realloc_r+0xf4>
10014f64:	1f3a      	subs	r2, r7, #4
10014f66:	465e      	mov	r6, fp
10014f68:	f8db 300c 	ldr.w	r3, [fp, #12]
10014f6c:	f856 1f08 	ldr.w	r1, [r6, #8]!
10014f70:	2a24      	cmp	r2, #36	@ 0x24
10014f72:	60cb      	str	r3, [r1, #12]
10014f74:	6099      	str	r1, [r3, #8]
10014f76:	d822      	bhi.n	10014fbe <_realloc_r+0x276>
10014f78:	2a13      	cmp	r2, #19
10014f7a:	d91e      	bls.n	10014fba <_realloc_r+0x272>
10014f7c:	6823      	ldr	r3, [r4, #0]
10014f7e:	f8cb 3008 	str.w	r3, [fp, #8]
10014f82:	6863      	ldr	r3, [r4, #4]
10014f84:	f8cb 300c 	str.w	r3, [fp, #12]
10014f88:	2a1b      	cmp	r2, #27
10014f8a:	d83b      	bhi.n	10015004 <_realloc_r+0x2bc>
10014f8c:	3408      	adds	r4, #8
10014f8e:	f10b 0310 	add.w	r3, fp, #16
10014f92:	6822      	ldr	r2, [r4, #0]
10014f94:	601a      	str	r2, [r3, #0]
10014f96:	6862      	ldr	r2, [r4, #4]
10014f98:	605a      	str	r2, [r3, #4]
10014f9a:	68a2      	ldr	r2, [r4, #8]
10014f9c:	609a      	str	r2, [r3, #8]
10014f9e:	4634      	mov	r4, r6
10014fa0:	4657      	mov	r7, sl
10014fa2:	46d9      	mov	r9, fp
10014fa4:	e74a      	b.n	10014e3c <_realloc_r+0xf4>
10014fa6:	4621      	mov	r1, r4
10014fa8:	f7fe fa96 	bl	100134d8 <memmove>
10014fac:	e72f      	b.n	10014e0e <_realloc_r+0xc6>
10014fae:	e9dc 1302 	ldrd	r1, r3, [ip, #8]
10014fb2:	1f3a      	subs	r2, r7, #4
10014fb4:	60cb      	str	r3, [r1, #12]
10014fb6:	6099      	str	r1, [r3, #8]
10014fb8:	e7d5      	b.n	10014f66 <_realloc_r+0x21e>
10014fba:	4633      	mov	r3, r6
10014fbc:	e7e9      	b.n	10014f92 <_realloc_r+0x24a>
10014fbe:	4621      	mov	r1, r4
10014fc0:	4630      	mov	r0, r6
10014fc2:	f7fe fa89 	bl	100134d8 <memmove>
10014fc6:	e7ea      	b.n	10014f9e <_realloc_r+0x256>
10014fc8:	68a3      	ldr	r3, [r4, #8]
10014fca:	6083      	str	r3, [r0, #8]
10014fcc:	68e3      	ldr	r3, [r4, #12]
10014fce:	60c3      	str	r3, [r0, #12]
10014fd0:	2a24      	cmp	r2, #36	@ 0x24
10014fd2:	d027      	beq.n	10015024 <_realloc_r+0x2dc>
10014fd4:	f104 0210 	add.w	r2, r4, #16
10014fd8:	f100 0310 	add.w	r3, r0, #16
10014fdc:	e711      	b.n	10014e02 <_realloc_r+0xba>
10014fde:	eb09 0105 	add.w	r1, r9, r5
10014fe2:	6099      	str	r1, [r3, #8]
10014fe4:	1b53      	subs	r3, r2, r5
10014fe6:	f043 0301 	orr.w	r3, r3, #1
10014fea:	604b      	str	r3, [r1, #4]
10014fec:	f854 3c04 	ldr.w	r3, [r4, #-4]
10014ff0:	f003 0301 	and.w	r3, r3, #1
10014ff4:	432b      	orrs	r3, r5
10014ff6:	4640      	mov	r0, r8
10014ff8:	f844 3c04 	str.w	r3, [r4, #-4]
10014ffc:	f7fb fa5c 	bl	100104b8 <__malloc_unlock>
10015000:	4626      	mov	r6, r4
10015002:	e72f      	b.n	10014e64 <_realloc_r+0x11c>
10015004:	68a3      	ldr	r3, [r4, #8]
10015006:	f8cb 3010 	str.w	r3, [fp, #16]
1001500a:	68e3      	ldr	r3, [r4, #12]
1001500c:	f8cb 3014 	str.w	r3, [fp, #20]
10015010:	2a24      	cmp	r2, #36	@ 0x24
10015012:	d010      	beq.n	10015036 <_realloc_r+0x2ee>
10015014:	3410      	adds	r4, #16
10015016:	f10b 0318 	add.w	r3, fp, #24
1001501a:	e7ba      	b.n	10014f92 <_realloc_r+0x24a>
1001501c:	4640      	mov	r0, r8
1001501e:	f7fb fa4b 	bl	100104b8 <__malloc_unlock>
10015022:	e704      	b.n	10014e2e <_realloc_r+0xe6>
10015024:	6923      	ldr	r3, [r4, #16]
10015026:	6103      	str	r3, [r0, #16]
10015028:	6961      	ldr	r1, [r4, #20]
1001502a:	6141      	str	r1, [r0, #20]
1001502c:	f104 0218 	add.w	r2, r4, #24
10015030:	f100 0318 	add.w	r3, r0, #24
10015034:	e6e5      	b.n	10014e02 <_realloc_r+0xba>
10015036:	6923      	ldr	r3, [r4, #16]
10015038:	f8cb 3018 	str.w	r3, [fp, #24]
1001503c:	6963      	ldr	r3, [r4, #20]
1001503e:	f8cb 301c 	str.w	r3, [fp, #28]
10015042:	3418      	adds	r4, #24
10015044:	f10b 0320 	add.w	r3, fp, #32
10015048:	e7a3      	b.n	10014f92 <_realloc_r+0x24a>
1001504a:	4632      	mov	r2, r6
1001504c:	e760      	b.n	10014f10 <_realloc_r+0x1c8>
1001504e:	4621      	mov	r1, r4
10015050:	4630      	mov	r0, r6
10015052:	f7fe fa41 	bl	100134d8 <memmove>
10015056:	4b07      	ldr	r3, [pc, #28]	@ (10015074 <_realloc_r+0x32c>)
10015058:	e760      	b.n	10014f1c <_realloc_r+0x1d4>
1001505a:	68a1      	ldr	r1, [r4, #8]
1001505c:	f8cb 1010 	str.w	r1, [fp, #16]
10015060:	68e1      	ldr	r1, [r4, #12]
10015062:	f8cb 1014 	str.w	r1, [fp, #20]
10015066:	2a24      	cmp	r2, #36	@ 0x24
10015068:	d006      	beq.n	10015078 <_realloc_r+0x330>
1001506a:	3410      	adds	r4, #16
1001506c:	f10b 0218 	add.w	r2, fp, #24
10015070:	e74e      	b.n	10014f10 <_realloc_r+0x1c8>
10015072:	bf00      	nop
10015074:	20000148 	.word	0x20000148
10015078:	6922      	ldr	r2, [r4, #16]
1001507a:	f8cb 2018 	str.w	r2, [fp, #24]
1001507e:	6962      	ldr	r2, [r4, #20]
10015080:	f8cb 201c 	str.w	r2, [fp, #28]
10015084:	3418      	adds	r4, #24
10015086:	f10b 0220 	add.w	r2, fp, #32
1001508a:	e741      	b.n	10014f10 <_realloc_r+0x1c8>

1001508c <_write_r>:
1001508c:	b538      	push	{r3, r4, r5, lr}
1001508e:	460c      	mov	r4, r1
10015090:	4d08      	ldr	r5, [pc, #32]	@ (100150b4 <_write_r+0x28>)
10015092:	4684      	mov	ip, r0
10015094:	4611      	mov	r1, r2
10015096:	4620      	mov	r0, r4
10015098:	461a      	mov	r2, r3
1001509a:	2300      	movs	r3, #0
1001509c:	602b      	str	r3, [r5, #0]
1001509e:	4664      	mov	r4, ip
100150a0:	f7f9 fd46 	bl	1000eb30 <_write>
100150a4:	1c43      	adds	r3, r0, #1
100150a6:	d000      	beq.n	100150aa <_write_r+0x1e>
100150a8:	bd38      	pop	{r3, r4, r5, pc}
100150aa:	682b      	ldr	r3, [r5, #0]
100150ac:	2b00      	cmp	r3, #0
100150ae:	d0fb      	beq.n	100150a8 <_write_r+0x1c>
100150b0:	6023      	str	r3, [r4, #0]
100150b2:	bd38      	pop	{r3, r4, r5, pc}
100150b4:	200015a8 	.word	0x200015a8

100150b8 <__ssprint_r>:
100150b8:	e92d 43f8 	stmdb	sp!, {r3, r4, r5, r6, r7, r8, r9, lr}
100150bc:	4615      	mov	r5, r2
100150be:	6892      	ldr	r2, [r2, #8]
100150c0:	682c      	ldr	r4, [r5, #0]
100150c2:	b1fa      	cbz	r2, 10015104 <__ssprint_r+0x4c>
100150c4:	4680      	mov	r8, r0
100150c6:	4689      	mov	r9, r1
100150c8:	3408      	adds	r4, #8
100150ca:	e001      	b.n	100150d0 <__ssprint_r+0x18>
100150cc:	3408      	adds	r4, #8
100150ce:	b1cf      	cbz	r7, 10015104 <__ssprint_r+0x4c>
100150d0:	686b      	ldr	r3, [r5, #4]
100150d2:	1e59      	subs	r1, r3, #1
100150d4:	2b00      	cmp	r3, #0
100150d6:	4617      	mov	r7, r2
100150d8:	6069      	str	r1, [r5, #4]
100150da:	dd13      	ble.n	10015104 <__ssprint_r+0x4c>
100150dc:	f854 6c04 	ldr.w	r6, [r4, #-4]
100150e0:	2e00      	cmp	r6, #0
100150e2:	d0f3      	beq.n	100150cc <__ssprint_r+0x14>
100150e4:	4633      	mov	r3, r6
100150e6:	f854 2c08 	ldr.w	r2, [r4, #-8]
100150ea:	4649      	mov	r1, r9
100150ec:	4640      	mov	r0, r8
100150ee:	f000 fea3 	bl	10015e38 <__ssputs_r>
100150f2:	1c43      	adds	r3, r0, #1
100150f4:	d007      	beq.n	10015106 <__ssprint_r+0x4e>
100150f6:	68aa      	ldr	r2, [r5, #8]
100150f8:	1b92      	subs	r2, r2, r6
100150fa:	4617      	mov	r7, r2
100150fc:	60aa      	str	r2, [r5, #8]
100150fe:	3408      	adds	r4, #8
10015100:	2f00      	cmp	r7, #0
10015102:	d1e5      	bne.n	100150d0 <__ssprint_r+0x18>
10015104:	2000      	movs	r0, #0
10015106:	2300      	movs	r3, #0
10015108:	e9c5 3301 	strd	r3, r3, [r5, #4]
1001510c:	e8bd 83f8 	ldmia.w	sp!, {r3, r4, r5, r6, r7, r8, r9, pc}

10015110 <_close_r>:
10015110:	b538      	push	{r3, r4, r5, lr}
10015112:	4d07      	ldr	r5, [pc, #28]	@ (10015130 <_close_r+0x20>)
10015114:	2200      	movs	r2, #0
10015116:	4604      	mov	r4, r0
10015118:	4608      	mov	r0, r1
1001511a:	602a      	str	r2, [r5, #0]
1001511c:	f7f9 fcca 	bl	1000eab4 <_close>
10015120:	1c43      	adds	r3, r0, #1
10015122:	d000      	beq.n	10015126 <_close_r+0x16>
10015124:	bd38      	pop	{r3, r4, r5, pc}
10015126:	682b      	ldr	r3, [r5, #0]
10015128:	2b00      	cmp	r3, #0
1001512a:	d0fb      	beq.n	10015124 <_close_r+0x14>
1001512c:	6023      	str	r3, [r4, #0]
1001512e:	bd38      	pop	{r3, r4, r5, pc}
10015130:	200015a8 	.word	0x200015a8

10015134 <__sprint_r>:
10015134:	6893      	ldr	r3, [r2, #8]
10015136:	b510      	push	{r4, lr}
10015138:	4614      	mov	r4, r2
1001513a:	b91b      	cbnz	r3, 10015144 <__sprint_r+0x10>
1001513c:	4618      	mov	r0, r3
1001513e:	2300      	movs	r3, #0
10015140:	6063      	str	r3, [r4, #4]
10015142:	bd10      	pop	{r4, pc}
10015144:	f7fb fb0a 	bl	1001075c <__sfvwrite_r>
10015148:	2300      	movs	r3, #0
1001514a:	60a3      	str	r3, [r4, #8]
1001514c:	2300      	movs	r3, #0
1001514e:	6063      	str	r3, [r4, #4]
10015150:	bd10      	pop	{r4, pc}
10015152:	bf00      	nop

10015154 <__assert_func>:
10015154:	b500      	push	{lr}
10015156:	4c0b      	ldr	r4, [pc, #44]	@ (10015184 <__assert_func+0x30>)
10015158:	6825      	ldr	r5, [r4, #0]
1001515a:	4614      	mov	r4, r2
1001515c:	68ee      	ldr	r6, [r5, #12]
1001515e:	461a      	mov	r2, r3
10015160:	b085      	sub	sp, #20
10015162:	4603      	mov	r3, r0
10015164:	460d      	mov	r5, r1
10015166:	b14c      	cbz	r4, 1001517c <__assert_func+0x28>
10015168:	4907      	ldr	r1, [pc, #28]	@ (10015188 <__assert_func+0x34>)
1001516a:	9500      	str	r5, [sp, #0]
1001516c:	e9cd 1401 	strd	r1, r4, [sp, #4]
10015170:	4630      	mov	r0, r6
10015172:	4906      	ldr	r1, [pc, #24]	@ (1001518c <__assert_func+0x38>)
10015174:	f000 fee4 	bl	10015f40 <fiprintf>
10015178:	f000 fe20 	bl	10015dbc <abort>
1001517c:	4904      	ldr	r1, [pc, #16]	@ (10015190 <__assert_func+0x3c>)
1001517e:	460c      	mov	r4, r1
10015180:	e7f3      	b.n	1001516a <__assert_func+0x16>
10015182:	bf00      	nop
10015184:	20000010 	.word	0x20000010
10015188:	10017c70 	.word	0x10017c70
1001518c:	10017c80 	.word	0x10017c80
10015190:	10017b4c 	.word	0x10017b4c

10015194 <__assert>:
10015194:	b508      	push	{r3, lr}
10015196:	4613      	mov	r3, r2
10015198:	2200      	movs	r2, #0
1001519a:	f7ff ffdb 	bl	10015154 <__assert_func>
1001519e:	bf00      	nop

100151a0 <_Balloc>:
100151a0:	6c43      	ldr	r3, [r0, #68]	@ 0x44
100151a2:	b570      	push	{r4, r5, r6, lr}
100151a4:	4605      	mov	r5, r0
100151a6:	460c      	mov	r4, r1
100151a8:	b14b      	cbz	r3, 100151be <_Balloc+0x1e>
100151aa:	f853 0024 	ldr.w	r0, [r3, r4, lsl #2]
100151ae:	b180      	cbz	r0, 100151d2 <_Balloc+0x32>
100151b0:	6802      	ldr	r2, [r0, #0]
100151b2:	f843 2024 	str.w	r2, [r3, r4, lsl #2]
100151b6:	2300      	movs	r3, #0
100151b8:	e9c0 3303 	strd	r3, r3, [r0, #12]
100151bc:	bd70      	pop	{r4, r5, r6, pc}
100151be:	2221      	movs	r2, #33	@ 0x21
100151c0:	2104      	movs	r1, #4
100151c2:	f000 fe03 	bl	10015dcc <_calloc_r>
100151c6:	4603      	mov	r3, r0
100151c8:	6468      	str	r0, [r5, #68]	@ 0x44
100151ca:	2800      	cmp	r0, #0
100151cc:	d1ed      	bne.n	100151aa <_Balloc+0xa>
100151ce:	2000      	movs	r0, #0
100151d0:	bd70      	pop	{r4, r5, r6, pc}
100151d2:	2101      	movs	r1, #1
100151d4:	fa01 f604 	lsl.w	r6, r1, r4
100151d8:	1d72      	adds	r2, r6, #5
100151da:	0092      	lsls	r2, r2, #2
100151dc:	4628      	mov	r0, r5
100151de:	f000 fdf5 	bl	10015dcc <_calloc_r>
100151e2:	2800      	cmp	r0, #0
100151e4:	d0f3      	beq.n	100151ce <_Balloc+0x2e>
100151e6:	e9c0 4601 	strd	r4, r6, [r0, #4]
100151ea:	e7e4      	b.n	100151b6 <_Balloc+0x16>

100151ec <_Bfree>:
100151ec:	b131      	cbz	r1, 100151fc <_Bfree+0x10>
100151ee:	6c43      	ldr	r3, [r0, #68]	@ 0x44
100151f0:	684a      	ldr	r2, [r1, #4]
100151f2:	f853 0022 	ldr.w	r0, [r3, r2, lsl #2]
100151f6:	6008      	str	r0, [r1, #0]
100151f8:	f843 1022 	str.w	r1, [r3, r2, lsl #2]
100151fc:	4770      	bx	lr
100151fe:	bf00      	nop

10015200 <__multadd>:
10015200:	e92d 41f0 	stmdb	sp!, {r4, r5, r6, r7, r8, lr}
10015204:	690d      	ldr	r5, [r1, #16]
10015206:	4607      	mov	r7, r0
10015208:	460e      	mov	r6, r1
1001520a:	461c      	mov	r4, r3
1001520c:	f101 0e14 	add.w	lr, r1, #20
10015210:	2000      	movs	r0, #0
10015212:	f8de 1000 	ldr.w	r1, [lr]
10015216:	b28b      	uxth	r3, r1
10015218:	fb02 4303 	mla	r3, r2, r3, r4
1001521c:	ea4f 4c13 	mov.w	ip, r3, lsr #16
10015220:	0c09      	lsrs	r1, r1, #16
10015222:	fb02 cc01 	mla	ip, r2, r1, ip
10015226:	3001      	adds	r0, #1
10015228:	b29b      	uxth	r3, r3
1001522a:	eb03 430c 	add.w	r3, r3, ip, lsl #16
1001522e:	4285      	cmp	r5, r0
10015230:	f84e 3b04 	str.w	r3, [lr], #4
10015234:	ea4f 441c 	mov.w	r4, ip, lsr #16
10015238:	dceb      	bgt.n	10015212 <__multadd+0x12>
1001523a:	b13c      	cbz	r4, 1001524c <__multadd+0x4c>
1001523c:	68b3      	ldr	r3, [r6, #8]
1001523e:	42ab      	cmp	r3, r5
10015240:	dd07      	ble.n	10015252 <__multadd+0x52>
10015242:	eb06 0385 	add.w	r3, r6, r5, lsl #2
10015246:	3501      	adds	r5, #1
10015248:	615c      	str	r4, [r3, #20]
1001524a:	6135      	str	r5, [r6, #16]
1001524c:	4630      	mov	r0, r6
1001524e:	e8bd 81f0 	ldmia.w	sp!, {r4, r5, r6, r7, r8, pc}
10015252:	6871      	ldr	r1, [r6, #4]
10015254:	4638      	mov	r0, r7
10015256:	3101      	adds	r1, #1
10015258:	f7ff ffa2 	bl	100151a0 <_Balloc>
1001525c:	4680      	mov	r8, r0
1001525e:	b1a8      	cbz	r0, 1001528c <__multadd+0x8c>
10015260:	6932      	ldr	r2, [r6, #16]
10015262:	3202      	adds	r2, #2
10015264:	f106 010c 	add.w	r1, r6, #12
10015268:	0092      	lsls	r2, r2, #2
1001526a:	300c      	adds	r0, #12
1001526c:	f7fb f852 	bl	10010314 <memcpy>
10015270:	6c7b      	ldr	r3, [r7, #68]	@ 0x44
10015272:	6872      	ldr	r2, [r6, #4]
10015274:	f853 1022 	ldr.w	r1, [r3, r2, lsl #2]
10015278:	6031      	str	r1, [r6, #0]
1001527a:	f843 6022 	str.w	r6, [r3, r2, lsl #2]
1001527e:	4646      	mov	r6, r8
10015280:	eb06 0385 	add.w	r3, r6, r5, lsl #2
10015284:	3501      	adds	r5, #1
10015286:	615c      	str	r4, [r3, #20]
10015288:	6135      	str	r5, [r6, #16]
1001528a:	e7df      	b.n	1001524c <__multadd+0x4c>
1001528c:	4b02      	ldr	r3, [pc, #8]	@ (10015298 <__multadd+0x98>)
1001528e:	4803      	ldr	r0, [pc, #12]	@ (1001529c <__multadd+0x9c>)
10015290:	4642      	mov	r2, r8
10015292:	21ba      	movs	r1, #186	@ 0xba
10015294:	f7ff ff5e 	bl	10015154 <__assert_func>
10015298:	10017c30 	.word	0x10017c30
1001529c:	10017cb0 	.word	0x10017cb0

100152a0 <__s2b>:
100152a0:	e92d 43f8 	stmdb	sp!, {r3, r4, r5, r6, r7, r8, r9, lr}
100152a4:	4617      	mov	r7, r2
100152a6:	4a28      	ldr	r2, [pc, #160]	@ (10015348 <__s2b+0xa8>)
100152a8:	461e      	mov	r6, r3
100152aa:	3308      	adds	r3, #8
100152ac:	460c      	mov	r4, r1
100152ae:	2e09      	cmp	r6, #9
100152b0:	fb82 1203 	smull	r1, r2, r2, r3
100152b4:	ea4f 73e3 	mov.w	r3, r3, asr #31
100152b8:	4605      	mov	r5, r0
100152ba:	ebc3 0362 	rsb	r3, r3, r2, asr #1
100152be:	dd3a      	ble.n	10015336 <__s2b+0x96>
100152c0:	f04f 0c01 	mov.w	ip, #1
100152c4:	2100      	movs	r1, #0
100152c6:	ea4f 0c4c 	mov.w	ip, ip, lsl #1
100152ca:	4563      	cmp	r3, ip
100152cc:	f101 0101 	add.w	r1, r1, #1
100152d0:	dcf9      	bgt.n	100152c6 <__s2b+0x26>
100152d2:	4628      	mov	r0, r5
100152d4:	f7ff ff64 	bl	100151a0 <_Balloc>
100152d8:	4601      	mov	r1, r0
100152da:	b370      	cbz	r0, 1001533a <__s2b+0x9a>
100152dc:	9b08      	ldr	r3, [sp, #32]
100152de:	6143      	str	r3, [r0, #20]
100152e0:	2f09      	cmp	r7, #9
100152e2:	f04f 0301 	mov.w	r3, #1
100152e6:	6103      	str	r3, [r0, #16]
100152e8:	dc12      	bgt.n	10015310 <__s2b+0x70>
100152ea:	340a      	adds	r4, #10
100152ec:	2709      	movs	r7, #9
100152ee:	42be      	cmp	r6, r7
100152f0:	dd0b      	ble.n	1001530a <__s2b+0x6a>
100152f2:	1bf6      	subs	r6, r6, r7
100152f4:	4426      	add	r6, r4
100152f6:	f814 3b01 	ldrb.w	r3, [r4], #1
100152fa:	220a      	movs	r2, #10
100152fc:	3b30      	subs	r3, #48	@ 0x30
100152fe:	4628      	mov	r0, r5
10015300:	f7ff ff7e 	bl	10015200 <__multadd>
10015304:	42b4      	cmp	r4, r6
10015306:	4601      	mov	r1, r0
10015308:	d1f5      	bne.n	100152f6 <__s2b+0x56>
1001530a:	4608      	mov	r0, r1
1001530c:	e8bd 83f8 	ldmia.w	sp!, {r3, r4, r5, r6, r7, r8, r9, pc}
10015310:	f104 0809 	add.w	r8, r4, #9
10015314:	eb04 0907 	add.w	r9, r4, r7
10015318:	4644      	mov	r4, r8
1001531a:	f814 3b01 	ldrb.w	r3, [r4], #1
1001531e:	220a      	movs	r2, #10
10015320:	3b30      	subs	r3, #48	@ 0x30
10015322:	4628      	mov	r0, r5
10015324:	f7ff ff6c 	bl	10015200 <__multadd>
10015328:	454c      	cmp	r4, r9
1001532a:	4601      	mov	r1, r0
1001532c:	d1f5      	bne.n	1001531a <__s2b+0x7a>
1001532e:	f1a7 0408 	sub.w	r4, r7, #8
10015332:	4444      	add	r4, r8
10015334:	e7db      	b.n	100152ee <__s2b+0x4e>
10015336:	2100      	movs	r1, #0
10015338:	e7cb      	b.n	100152d2 <__s2b+0x32>
1001533a:	460a      	mov	r2, r1
1001533c:	4b03      	ldr	r3, [pc, #12]	@ (1001534c <__s2b+0xac>)
1001533e:	4804      	ldr	r0, [pc, #16]	@ (10015350 <__s2b+0xb0>)
10015340:	21d3      	movs	r1, #211	@ 0xd3
10015342:	f7ff ff07 	bl	10015154 <__assert_func>
10015346:	bf00      	nop
10015348:	38e38e39 	.word	0x38e38e39
1001534c:	10017c30 	.word	0x10017c30
10015350:	10017cb0 	.word	0x10017cb0

10015354 <__hi0bits>:
10015354:	f5b0 3f80 	cmp.w	r0, #65536	@ 0x10000
10015358:	4603      	mov	r3, r0
1001535a:	bf36      	itet	cc
1001535c:	0403      	lslcc	r3, r0, #16
1001535e:	2000      	movcs	r0, #0
10015360:	2010      	movcc	r0, #16
10015362:	f1b3 7f80 	cmp.w	r3, #16777216	@ 0x1000000
10015366:	bf3c      	itt	cc
10015368:	021b      	lslcc	r3, r3, #8
1001536a:	3008      	addcc	r0, #8
1001536c:	f1b3 5f80 	cmp.w	r3, #268435456	@ 0x10000000
10015370:	bf3c      	itt	cc
10015372:	011b      	lslcc	r3, r3, #4
10015374:	3004      	addcc	r0, #4
10015376:	f1b3 4f80 	cmp.w	r3, #1073741824	@ 0x40000000
1001537a:	d303      	bcc.n	10015384 <__hi0bits+0x30>
1001537c:	2b00      	cmp	r3, #0
1001537e:	db06      	blt.n	1001538e <__hi0bits+0x3a>
10015380:	3001      	adds	r0, #1
10015382:	4770      	bx	lr
10015384:	009b      	lsls	r3, r3, #2
10015386:	d403      	bmi.n	10015390 <__hi0bits+0x3c>
10015388:	005b      	lsls	r3, r3, #1
1001538a:	d403      	bmi.n	10015394 <__hi0bits+0x40>
1001538c:	2020      	movs	r0, #32
1001538e:	4770      	bx	lr
10015390:	3002      	adds	r0, #2
10015392:	4770      	bx	lr
10015394:	3003      	adds	r0, #3
10015396:	4770      	bx	lr

10015398 <__lo0bits>:
10015398:	6803      	ldr	r3, [r0, #0]
1001539a:	f013 0207 	ands.w	r2, r3, #7
1001539e:	4601      	mov	r1, r0
100153a0:	d007      	beq.n	100153b2 <__lo0bits+0x1a>
100153a2:	07da      	lsls	r2, r3, #31
100153a4:	d41f      	bmi.n	100153e6 <__lo0bits+0x4e>
100153a6:	0798      	lsls	r0, r3, #30
100153a8:	d521      	bpl.n	100153ee <__lo0bits+0x56>
100153aa:	085b      	lsrs	r3, r3, #1
100153ac:	600b      	str	r3, [r1, #0]
100153ae:	2001      	movs	r0, #1
100153b0:	4770      	bx	lr
100153b2:	b298      	uxth	r0, r3
100153b4:	b1a0      	cbz	r0, 100153e0 <__lo0bits+0x48>
100153b6:	4610      	mov	r0, r2
100153b8:	b2da      	uxtb	r2, r3
100153ba:	b90a      	cbnz	r2, 100153c0 <__lo0bits+0x28>
100153bc:	3008      	adds	r0, #8
100153be:	0a1b      	lsrs	r3, r3, #8
100153c0:	071a      	lsls	r2, r3, #28
100153c2:	bf04      	itt	eq
100153c4:	091b      	lsreq	r3, r3, #4
100153c6:	3004      	addeq	r0, #4
100153c8:	079a      	lsls	r2, r3, #30
100153ca:	bf04      	itt	eq
100153cc:	089b      	lsreq	r3, r3, #2
100153ce:	3002      	addeq	r0, #2
100153d0:	07da      	lsls	r2, r3, #31
100153d2:	d403      	bmi.n	100153dc <__lo0bits+0x44>
100153d4:	085b      	lsrs	r3, r3, #1
100153d6:	f100 0001 	add.w	r0, r0, #1
100153da:	d006      	beq.n	100153ea <__lo0bits+0x52>
100153dc:	600b      	str	r3, [r1, #0]
100153de:	4770      	bx	lr
100153e0:	0c1b      	lsrs	r3, r3, #16
100153e2:	2010      	movs	r0, #16
100153e4:	e7e8      	b.n	100153b8 <__lo0bits+0x20>
100153e6:	2000      	movs	r0, #0
100153e8:	4770      	bx	lr
100153ea:	2020      	movs	r0, #32
100153ec:	4770      	bx	lr
100153ee:	089b      	lsrs	r3, r3, #2
100153f0:	600b      	str	r3, [r1, #0]
100153f2:	2002      	movs	r0, #2
100153f4:	4770      	bx	lr
100153f6:	bf00      	nop

100153f8 <__i2b>:
100153f8:	b538      	push	{r3, r4, r5, lr}
100153fa:	6c43      	ldr	r3, [r0, #68]	@ 0x44
100153fc:	4604      	mov	r4, r0
100153fe:	460d      	mov	r5, r1
10015400:	b14b      	cbz	r3, 10015416 <__i2b+0x1e>
10015402:	6858      	ldr	r0, [r3, #4]
10015404:	b1b0      	cbz	r0, 10015434 <__i2b+0x3c>
10015406:	6802      	ldr	r2, [r0, #0]
10015408:	605a      	str	r2, [r3, #4]
1001540a:	2200      	movs	r2, #0
1001540c:	2301      	movs	r3, #1
1001540e:	e9c0 2303 	strd	r2, r3, [r0, #12]
10015412:	6145      	str	r5, [r0, #20]
10015414:	bd38      	pop	{r3, r4, r5, pc}
10015416:	2221      	movs	r2, #33	@ 0x21
10015418:	2104      	movs	r1, #4
1001541a:	f000 fcd7 	bl	10015dcc <_calloc_r>
1001541e:	4603      	mov	r3, r0
10015420:	6460      	str	r0, [r4, #68]	@ 0x44
10015422:	2800      	cmp	r0, #0
10015424:	d1ed      	bne.n	10015402 <__i2b+0xa>
10015426:	4b09      	ldr	r3, [pc, #36]	@ (1001544c <__i2b+0x54>)
10015428:	4809      	ldr	r0, [pc, #36]	@ (10015450 <__i2b+0x58>)
1001542a:	2200      	movs	r2, #0
1001542c:	f240 1145 	movw	r1, #325	@ 0x145
10015430:	f7ff fe90 	bl	10015154 <__assert_func>
10015434:	221c      	movs	r2, #28
10015436:	2101      	movs	r1, #1
10015438:	4620      	mov	r0, r4
1001543a:	f000 fcc7 	bl	10015dcc <_calloc_r>
1001543e:	2800      	cmp	r0, #0
10015440:	d0f1      	beq.n	10015426 <__i2b+0x2e>
10015442:	2201      	movs	r2, #1
10015444:	2302      	movs	r3, #2
10015446:	e9c0 2301 	strd	r2, r3, [r0, #4]
1001544a:	e7de      	b.n	1001540a <__i2b+0x12>
1001544c:	10017c30 	.word	0x10017c30
10015450:	10017cb0 	.word	0x10017cb0

10015454 <__multiply>:
10015454:	e92d 4ff0 	stmdb	sp!, {r4, r5, r6, r7, r8, r9, sl, fp, lr}
10015458:	f8d1 8010 	ldr.w	r8, [r1, #16]
1001545c:	6915      	ldr	r5, [r2, #16]
1001545e:	45a8      	cmp	r8, r5
10015460:	b085      	sub	sp, #20
10015462:	460e      	mov	r6, r1
10015464:	4692      	mov	sl, r2
10015466:	db05      	blt.n	10015474 <__multiply+0x20>
10015468:	462a      	mov	r2, r5
1001546a:	4653      	mov	r3, sl
1001546c:	4645      	mov	r5, r8
1001546e:	468a      	mov	sl, r1
10015470:	4690      	mov	r8, r2
10015472:	461e      	mov	r6, r3
10015474:	f8da 3008 	ldr.w	r3, [sl, #8]
10015478:	f8da 1004 	ldr.w	r1, [sl, #4]
1001547c:	eb05 0408 	add.w	r4, r5, r8
10015480:	42a3      	cmp	r3, r4
10015482:	bfb8      	it	lt
10015484:	3101      	addlt	r1, #1
10015486:	f7ff fe8b 	bl	100151a0 <_Balloc>
1001548a:	4684      	mov	ip, r0
1001548c:	2800      	cmp	r0, #0
1001548e:	f000 808b 	beq.w	100155a8 <__multiply+0x154>
10015492:	f100 0714 	add.w	r7, r0, #20
10015496:	eb07 0e84 	add.w	lr, r7, r4, lsl #2
1001549a:	4577      	cmp	r7, lr
1001549c:	d205      	bcs.n	100154aa <__multiply+0x56>
1001549e:	463b      	mov	r3, r7
100154a0:	2200      	movs	r2, #0
100154a2:	f843 2b04 	str.w	r2, [r3], #4
100154a6:	459e      	cmp	lr, r3
100154a8:	d8fb      	bhi.n	100154a2 <__multiply+0x4e>
100154aa:	3614      	adds	r6, #20
100154ac:	eb06 0888 	add.w	r8, r6, r8, lsl #2
100154b0:	f10a 0914 	add.w	r9, sl, #20
100154b4:	4546      	cmp	r6, r8
100154b6:	eb09 0585 	add.w	r5, r9, r5, lsl #2
100154ba:	d266      	bcs.n	1001558a <__multiply+0x136>
100154bc:	eba5 030a 	sub.w	r3, r5, sl
100154c0:	3b15      	subs	r3, #21
100154c2:	f023 0303 	bic.w	r3, r3, #3
100154c6:	f10a 0a15 	add.w	sl, sl, #21
100154ca:	3304      	adds	r3, #4
100154cc:	4555      	cmp	r5, sl
100154ce:	bf2c      	ite	cs
100154d0:	469b      	movcs	fp, r3
100154d2:	f04f 0b04 	movcc.w	fp, #4
100154d6:	f8cd e008 	str.w	lr, [sp, #8]
100154da:	9403      	str	r4, [sp, #12]
100154dc:	46ae      	mov	lr, r5
100154de:	46e2      	mov	sl, ip
100154e0:	e005      	b.n	100154ee <__multiply+0x9a>
100154e2:	0c09      	lsrs	r1, r1, #16
100154e4:	d12a      	bne.n	1001553c <__multiply+0xe8>
100154e6:	45b0      	cmp	r8, r6
100154e8:	f107 0704 	add.w	r7, r7, #4
100154ec:	d94a      	bls.n	10015584 <__multiply+0x130>
100154ee:	f856 1b04 	ldr.w	r1, [r6], #4
100154f2:	b28d      	uxth	r5, r1
100154f4:	2d00      	cmp	r5, #0
100154f6:	d0f4      	beq.n	100154e2 <__multiply+0x8e>
100154f8:	46cc      	mov	ip, r9
100154fa:	463c      	mov	r4, r7
100154fc:	2300      	movs	r3, #0
100154fe:	9601      	str	r6, [sp, #4]
10015500:	f85c 0b04 	ldr.w	r0, [ip], #4
10015504:	6821      	ldr	r1, [r4, #0]
10015506:	b286      	uxth	r6, r0
10015508:	b28a      	uxth	r2, r1
1001550a:	0c00      	lsrs	r0, r0, #16
1001550c:	fb05 2206 	mla	r2, r5, r6, r2
10015510:	0c09      	lsrs	r1, r1, #16
10015512:	441a      	add	r2, r3
10015514:	fb05 1100 	mla	r1, r5, r0, r1
10015518:	eb01 4112 	add.w	r1, r1, r2, lsr #16
1001551c:	b292      	uxth	r2, r2
1001551e:	ea42 4201 	orr.w	r2, r2, r1, lsl #16
10015522:	45e6      	cmp	lr, ip
10015524:	f844 2b04 	str.w	r2, [r4], #4
10015528:	ea4f 4311 	mov.w	r3, r1, lsr #16
1001552c:	d8e8      	bhi.n	10015500 <__multiply+0xac>
1001552e:	9e01      	ldr	r6, [sp, #4]
10015530:	f847 300b 	str.w	r3, [r7, fp]
10015534:	f856 1c04 	ldr.w	r1, [r6, #-4]
10015538:	0c09      	lsrs	r1, r1, #16
1001553a:	d0d4      	beq.n	100154e6 <__multiply+0x92>
1001553c:	683b      	ldr	r3, [r7, #0]
1001553e:	2200      	movs	r2, #0
10015540:	4648      	mov	r0, r9
10015542:	461d      	mov	r5, r3
10015544:	463c      	mov	r4, r7
10015546:	4694      	mov	ip, r2
10015548:	8802      	ldrh	r2, [r0, #0]
1001554a:	fb01 c202 	mla	r2, r1, r2, ip
1001554e:	eb02 4215 	add.w	r2, r2, r5, lsr #16
10015552:	b29b      	uxth	r3, r3
10015554:	ea43 4302 	orr.w	r3, r3, r2, lsl #16
10015558:	f844 3b04 	str.w	r3, [r4], #4
1001555c:	f850 3b04 	ldr.w	r3, [r0], #4
10015560:	6825      	ldr	r5, [r4, #0]
10015562:	ea4f 4c13 	mov.w	ip, r3, lsr #16
10015566:	b2ab      	uxth	r3, r5
10015568:	fb01 330c 	mla	r3, r1, ip, r3
1001556c:	eb03 4312 	add.w	r3, r3, r2, lsr #16
10015570:	4570      	cmp	r0, lr
10015572:	ea4f 4c13 	mov.w	ip, r3, lsr #16
10015576:	d3e7      	bcc.n	10015548 <__multiply+0xf4>
10015578:	45b0      	cmp	r8, r6
1001557a:	f847 300b 	str.w	r3, [r7, fp]
1001557e:	f107 0704 	add.w	r7, r7, #4
10015582:	d8b4      	bhi.n	100154ee <__multiply+0x9a>
10015584:	e9dd e402 	ldrd	lr, r4, [sp, #8]
10015588:	46d4      	mov	ip, sl
1001558a:	2c00      	cmp	r4, #0
1001558c:	dc02      	bgt.n	10015594 <__multiply+0x140>
1001558e:	e005      	b.n	1001559c <__multiply+0x148>
10015590:	3c01      	subs	r4, #1
10015592:	d003      	beq.n	1001559c <__multiply+0x148>
10015594:	f85e 3d04 	ldr.w	r3, [lr, #-4]!
10015598:	2b00      	cmp	r3, #0
1001559a:	d0f9      	beq.n	10015590 <__multiply+0x13c>
1001559c:	4660      	mov	r0, ip
1001559e:	f8cc 4010 	str.w	r4, [ip, #16]
100155a2:	b005      	add	sp, #20
100155a4:	e8bd 8ff0 	ldmia.w	sp!, {r4, r5, r6, r7, r8, r9, sl, fp, pc}
100155a8:	4b03      	ldr	r3, [pc, #12]	@ (100155b8 <__multiply+0x164>)
100155aa:	4804      	ldr	r0, [pc, #16]	@ (100155bc <__multiply+0x168>)
100155ac:	4662      	mov	r2, ip
100155ae:	f44f 71b1 	mov.w	r1, #354	@ 0x162
100155b2:	f7ff fdcf 	bl	10015154 <__assert_func>
100155b6:	bf00      	nop
100155b8:	10017c30 	.word	0x10017c30
100155bc:	10017cb0 	.word	0x10017cb0

100155c0 <__pow5mult>:
100155c0:	f012 0303 	ands.w	r3, r2, #3
100155c4:	e92d 41f0 	stmdb	sp!, {r4, r5, r6, r7, r8, lr}
100155c8:	4614      	mov	r4, r2
100155ca:	4607      	mov	r7, r0
100155cc:	d12c      	bne.n	10015628 <__pow5mult+0x68>
100155ce:	460d      	mov	r5, r1
100155d0:	10a4      	asrs	r4, r4, #2
100155d2:	d01c      	beq.n	1001560e <__pow5mult+0x4e>
100155d4:	6c3e      	ldr	r6, [r7, #64]	@ 0x40
100155d6:	b386      	cbz	r6, 1001563a <__pow5mult+0x7a>
100155d8:	07e3      	lsls	r3, r4, #31
100155da:	f04f 0800 	mov.w	r8, #0
100155de:	d406      	bmi.n	100155ee <__pow5mult+0x2e>
100155e0:	1064      	asrs	r4, r4, #1
100155e2:	d014      	beq.n	1001560e <__pow5mult+0x4e>
100155e4:	6830      	ldr	r0, [r6, #0]
100155e6:	b1a8      	cbz	r0, 10015614 <__pow5mult+0x54>
100155e8:	4606      	mov	r6, r0
100155ea:	07e3      	lsls	r3, r4, #31
100155ec:	d5f8      	bpl.n	100155e0 <__pow5mult+0x20>
100155ee:	4632      	mov	r2, r6
100155f0:	4629      	mov	r1, r5
100155f2:	4638      	mov	r0, r7
100155f4:	f7ff ff2e 	bl	10015454 <__multiply>
100155f8:	b135      	cbz	r5, 10015608 <__pow5mult+0x48>
100155fa:	6c7b      	ldr	r3, [r7, #68]	@ 0x44
100155fc:	6869      	ldr	r1, [r5, #4]
100155fe:	f853 2021 	ldr.w	r2, [r3, r1, lsl #2]
10015602:	602a      	str	r2, [r5, #0]
10015604:	f843 5021 	str.w	r5, [r3, r1, lsl #2]
10015608:	1064      	asrs	r4, r4, #1
1001560a:	4605      	mov	r5, r0
1001560c:	d1ea      	bne.n	100155e4 <__pow5mult+0x24>
1001560e:	4628      	mov	r0, r5
10015610:	e8bd 81f0 	ldmia.w	sp!, {r4, r5, r6, r7, r8, pc}
10015614:	4632      	mov	r2, r6
10015616:	4631      	mov	r1, r6
10015618:	4638      	mov	r0, r7
1001561a:	f7ff ff1b 	bl	10015454 <__multiply>
1001561e:	6030      	str	r0, [r6, #0]
10015620:	f8c0 8000 	str.w	r8, [r0]
10015624:	4606      	mov	r6, r0
10015626:	e7e0      	b.n	100155ea <__pow5mult+0x2a>
10015628:	3b01      	subs	r3, #1
1001562a:	4a0f      	ldr	r2, [pc, #60]	@ (10015668 <__pow5mult+0xa8>)
1001562c:	f852 2023 	ldr.w	r2, [r2, r3, lsl #2]
10015630:	2300      	movs	r3, #0
10015632:	f7ff fde5 	bl	10015200 <__multadd>
10015636:	4605      	mov	r5, r0
10015638:	e7ca      	b.n	100155d0 <__pow5mult+0x10>
1001563a:	2101      	movs	r1, #1
1001563c:	4638      	mov	r0, r7
1001563e:	f7ff fdaf 	bl	100151a0 <_Balloc>
10015642:	4606      	mov	r6, r0
10015644:	b140      	cbz	r0, 10015658 <__pow5mult+0x98>
10015646:	2301      	movs	r3, #1
10015648:	f240 2271 	movw	r2, #625	@ 0x271
1001564c:	e9c0 3204 	strd	r3, r2, [r0, #16]
10015650:	2300      	movs	r3, #0
10015652:	6438      	str	r0, [r7, #64]	@ 0x40
10015654:	6003      	str	r3, [r0, #0]
10015656:	e7bf      	b.n	100155d8 <__pow5mult+0x18>
10015658:	4b04      	ldr	r3, [pc, #16]	@ (1001566c <__pow5mult+0xac>)
1001565a:	4805      	ldr	r0, [pc, #20]	@ (10015670 <__pow5mult+0xb0>)
1001565c:	4632      	mov	r2, r6
1001565e:	f240 1145 	movw	r1, #325	@ 0x145
10015662:	f7ff fd77 	bl	10015154 <__assert_func>
10015666:	bf00      	nop
10015668:	10017ea0 	.word	0x10017ea0
1001566c:	10017c30 	.word	0x10017c30
10015670:	10017cb0 	.word	0x10017cb0

10015674 <__lshift>:
10015674:	e92d 47f0 	stmdb	sp!, {r4, r5, r6, r7, r8, r9, sl, lr}
10015678:	460c      	mov	r4, r1
1001567a:	4690      	mov	r8, r2
1001567c:	6927      	ldr	r7, [r4, #16]
1001567e:	68a3      	ldr	r3, [r4, #8]
10015680:	6849      	ldr	r1, [r1, #4]
10015682:	eb07 1762 	add.w	r7, r7, r2, asr #5
10015686:	1c7d      	adds	r5, r7, #1
10015688:	429d      	cmp	r5, r3
1001568a:	4606      	mov	r6, r0
1001568c:	ea4f 1962 	mov.w	r9, r2, asr #5
10015690:	dd04      	ble.n	1001569c <__lshift+0x28>
10015692:	005b      	lsls	r3, r3, #1
10015694:	429d      	cmp	r5, r3
10015696:	f101 0101 	add.w	r1, r1, #1
1001569a:	dcfa      	bgt.n	10015692 <__lshift+0x1e>
1001569c:	4630      	mov	r0, r6
1001569e:	f7ff fd7f 	bl	100151a0 <_Balloc>
100156a2:	4684      	mov	ip, r0
100156a4:	2800      	cmp	r0, #0
100156a6:	d051      	beq.n	1001574c <__lshift+0xd8>
100156a8:	f1b9 0f00 	cmp.w	r9, #0
100156ac:	f100 0014 	add.w	r0, r0, #20
100156b0:	dd0e      	ble.n	100156d0 <__lshift+0x5c>
100156b2:	f109 0205 	add.w	r2, r9, #5
100156b6:	ea4f 0e82 	mov.w	lr, r2, lsl #2
100156ba:	4603      	mov	r3, r0
100156bc:	eb0c 0282 	add.w	r2, ip, r2, lsl #2
100156c0:	2100      	movs	r1, #0
100156c2:	f843 1b04 	str.w	r1, [r3], #4
100156c6:	4293      	cmp	r3, r2
100156c8:	d1fb      	bne.n	100156c2 <__lshift+0x4e>
100156ca:	f1ae 0314 	sub.w	r3, lr, #20
100156ce:	4418      	add	r0, r3
100156d0:	6921      	ldr	r1, [r4, #16]
100156d2:	f104 0314 	add.w	r3, r4, #20
100156d6:	f018 081f 	ands.w	r8, r8, #31
100156da:	eb03 0181 	add.w	r1, r3, r1, lsl #2
100156de:	d02d      	beq.n	1001573c <__lshift+0xc8>
100156e0:	f1c8 0920 	rsb	r9, r8, #32
100156e4:	4686      	mov	lr, r0
100156e6:	f04f 0a00 	mov.w	sl, #0
100156ea:	681a      	ldr	r2, [r3, #0]
100156ec:	fa02 f208 	lsl.w	r2, r2, r8
100156f0:	ea42 020a 	orr.w	r2, r2, sl
100156f4:	f84e 2b04 	str.w	r2, [lr], #4
100156f8:	f853 2b04 	ldr.w	r2, [r3], #4
100156fc:	4299      	cmp	r1, r3
100156fe:	fa22 fa09 	lsr.w	sl, r2, r9
10015702:	d8f2      	bhi.n	100156ea <__lshift+0x76>
10015704:	1b0b      	subs	r3, r1, r4
10015706:	3b15      	subs	r3, #21
10015708:	f023 0303 	bic.w	r3, r3, #3
1001570c:	3304      	adds	r3, #4
1001570e:	f104 0215 	add.w	r2, r4, #21
10015712:	4291      	cmp	r1, r2
10015714:	bf38      	it	cc
10015716:	2304      	movcc	r3, #4
10015718:	f840 a003 	str.w	sl, [r0, r3]
1001571c:	f1ba 0f00 	cmp.w	sl, #0
10015720:	d100      	bne.n	10015724 <__lshift+0xb0>
10015722:	463d      	mov	r5, r7
10015724:	6c73      	ldr	r3, [r6, #68]	@ 0x44
10015726:	6862      	ldr	r2, [r4, #4]
10015728:	f8cc 5010 	str.w	r5, [ip, #16]
1001572c:	f853 1022 	ldr.w	r1, [r3, r2, lsl #2]
10015730:	6021      	str	r1, [r4, #0]
10015732:	4660      	mov	r0, ip
10015734:	f843 4022 	str.w	r4, [r3, r2, lsl #2]
10015738:	e8bd 87f0 	ldmia.w	sp!, {r4, r5, r6, r7, r8, r9, sl, pc}
1001573c:	3804      	subs	r0, #4
1001573e:	f853 2b04 	ldr.w	r2, [r3], #4
10015742:	f840 2f04 	str.w	r2, [r0, #4]!
10015746:	4299      	cmp	r1, r3
10015748:	d8f9      	bhi.n	1001573e <__lshift+0xca>
1001574a:	e7ea      	b.n	10015722 <__lshift+0xae>
1001574c:	4b03      	ldr	r3, [pc, #12]	@ (1001575c <__lshift+0xe8>)
1001574e:	4804      	ldr	r0, [pc, #16]	@ (10015760 <__lshift+0xec>)
10015750:	4662      	mov	r2, ip
10015752:	f44f 71ef 	mov.w	r1, #478	@ 0x1de
10015756:	f7ff fcfd 	bl	10015154 <__assert_func>
1001575a:	bf00      	nop
1001575c:	10017c30 	.word	0x10017c30
10015760:	10017cb0 	.word	0x10017cb0

10015764 <__mcmp>:
10015764:	690b      	ldr	r3, [r1, #16]
10015766:	4684      	mov	ip, r0
10015768:	6900      	ldr	r0, [r0, #16]
1001576a:	1ac0      	subs	r0, r0, r3
1001576c:	d115      	bne.n	1001579a <__mcmp+0x36>
1001576e:	f10c 0c14 	add.w	ip, ip, #20
10015772:	3114      	adds	r1, #20
10015774:	eb0c 0283 	add.w	r2, ip, r3, lsl #2
10015778:	b410      	push	{r4}
1001577a:	eb01 0383 	add.w	r3, r1, r3, lsl #2
1001577e:	e001      	b.n	10015784 <__mcmp+0x20>
10015780:	4594      	cmp	ip, r2
10015782:	d208      	bcs.n	10015796 <__mcmp+0x32>
10015784:	f852 4d04 	ldr.w	r4, [r2, #-4]!
10015788:	f853 1d04 	ldr.w	r1, [r3, #-4]!
1001578c:	428c      	cmp	r4, r1
1001578e:	d0f7      	beq.n	10015780 <__mcmp+0x1c>
10015790:	d204      	bcs.n	1001579c <__mcmp+0x38>
10015792:	f04f 30ff 	mov.w	r0, #4294967295	@ 0xffffffff
10015796:	bc10      	pop	{r4}
10015798:	4770      	bx	lr
1001579a:	4770      	bx	lr
1001579c:	2001      	movs	r0, #1
1001579e:	bc10      	pop	{r4}
100157a0:	4770      	bx	lr
100157a2:	bf00      	nop

100157a4 <__mdiff>:
100157a4:	e92d 4ff0 	stmdb	sp!, {r4, r5, r6, r7, r8, r9, sl, fp, lr}
100157a8:	4615      	mov	r5, r2
100157aa:	690a      	ldr	r2, [r1, #16]
100157ac:	692b      	ldr	r3, [r5, #16]
100157ae:	1ad2      	subs	r2, r2, r3
100157b0:	2a00      	cmp	r2, #0
100157b2:	b083      	sub	sp, #12
100157b4:	4688      	mov	r8, r1
100157b6:	f040 8087 	bne.w	100158c8 <__mdiff+0x124>
100157ba:	f101 0614 	add.w	r6, r1, #20
100157be:	f105 0114 	add.w	r1, r5, #20
100157c2:	eb01 0183 	add.w	r1, r1, r3, lsl #2
100157c6:	eb06 0383 	add.w	r3, r6, r3, lsl #2
100157ca:	e001      	b.n	100157d0 <__mdiff+0x2c>
100157cc:	429e      	cmp	r6, r3
100157ce:	d27e      	bcs.n	100158ce <__mdiff+0x12a>
100157d0:	f853 4d04 	ldr.w	r4, [r3, #-4]!
100157d4:	f851 2d04 	ldr.w	r2, [r1, #-4]!
100157d8:	4294      	cmp	r4, r2
100157da:	d0f7      	beq.n	100157cc <__mdiff+0x28>
100157dc:	d375      	bcc.n	100158ca <__mdiff+0x126>
100157de:	462b      	mov	r3, r5
100157e0:	2400      	movs	r4, #0
100157e2:	4645      	mov	r5, r8
100157e4:	4698      	mov	r8, r3
100157e6:	6869      	ldr	r1, [r5, #4]
100157e8:	f7ff fcda 	bl	100151a0 <_Balloc>
100157ec:	4681      	mov	r9, r0
100157ee:	2800      	cmp	r0, #0
100157f0:	f000 8089 	beq.w	10015906 <__mdiff+0x162>
100157f4:	692e      	ldr	r6, [r5, #16]
100157f6:	60c4      	str	r4, [r0, #12]
100157f8:	f8d8 0010 	ldr.w	r0, [r8, #16]
100157fc:	f105 0b14 	add.w	fp, r5, #20
10015800:	f108 0e14 	add.w	lr, r8, #20
10015804:	f109 0a14 	add.w	sl, r9, #20
10015808:	f105 0210 	add.w	r2, r5, #16
1001580c:	eb0e 0080 	add.w	r0, lr, r0, lsl #2
10015810:	eb0b 0186 	add.w	r1, fp, r6, lsl #2
10015814:	4657      	mov	r7, sl
10015816:	f04f 0c00 	mov.w	ip, #0
1001581a:	f8cd b004 	str.w	fp, [sp, #4]
1001581e:	f85e 4b04 	ldr.w	r4, [lr], #4
10015822:	f852 5f04 	ldr.w	r5, [r2, #4]!
10015826:	fa1f fb84 	uxth.w	fp, r4
1001582a:	b2ab      	uxth	r3, r5
1001582c:	eba3 030b 	sub.w	r3, r3, fp
10015830:	0c24      	lsrs	r4, r4, #16
10015832:	4463      	add	r3, ip
10015834:	ebc4 4415 	rsb	r4, r4, r5, lsr #16
10015838:	eb04 4423 	add.w	r4, r4, r3, asr #16
1001583c:	b29b      	uxth	r3, r3
1001583e:	ea43 4304 	orr.w	r3, r3, r4, lsl #16
10015842:	4570      	cmp	r0, lr
10015844:	f847 3b04 	str.w	r3, [r7], #4
10015848:	ea4f 4c24 	mov.w	ip, r4, asr #16
1001584c:	d8e7      	bhi.n	1001581e <__mdiff+0x7a>
1001584e:	eba0 0208 	sub.w	r2, r0, r8
10015852:	f108 0815 	add.w	r8, r8, #21
10015856:	4540      	cmp	r0, r8
10015858:	f1a2 0215 	sub.w	r2, r2, #21
1001585c:	bf34      	ite	cc
1001585e:	2000      	movcc	r0, #0
10015860:	2001      	movcs	r0, #1
10015862:	0892      	lsrs	r2, r2, #2
10015864:	2800      	cmp	r0, #0
10015866:	f8dd b004 	ldr.w	fp, [sp, #4]
1001586a:	f102 0401 	add.w	r4, r2, #1
1001586e:	ea4f 0484 	mov.w	r4, r4, lsl #2
10015872:	bf08      	it	eq
10015874:	2404      	moveq	r4, #4
10015876:	eb0b 0504 	add.w	r5, fp, r4
1001587a:	42a9      	cmp	r1, r5
1001587c:	4454      	add	r4, sl
1001587e:	d933      	bls.n	100158e8 <__mdiff+0x144>
10015880:	4627      	mov	r7, r4
10015882:	4628      	mov	r0, r5
10015884:	f850 3b04 	ldr.w	r3, [r0], #4
10015888:	fa1c fe83 	uxtah	lr, ip, r3
1001588c:	0c1a      	lsrs	r2, r3, #16
1001588e:	4463      	add	r3, ip
10015890:	eb02 422e 	add.w	r2, r2, lr, asr #16
10015894:	b29b      	uxth	r3, r3
10015896:	ea43 4302 	orr.w	r3, r3, r2, lsl #16
1001589a:	4281      	cmp	r1, r0
1001589c:	f847 3b04 	str.w	r3, [r7], #4
100158a0:	ea4f 4c22 	mov.w	ip, r2, asr #16
100158a4:	d8ee      	bhi.n	10015884 <__mdiff+0xe0>
100158a6:	3901      	subs	r1, #1
100158a8:	1b49      	subs	r1, r1, r5
100158aa:	f021 0103 	bic.w	r1, r1, #3
100158ae:	440c      	add	r4, r1
100158b0:	b923      	cbnz	r3, 100158bc <__mdiff+0x118>
100158b2:	f854 3d04 	ldr.w	r3, [r4, #-4]!
100158b6:	3e01      	subs	r6, #1
100158b8:	2b00      	cmp	r3, #0
100158ba:	d0fa      	beq.n	100158b2 <__mdiff+0x10e>
100158bc:	4648      	mov	r0, r9
100158be:	f8c9 6010 	str.w	r6, [r9, #16]
100158c2:	b003      	add	sp, #12
100158c4:	e8bd 8ff0 	ldmia.w	sp!, {r4, r5, r6, r7, r8, r9, sl, fp, pc}
100158c8:	da89      	bge.n	100157de <__mdiff+0x3a>
100158ca:	2401      	movs	r4, #1
100158cc:	e78b      	b.n	100157e6 <__mdiff+0x42>
100158ce:	2100      	movs	r1, #0
100158d0:	f7ff fc66 	bl	100151a0 <_Balloc>
100158d4:	4681      	mov	r9, r0
100158d6:	b178      	cbz	r0, 100158f8 <__mdiff+0x154>
100158d8:	2201      	movs	r2, #1
100158da:	2300      	movs	r3, #0
100158dc:	e9c0 2304 	strd	r2, r3, [r0, #16]
100158e0:	4648      	mov	r0, r9
100158e2:	b003      	add	sp, #12
100158e4:	e8bd 8ff0 	ldmia.w	sp!, {r4, r5, r6, r7, r8, r9, sl, fp, pc}
100158e8:	2800      	cmp	r0, #0
100158ea:	ea4f 0282 	mov.w	r2, r2, lsl #2
100158ee:	bf08      	it	eq
100158f0:	2200      	moveq	r2, #0
100158f2:	eb0a 0402 	add.w	r4, sl, r2
100158f6:	e7db      	b.n	100158b0 <__mdiff+0x10c>
100158f8:	4b06      	ldr	r3, [pc, #24]	@ (10015914 <__mdiff+0x170>)
100158fa:	4807      	ldr	r0, [pc, #28]	@ (10015918 <__mdiff+0x174>)
100158fc:	464a      	mov	r2, r9
100158fe:	f240 2137 	movw	r1, #567	@ 0x237
10015902:	f7ff fc27 	bl	10015154 <__assert_func>
10015906:	4b03      	ldr	r3, [pc, #12]	@ (10015914 <__mdiff+0x170>)
10015908:	4803      	ldr	r0, [pc, #12]	@ (10015918 <__mdiff+0x174>)
1001590a:	464a      	mov	r2, r9
1001590c:	f240 2145 	movw	r1, #581	@ 0x245
10015910:	f7ff fc20 	bl	10015154 <__assert_func>
10015914:	10017c30 	.word	0x10017c30
10015918:	10017cb0 	.word	0x10017cb0

1001591c <__ulp>:
1001591c:	4b11      	ldr	r3, [pc, #68]	@ (10015964 <__ulp+0x48>)
1001591e:	400b      	ands	r3, r1
10015920:	f1a3 7350 	sub.w	r3, r3, #54525952	@ 0x3400000
10015924:	2b00      	cmp	r3, #0
10015926:	dd03      	ble.n	10015930 <__ulp+0x14>
10015928:	2200      	movs	r2, #0
1001592a:	4619      	mov	r1, r3
1001592c:	4610      	mov	r0, r2
1001592e:	4770      	bx	lr
10015930:	425b      	negs	r3, r3
10015932:	f1b3 7fa0 	cmp.w	r3, #20971520	@ 0x1400000
10015936:	ea4f 5223 	mov.w	r2, r3, asr #20
1001593a:	da06      	bge.n	1001594a <__ulp+0x2e>
1001593c:	f44f 2300 	mov.w	r3, #524288	@ 0x80000
10015940:	4113      	asrs	r3, r2
10015942:	2200      	movs	r2, #0
10015944:	4619      	mov	r1, r3
10015946:	4610      	mov	r0, r2
10015948:	4770      	bx	lr
1001594a:	f1a2 0314 	sub.w	r3, r2, #20
1001594e:	2b1e      	cmp	r3, #30
10015950:	bfda      	itte	le
10015952:	f04f 4200 	movle.w	r2, #2147483648	@ 0x80000000
10015956:	40da      	lsrle	r2, r3
10015958:	2201      	movgt	r2, #1
1001595a:	2300      	movs	r3, #0
1001595c:	4619      	mov	r1, r3
1001595e:	4610      	mov	r0, r2
10015960:	4770      	bx	lr
10015962:	bf00      	nop
10015964:	7ff00000 	.word	0x7ff00000

10015968 <__b2d>:
10015968:	6902      	ldr	r2, [r0, #16]
1001596a:	e92d 41f0 	stmdb	sp!, {r4, r5, r6, r7, r8, lr}
1001596e:	f100 0714 	add.w	r7, r0, #20
10015972:	eb07 0282 	add.w	r2, r7, r2, lsl #2
10015976:	f1a2 0804 	sub.w	r8, r2, #4
1001597a:	f852 6c04 	ldr.w	r6, [r2, #-4]
1001597e:	4630      	mov	r0, r6
10015980:	f7ff fce8 	bl	10015354 <__hi0bits>
10015984:	f1c0 0320 	rsb	r3, r0, #32
10015988:	280a      	cmp	r0, #10
1001598a:	600b      	str	r3, [r1, #0]
1001598c:	dd33      	ble.n	100159f6 <__b2d+0x8e>
1001598e:	4547      	cmp	r7, r8
10015990:	f1a0 010b 	sub.w	r1, r0, #11
10015994:	d219      	bcs.n	100159ca <__b2d+0x62>
10015996:	f852 3c08 	ldr.w	r3, [r2, #-8]
1001599a:	b321      	cbz	r1, 100159e6 <__b2d+0x7e>
1001599c:	f1c1 0020 	rsb	r0, r1, #32
100159a0:	408e      	lsls	r6, r1
100159a2:	fa23 f400 	lsr.w	r4, r3, r0
100159a6:	4326      	orrs	r6, r4
100159a8:	408b      	lsls	r3, r1
100159aa:	f1a2 0108 	sub.w	r1, r2, #8
100159ae:	f046 557f 	orr.w	r5, r6, #1069547520	@ 0x3fc00000
100159b2:	428f      	cmp	r7, r1
100159b4:	f445 1540 	orr.w	r5, r5, #3145728	@ 0x300000
100159b8:	d219      	bcs.n	100159ee <__b2d+0x86>
100159ba:	f852 2c0c 	ldr.w	r2, [r2, #-12]
100159be:	40c2      	lsrs	r2, r0
100159c0:	4313      	orrs	r3, r2
100159c2:	4618      	mov	r0, r3
100159c4:	4629      	mov	r1, r5
100159c6:	e8bd 81f0 	ldmia.w	sp!, {r4, r5, r6, r7, r8, pc}
100159ca:	280b      	cmp	r0, #11
100159cc:	d00a      	beq.n	100159e4 <__b2d+0x7c>
100159ce:	fa06 f101 	lsl.w	r1, r6, r1
100159d2:	f041 557f 	orr.w	r5, r1, #1069547520	@ 0x3fc00000
100159d6:	f445 1540 	orr.w	r5, r5, #3145728	@ 0x300000
100159da:	2300      	movs	r3, #0
100159dc:	4618      	mov	r0, r3
100159de:	4629      	mov	r1, r5
100159e0:	e8bd 81f0 	ldmia.w	sp!, {r4, r5, r6, r7, r8, pc}
100159e4:	2300      	movs	r3, #0
100159e6:	f046 557f 	orr.w	r5, r6, #1069547520	@ 0x3fc00000
100159ea:	f445 1540 	orr.w	r5, r5, #3145728	@ 0x300000
100159ee:	4618      	mov	r0, r3
100159f0:	4629      	mov	r1, r5
100159f2:	e8bd 81f0 	ldmia.w	sp!, {r4, r5, r6, r7, r8, pc}
100159f6:	4547      	cmp	r7, r8
100159f8:	bf38      	it	cc
100159fa:	f852 2c08 	ldrcc.w	r2, [r2, #-8]
100159fe:	f1c0 030b 	rsb	r3, r0, #11
10015a02:	fa26 f103 	lsr.w	r1, r6, r3
10015a06:	bf38      	it	cc
10015a08:	40da      	lsrcc	r2, r3
10015a0a:	f100 0315 	add.w	r3, r0, #21
10015a0e:	f041 557f 	orr.w	r5, r1, #1069547520	@ 0x3fc00000
10015a12:	bf28      	it	cs
10015a14:	2200      	movcs	r2, #0
10015a16:	fa06 f303 	lsl.w	r3, r6, r3
10015a1a:	f445 1540 	orr.w	r5, r5, #3145728	@ 0x300000
10015a1e:	4313      	orrs	r3, r2
10015a20:	4618      	mov	r0, r3
10015a22:	4629      	mov	r1, r5
10015a24:	e8bd 81f0 	ldmia.w	sp!, {r4, r5, r6, r7, r8, pc}

10015a28 <__d2b>:
10015a28:	b5f0      	push	{r4, r5, r6, r7, lr}
10015a2a:	2101      	movs	r1, #1
10015a2c:	b083      	sub	sp, #12
10015a2e:	4616      	mov	r6, r2
10015a30:	461f      	mov	r7, r3
10015a32:	f7ff fbb5 	bl	100151a0 <_Balloc>
10015a36:	4605      	mov	r5, r0
10015a38:	2800      	cmp	r0, #0
10015a3a:	d047      	beq.n	10015acc <__d2b+0xa4>
10015a3c:	f3c7 540a 	ubfx	r4, r7, #20, #11
10015a40:	f3c7 0313 	ubfx	r3, r7, #0, #20
10015a44:	b10c      	cbz	r4, 10015a4a <__d2b+0x22>
10015a46:	f443 1380 	orr.w	r3, r3, #1048576	@ 0x100000
10015a4a:	2e00      	cmp	r6, #0
10015a4c:	9301      	str	r3, [sp, #4]
10015a4e:	d114      	bne.n	10015a7a <__d2b+0x52>
10015a50:	a801      	add	r0, sp, #4
10015a52:	f7ff fca1 	bl	10015398 <__lo0bits>
10015a56:	9b01      	ldr	r3, [sp, #4]
10015a58:	616b      	str	r3, [r5, #20]
10015a5a:	2201      	movs	r2, #1
10015a5c:	3020      	adds	r0, #32
10015a5e:	612a      	str	r2, [r5, #16]
10015a60:	b314      	cbz	r4, 10015aa8 <__d2b+0x80>
10015a62:	9b08      	ldr	r3, [sp, #32]
10015a64:	f2a4 4433 	subw	r4, r4, #1075	@ 0x433
10015a68:	4404      	add	r4, r0
10015a6a:	601c      	str	r4, [r3, #0]
10015a6c:	9b09      	ldr	r3, [sp, #36]	@ 0x24
10015a6e:	f1c0 0035 	rsb	r0, r0, #53	@ 0x35
10015a72:	6018      	str	r0, [r3, #0]
10015a74:	4628      	mov	r0, r5
10015a76:	b003      	add	sp, #12
10015a78:	bdf0      	pop	{r4, r5, r6, r7, pc}
10015a7a:	4668      	mov	r0, sp
10015a7c:	9600      	str	r6, [sp, #0]
10015a7e:	f7ff fc8b 	bl	10015398 <__lo0bits>
10015a82:	9b01      	ldr	r3, [sp, #4]
10015a84:	b300      	cbz	r0, 10015ac8 <__d2b+0xa0>
10015a86:	9900      	ldr	r1, [sp, #0]
10015a88:	f1c0 0220 	rsb	r2, r0, #32
10015a8c:	fa03 f202 	lsl.w	r2, r3, r2
10015a90:	40c3      	lsrs	r3, r0
10015a92:	9301      	str	r3, [sp, #4]
10015a94:	430a      	orrs	r2, r1
10015a96:	2b00      	cmp	r3, #0
10015a98:	e9c5 2305 	strd	r2, r3, [r5, #20]
10015a9c:	bf0c      	ite	eq
10015a9e:	2201      	moveq	r2, #1
10015aa0:	2202      	movne	r2, #2
10015aa2:	612a      	str	r2, [r5, #16]
10015aa4:	2c00      	cmp	r4, #0
10015aa6:	d1dc      	bne.n	10015a62 <__d2b+0x3a>
10015aa8:	eb05 0182 	add.w	r1, r5, r2, lsl #2
10015aac:	f2a0 4332 	subw	r3, r0, #1074	@ 0x432
10015ab0:	6908      	ldr	r0, [r1, #16]
10015ab2:	9908      	ldr	r1, [sp, #32]
10015ab4:	600b      	str	r3, [r1, #0]
10015ab6:	f7ff fc4d 	bl	10015354 <__hi0bits>
10015aba:	9b09      	ldr	r3, [sp, #36]	@ 0x24
10015abc:	ebc0 1042 	rsb	r0, r0, r2, lsl #5
10015ac0:	6018      	str	r0, [r3, #0]
10015ac2:	4628      	mov	r0, r5
10015ac4:	b003      	add	sp, #12
10015ac6:	bdf0      	pop	{r4, r5, r6, r7, pc}
10015ac8:	9a00      	ldr	r2, [sp, #0]
10015aca:	e7e4      	b.n	10015a96 <__d2b+0x6e>
10015acc:	4b03      	ldr	r3, [pc, #12]	@ (10015adc <__d2b+0xb4>)
10015ace:	4804      	ldr	r0, [pc, #16]	@ (10015ae0 <__d2b+0xb8>)
10015ad0:	462a      	mov	r2, r5
10015ad2:	f240 310f 	movw	r1, #783	@ 0x30f
10015ad6:	f7ff fb3d 	bl	10015154 <__assert_func>
10015ada:	bf00      	nop
10015adc:	10017c30 	.word	0x10017c30
10015ae0:	10017cb0 	.word	0x10017cb0

10015ae4 <__ratio>:
10015ae4:	e92d 43f0 	stmdb	sp!, {r4, r5, r6, r7, r8, r9, lr}
10015ae8:	b083      	sub	sp, #12
10015aea:	4688      	mov	r8, r1
10015aec:	4669      	mov	r1, sp
10015aee:	4681      	mov	r9, r0
10015af0:	f7ff ff3a 	bl	10015968 <__b2d>
10015af4:	4604      	mov	r4, r0
10015af6:	460d      	mov	r5, r1
10015af8:	4640      	mov	r0, r8
10015afa:	a901      	add	r1, sp, #4
10015afc:	f7ff ff34 	bl	10015968 <__b2d>
10015b00:	f8d9 3010 	ldr.w	r3, [r9, #16]
10015b04:	f8d8 2010 	ldr.w	r2, [r8, #16]
10015b08:	eba3 0c02 	sub.w	ip, r3, r2
10015b0c:	e9dd 3200 	ldrd	r3, r2, [sp]
10015b10:	1a9b      	subs	r3, r3, r2
10015b12:	eb03 134c 	add.w	r3, r3, ip, lsl #5
10015b16:	2b00      	cmp	r3, #0
10015b18:	dd0b      	ble.n	10015b32 <__ratio+0x4e>
10015b1a:	eb05 5703 	add.w	r7, r5, r3, lsl #20
10015b1e:	463d      	mov	r5, r7
10015b20:	4602      	mov	r2, r0
10015b22:	460b      	mov	r3, r1
10015b24:	4620      	mov	r0, r4
10015b26:	4629      	mov	r1, r5
10015b28:	f001 fc54 	bl	100173d4 <__aeabi_ddiv>
10015b2c:	b003      	add	sp, #12
10015b2e:	e8bd 83f0 	ldmia.w	sp!, {r4, r5, r6, r7, r8, r9, pc}
10015b32:	ebc3 3303 	rsb	r3, r3, r3, lsl #12
10015b36:	eb01 5903 	add.w	r9, r1, r3, lsl #20
10015b3a:	4649      	mov	r1, r9
10015b3c:	e7f0      	b.n	10015b20 <__ratio+0x3c>
10015b3e:	bf00      	nop

10015b40 <_mprec_log10>:
10015b40:	2817      	cmp	r0, #23
10015b42:	b570      	push	{r4, r5, r6, lr}
10015b44:	4606      	mov	r6, r0
10015b46:	dd0a      	ble.n	10015b5e <_mprec_log10+0x1e>
10015b48:	4908      	ldr	r1, [pc, #32]	@ (10015b6c <_mprec_log10+0x2c>)
10015b4a:	4d09      	ldr	r5, [pc, #36]	@ (10015b70 <_mprec_log10+0x30>)
10015b4c:	2000      	movs	r0, #0
10015b4e:	2400      	movs	r4, #0
10015b50:	4622      	mov	r2, r4
10015b52:	462b      	mov	r3, r5
10015b54:	f001 fb14 	bl	10017180 <__aeabi_dmul>
10015b58:	3e01      	subs	r6, #1
10015b5a:	d1f9      	bne.n	10015b50 <_mprec_log10+0x10>
10015b5c:	bd70      	pop	{r4, r5, r6, pc}
10015b5e:	4b05      	ldr	r3, [pc, #20]	@ (10015b74 <_mprec_log10+0x34>)
10015b60:	eb03 03c0 	add.w	r3, r3, r0, lsl #3
10015b64:	e9d3 0104 	ldrd	r0, r1, [r3, #16]
10015b68:	bd70      	pop	{r4, r5, r6, pc}
10015b6a:	bf00      	nop
10015b6c:	3ff00000 	.word	0x3ff00000
10015b70:	40240000 	.word	0x40240000
10015b74:	10017ea0 	.word	0x10017ea0

10015b78 <__copybits>:
10015b78:	3901      	subs	r1, #1
10015b7a:	1149      	asrs	r1, r1, #5
10015b7c:	f101 0c01 	add.w	ip, r1, #1
10015b80:	6911      	ldr	r1, [r2, #16]
10015b82:	f102 0314 	add.w	r3, r2, #20
10015b86:	eb03 0181 	add.w	r1, r3, r1, lsl #2
10015b8a:	428b      	cmp	r3, r1
10015b8c:	eb00 0c8c 	add.w	ip, r0, ip, lsl #2
10015b90:	d216      	bcs.n	10015bc0 <__copybits+0x48>
10015b92:	b510      	push	{r4, lr}
10015b94:	f1a0 0e04 	sub.w	lr, r0, #4
10015b98:	f853 4b04 	ldr.w	r4, [r3], #4
10015b9c:	f84e 4f04 	str.w	r4, [lr, #4]!
10015ba0:	4299      	cmp	r1, r3
10015ba2:	d8f9      	bhi.n	10015b98 <__copybits+0x20>
10015ba4:	1a8b      	subs	r3, r1, r2
10015ba6:	3b15      	subs	r3, #21
10015ba8:	f023 0303 	bic.w	r3, r3, #3
10015bac:	3304      	adds	r3, #4
10015bae:	4418      	add	r0, r3
10015bb0:	4584      	cmp	ip, r0
10015bb2:	d904      	bls.n	10015bbe <__copybits+0x46>
10015bb4:	2300      	movs	r3, #0
10015bb6:	f840 3b04 	str.w	r3, [r0], #4
10015bba:	4584      	cmp	ip, r0
10015bbc:	d8fb      	bhi.n	10015bb6 <__copybits+0x3e>
10015bbe:	bd10      	pop	{r4, pc}
10015bc0:	4584      	cmp	ip, r0
10015bc2:	d905      	bls.n	10015bd0 <__copybits+0x58>
10015bc4:	2300      	movs	r3, #0
10015bc6:	f840 3b04 	str.w	r3, [r0], #4
10015bca:	4584      	cmp	ip, r0
10015bcc:	d8fb      	bhi.n	10015bc6 <__copybits+0x4e>
10015bce:	4770      	bx	lr
10015bd0:	4770      	bx	lr
10015bd2:	bf00      	nop

10015bd4 <__any_on>:
10015bd4:	6903      	ldr	r3, [r0, #16]
10015bd6:	114a      	asrs	r2, r1, #5
10015bd8:	4293      	cmp	r3, r2
10015bda:	f100 0014 	add.w	r0, r0, #20
10015bde:	da09      	bge.n	10015bf4 <__any_on+0x20>
10015be0:	eb00 0383 	add.w	r3, r0, r3, lsl #2
10015be4:	e002      	b.n	10015bec <__any_on+0x18>
10015be6:	f853 2d04 	ldr.w	r2, [r3, #-4]!
10015bea:	b9a2      	cbnz	r2, 10015c16 <__any_on+0x42>
10015bec:	4283      	cmp	r3, r0
10015bee:	d8fa      	bhi.n	10015be6 <__any_on+0x12>
10015bf0:	2000      	movs	r0, #0
10015bf2:	4770      	bx	lr
10015bf4:	eb00 0382 	add.w	r3, r0, r2, lsl #2
10015bf8:	ddf8      	ble.n	10015bec <__any_on+0x18>
10015bfa:	f011 011f 	ands.w	r1, r1, #31
10015bfe:	d0f5      	beq.n	10015bec <__any_on+0x18>
10015c00:	b410      	push	{r4}
10015c02:	f850 4022 	ldr.w	r4, [r0, r2, lsl #2]
10015c06:	fa24 f201 	lsr.w	r2, r4, r1
10015c0a:	408a      	lsls	r2, r1
10015c0c:	4294      	cmp	r4, r2
10015c0e:	d008      	beq.n	10015c22 <__any_on+0x4e>
10015c10:	2001      	movs	r0, #1
10015c12:	bc10      	pop	{r4}
10015c14:	4770      	bx	lr
10015c16:	2001      	movs	r0, #1
10015c18:	4770      	bx	lr
10015c1a:	f853 2d04 	ldr.w	r2, [r3, #-4]!
10015c1e:	2a00      	cmp	r2, #0
10015c20:	d1f6      	bne.n	10015c10 <__any_on+0x3c>
10015c22:	4283      	cmp	r3, r0
10015c24:	d8f9      	bhi.n	10015c1a <__any_on+0x46>
10015c26:	2000      	movs	r0, #0
10015c28:	bc10      	pop	{r4}
10015c2a:	4770      	bx	lr

10015c2c <__localeconv_l>:
10015c2c:	30f0      	adds	r0, #240	@ 0xf0
10015c2e:	4770      	bx	lr

10015c30 <_localeconv_r>:
10015c30:	4800      	ldr	r0, [pc, #0]	@ (10015c34 <_localeconv_r+0x4>)
10015c32:	4770      	bx	lr
10015c34:	20000648 	.word	0x20000648

10015c38 <localeconv>:
10015c38:	4800      	ldr	r0, [pc, #0]	@ (10015c3c <localeconv+0x4>)
10015c3a:	4770      	bx	lr
10015c3c:	20000648 	.word	0x20000648

10015c40 <__smakebuf_r>:
10015c40:	e92d 41f0 	stmdb	sp!, {r4, r5, r6, r7, r8, lr}
10015c44:	f9b1 300c 	ldrsh.w	r3, [r1, #12]
10015c48:	460c      	mov	r4, r1
10015c4a:	0799      	lsls	r1, r3, #30
10015c4c:	b096      	sub	sp, #88	@ 0x58
10015c4e:	d508      	bpl.n	10015c62 <__smakebuf_r+0x22>
10015c50:	f104 0343 	add.w	r3, r4, #67	@ 0x43
10015c54:	2201      	movs	r2, #1
10015c56:	e9c4 3204 	strd	r3, r2, [r4, #16]
10015c5a:	6023      	str	r3, [r4, #0]
10015c5c:	b016      	add	sp, #88	@ 0x58
10015c5e:	e8bd 81f0 	ldmia.w	sp!, {r4, r5, r6, r7, r8, pc}
10015c62:	f9b4 100e 	ldrsh.w	r1, [r4, #14]
10015c66:	2900      	cmp	r1, #0
10015c68:	4606      	mov	r6, r0
10015c6a:	db26      	blt.n	10015cba <__smakebuf_r+0x7a>
10015c6c:	466a      	mov	r2, sp
10015c6e:	f000 f9a9 	bl	10015fc4 <_fstat_r>
10015c72:	2800      	cmp	r0, #0
10015c74:	db1f      	blt.n	10015cb6 <__smakebuf_r+0x76>
10015c76:	9d01      	ldr	r5, [sp, #4]
10015c78:	f405 4570 	and.w	r5, r5, #61440	@ 0xf000
10015c7c:	f5a5 5500 	sub.w	r5, r5, #8192	@ 0x2000
10015c80:	fab5 f585 	clz	r5, r5
10015c84:	f44f 6880 	mov.w	r8, #1024	@ 0x400
10015c88:	096d      	lsrs	r5, r5, #5
10015c8a:	f44f 6700 	mov.w	r7, #2048	@ 0x800
10015c8e:	4641      	mov	r1, r8
10015c90:	4630      	mov	r0, r6
10015c92:	f7fd fca1 	bl	100135d8 <_malloc_r>
10015c96:	b1e8      	cbz	r0, 10015cd4 <__smakebuf_r+0x94>
10015c98:	f9b4 300c 	ldrsh.w	r3, [r4, #12]
10015c9c:	f8c4 8014 	str.w	r8, [r4, #20]
10015ca0:	f043 0380 	orr.w	r3, r3, #128	@ 0x80
10015ca4:	6020      	str	r0, [r4, #0]
10015ca6:	6120      	str	r0, [r4, #16]
10015ca8:	81a3      	strh	r3, [r4, #12]
10015caa:	bb3d      	cbnz	r5, 10015cfc <__smakebuf_r+0xbc>
10015cac:	433b      	orrs	r3, r7
10015cae:	81a3      	strh	r3, [r4, #12]
10015cb0:	b016      	add	sp, #88	@ 0x58
10015cb2:	e8bd 81f0 	ldmia.w	sp!, {r4, r5, r6, r7, r8, pc}
10015cb6:	f9b4 300c 	ldrsh.w	r3, [r4, #12]
10015cba:	f013 0580 	ands.w	r5, r3, #128	@ 0x80
10015cbe:	d019      	beq.n	10015cf4 <__smakebuf_r+0xb4>
10015cc0:	f04f 0840 	mov.w	r8, #64	@ 0x40
10015cc4:	2500      	movs	r5, #0
10015cc6:	4641      	mov	r1, r8
10015cc8:	4630      	mov	r0, r6
10015cca:	462f      	mov	r7, r5
10015ccc:	f7fd fc84 	bl	100135d8 <_malloc_r>
10015cd0:	2800      	cmp	r0, #0
10015cd2:	d1e1      	bne.n	10015c98 <__smakebuf_r+0x58>
10015cd4:	f9b4 300c 	ldrsh.w	r3, [r4, #12]
10015cd8:	059a      	lsls	r2, r3, #22
10015cda:	d4bf      	bmi.n	10015c5c <__smakebuf_r+0x1c>
10015cdc:	f023 0303 	bic.w	r3, r3, #3
10015ce0:	f104 0243 	add.w	r2, r4, #67	@ 0x43
10015ce4:	f043 0302 	orr.w	r3, r3, #2
10015ce8:	2101      	movs	r1, #1
10015cea:	e9c4 2104 	strd	r2, r1, [r4, #16]
10015cee:	81a3      	strh	r3, [r4, #12]
10015cf0:	6022      	str	r2, [r4, #0]
10015cf2:	e7b3      	b.n	10015c5c <__smakebuf_r+0x1c>
10015cf4:	f44f 6880 	mov.w	r8, #1024	@ 0x400
10015cf8:	462f      	mov	r7, r5
10015cfa:	e7c8      	b.n	10015c8e <__smakebuf_r+0x4e>
10015cfc:	f9b4 100e 	ldrsh.w	r1, [r4, #14]
10015d00:	4630      	mov	r0, r6
10015d02:	f000 f975 	bl	10015ff0 <_isatty_r>
10015d06:	b910      	cbnz	r0, 10015d0e <__smakebuf_r+0xce>
10015d08:	f9b4 300c 	ldrsh.w	r3, [r4, #12]
10015d0c:	e7ce      	b.n	10015cac <__smakebuf_r+0x6c>
10015d0e:	89a3      	ldrh	r3, [r4, #12]
10015d10:	f023 0303 	bic.w	r3, r3, #3
10015d14:	f043 0301 	orr.w	r3, r3, #1
10015d18:	b21b      	sxth	r3, r3
10015d1a:	e7c7      	b.n	10015cac <__smakebuf_r+0x6c>

10015d1c <__swhatbuf_r>:
10015d1c:	b570      	push	{r4, r5, r6, lr}
10015d1e:	460c      	mov	r4, r1
10015d20:	f9b1 100e 	ldrsh.w	r1, [r1, #14]
10015d24:	2900      	cmp	r1, #0
10015d26:	b096      	sub	sp, #88	@ 0x58
10015d28:	4615      	mov	r5, r2
10015d2a:	461e      	mov	r6, r3
10015d2c:	db14      	blt.n	10015d58 <__swhatbuf_r+0x3c>
10015d2e:	466a      	mov	r2, sp
10015d30:	f000 f948 	bl	10015fc4 <_fstat_r>
10015d34:	2800      	cmp	r0, #0
10015d36:	db0f      	blt.n	10015d58 <__swhatbuf_r+0x3c>
10015d38:	9901      	ldr	r1, [sp, #4]
10015d3a:	f401 4170 	and.w	r1, r1, #61440	@ 0xf000
10015d3e:	f5a1 5100 	sub.w	r1, r1, #8192	@ 0x2000
10015d42:	fab1 f181 	clz	r1, r1
10015d46:	f44f 6380 	mov.w	r3, #1024	@ 0x400
10015d4a:	0949      	lsrs	r1, r1, #5
10015d4c:	f44f 6000 	mov.w	r0, #2048	@ 0x800
10015d50:	6031      	str	r1, [r6, #0]
10015d52:	602b      	str	r3, [r5, #0]
10015d54:	b016      	add	sp, #88	@ 0x58
10015d56:	bd70      	pop	{r4, r5, r6, pc}
10015d58:	89a1      	ldrh	r1, [r4, #12]
10015d5a:	f011 0180 	ands.w	r1, r1, #128	@ 0x80
10015d5e:	d006      	beq.n	10015d6e <__swhatbuf_r+0x52>
10015d60:	2100      	movs	r1, #0
10015d62:	2340      	movs	r3, #64	@ 0x40
10015d64:	4608      	mov	r0, r1
10015d66:	6031      	str	r1, [r6, #0]
10015d68:	602b      	str	r3, [r5, #0]
10015d6a:	b016      	add	sp, #88	@ 0x58
10015d6c:	bd70      	pop	{r4, r5, r6, pc}
10015d6e:	f44f 6380 	mov.w	r3, #1024	@ 0x400
10015d72:	4608      	mov	r0, r1
10015d74:	6031      	str	r1, [r6, #0]
10015d76:	602b      	str	r3, [r5, #0]
10015d78:	b016      	add	sp, #88	@ 0x58
10015d7a:	bd70      	pop	{r4, r5, r6, pc}

10015d7c <_mbtowc_r>:
10015d7c:	b410      	push	{r4}
10015d7e:	4c03      	ldr	r4, [pc, #12]	@ (10015d8c <_mbtowc_r+0x10>)
10015d80:	f8d4 40e4 	ldr.w	r4, [r4, #228]	@ 0xe4
10015d84:	46a4      	mov	ip, r4
10015d86:	bc10      	pop	{r4}
10015d88:	4760      	bx	ip
10015d8a:	bf00      	nop
10015d8c:	20000558 	.word	0x20000558

10015d90 <__ascii_mbtowc>:
10015d90:	b082      	sub	sp, #8
10015d92:	b149      	cbz	r1, 10015da8 <__ascii_mbtowc+0x18>
10015d94:	b15a      	cbz	r2, 10015dae <__ascii_mbtowc+0x1e>
10015d96:	b16b      	cbz	r3, 10015db4 <__ascii_mbtowc+0x24>
10015d98:	7813      	ldrb	r3, [r2, #0]
10015d9a:	600b      	str	r3, [r1, #0]
10015d9c:	7812      	ldrb	r2, [r2, #0]
10015d9e:	1e10      	subs	r0, r2, #0
10015da0:	bf18      	it	ne
10015da2:	2001      	movne	r0, #1
10015da4:	b002      	add	sp, #8
10015da6:	4770      	bx	lr
10015da8:	a901      	add	r1, sp, #4
10015daa:	2a00      	cmp	r2, #0
10015dac:	d1f3      	bne.n	10015d96 <__ascii_mbtowc+0x6>
10015dae:	4610      	mov	r0, r2
10015db0:	b002      	add	sp, #8
10015db2:	4770      	bx	lr
10015db4:	f06f 0001 	mvn.w	r0, #1
10015db8:	e7f4      	b.n	10015da4 <__ascii_mbtowc+0x14>
10015dba:	bf00      	nop

10015dbc <abort>:
10015dbc:	b508      	push	{r3, lr}
10015dbe:	2006      	movs	r0, #6
10015dc0:	f000 f9c4 	bl	1001614c <raise>
10015dc4:	2001      	movs	r0, #1
10015dc6:	f001 f81d 	bl	10016e04 <_exit>
10015dca:	bf00      	nop

10015dcc <_calloc_r>:
10015dcc:	b538      	push	{r3, r4, r5, lr}
10015dce:	fba1 1402 	umull	r1, r4, r1, r2
10015dd2:	bb54      	cbnz	r4, 10015e2a <_calloc_r+0x5e>
10015dd4:	f7fd fc00 	bl	100135d8 <_malloc_r>
10015dd8:	4605      	mov	r5, r0
10015dda:	b350      	cbz	r0, 10015e32 <_calloc_r+0x66>
10015ddc:	f850 2c04 	ldr.w	r2, [r0, #-4]
10015de0:	f022 0203 	bic.w	r2, r2, #3
10015de4:	3a04      	subs	r2, #4
10015de6:	2a24      	cmp	r2, #36	@ 0x24
10015de8:	d810      	bhi.n	10015e0c <_calloc_r+0x40>
10015dea:	2a13      	cmp	r2, #19
10015dec:	d913      	bls.n	10015e16 <_calloc_r+0x4a>
10015dee:	2a1b      	cmp	r2, #27
10015df0:	e9c0 4400 	strd	r4, r4, [r0]
10015df4:	d916      	bls.n	10015e24 <_calloc_r+0x58>
10015df6:	2a24      	cmp	r2, #36	@ 0x24
10015df8:	e9c0 4402 	strd	r4, r4, [r0, #8]
10015dfc:	bf0a      	itet	eq
10015dfe:	e9c0 4404 	strdeq	r4, r4, [r0, #16]
10015e02:	f100 0210 	addne.w	r2, r0, #16
10015e06:	f100 0218 	addeq.w	r2, r0, #24
10015e0a:	e005      	b.n	10015e18 <_calloc_r+0x4c>
10015e0c:	4621      	mov	r1, r4
10015e0e:	f7fa f803 	bl	1000fe18 <memset>
10015e12:	4628      	mov	r0, r5
10015e14:	bd38      	pop	{r3, r4, r5, pc}
10015e16:	4602      	mov	r2, r0
10015e18:	2300      	movs	r3, #0
10015e1a:	e9c2 3300 	strd	r3, r3, [r2]
10015e1e:	6093      	str	r3, [r2, #8]
10015e20:	4628      	mov	r0, r5
10015e22:	bd38      	pop	{r3, r4, r5, pc}
10015e24:	f100 0208 	add.w	r2, r0, #8
10015e28:	e7f6      	b.n	10015e18 <_calloc_r+0x4c>
10015e2a:	f7fa f915 	bl	10010058 <__errno>
10015e2e:	230c      	movs	r3, #12
10015e30:	6003      	str	r3, [r0, #0]
10015e32:	2500      	movs	r5, #0
10015e34:	4628      	mov	r0, r5
10015e36:	bd38      	pop	{r3, r4, r5, pc}

10015e38 <__ssputs_r>:
10015e38:	e92d 47f0 	stmdb	sp!, {r4, r5, r6, r7, r8, r9, sl, lr}
10015e3c:	688f      	ldr	r7, [r1, #8]
10015e3e:	461d      	mov	r5, r3
10015e40:	42af      	cmp	r7, r5
10015e42:	680b      	ldr	r3, [r1, #0]
10015e44:	460c      	mov	r4, r1
10015e46:	4616      	mov	r6, r2
10015e48:	d836      	bhi.n	10015eb8 <__ssputs_r+0x80>
10015e4a:	f9b1 c00c 	ldrsh.w	ip, [r1, #12]
10015e4e:	f41c 6f90 	tst.w	ip, #1152	@ 0x480
10015e52:	d10e      	bne.n	10015e72 <__ssputs_r+0x3a>
10015e54:	463d      	mov	r5, r7
10015e56:	4618      	mov	r0, r3
10015e58:	4631      	mov	r1, r6
10015e5a:	462a      	mov	r2, r5
10015e5c:	f7fd fb3c 	bl	100134d8 <memmove>
10015e60:	68a3      	ldr	r3, [r4, #8]
10015e62:	1bdf      	subs	r7, r3, r7
10015e64:	6823      	ldr	r3, [r4, #0]
10015e66:	60a7      	str	r7, [r4, #8]
10015e68:	442b      	add	r3, r5
10015e6a:	2000      	movs	r0, #0
10015e6c:	6023      	str	r3, [r4, #0]
10015e6e:	e8bd 87f0 	ldmia.w	sp!, {r4, r5, r6, r7, r8, r9, sl, pc}
10015e72:	694a      	ldr	r2, [r1, #20]
10015e74:	6909      	ldr	r1, [r1, #16]
10015e76:	eb02 0242 	add.w	r2, r2, r2, lsl #1
10015e7a:	1a5f      	subs	r7, r3, r1
10015e7c:	eb02 72d2 	add.w	r2, r2, r2, lsr #31
10015e80:	1c6b      	adds	r3, r5, #1
10015e82:	1052      	asrs	r2, r2, #1
10015e84:	443b      	add	r3, r7
10015e86:	4293      	cmp	r3, r2
10015e88:	bf92      	itee	ls
10015e8a:	4691      	movls	r9, r2
10015e8c:	4699      	movhi	r9, r3
10015e8e:	461a      	movhi	r2, r3
10015e90:	f41c 6f80 	tst.w	ip, #1024	@ 0x400
10015e94:	4680      	mov	r8, r0
10015e96:	d011      	beq.n	10015ebc <__ssputs_r+0x84>
10015e98:	4611      	mov	r1, r2
10015e9a:	f7fd fb9d 	bl	100135d8 <_malloc_r>
10015e9e:	4682      	mov	sl, r0
10015ea0:	b300      	cbz	r0, 10015ee4 <__ssputs_r+0xac>
10015ea2:	6921      	ldr	r1, [r4, #16]
10015ea4:	463a      	mov	r2, r7
10015ea6:	f7fa fa35 	bl	10010314 <memcpy>
10015eaa:	89a3      	ldrh	r3, [r4, #12]
10015eac:	f423 6390 	bic.w	r3, r3, #1152	@ 0x480
10015eb0:	f043 0380 	orr.w	r3, r3, #128	@ 0x80
10015eb4:	81a3      	strh	r3, [r4, #12]
10015eb6:	e005      	b.n	10015ec4 <__ssputs_r+0x8c>
10015eb8:	462f      	mov	r7, r5
10015eba:	e7cc      	b.n	10015e56 <__ssputs_r+0x1e>
10015ebc:	f7fe ff44 	bl	10014d48 <_realloc_r>
10015ec0:	4682      	mov	sl, r0
10015ec2:	b158      	cbz	r0, 10015edc <__ssputs_r+0xa4>
10015ec4:	eb0a 0307 	add.w	r3, sl, r7
10015ec8:	eba9 0707 	sub.w	r7, r9, r7
10015ecc:	60a7      	str	r7, [r4, #8]
10015ece:	f8c4 a010 	str.w	sl, [r4, #16]
10015ed2:	f8c4 9014 	str.w	r9, [r4, #20]
10015ed6:	6023      	str	r3, [r4, #0]
10015ed8:	462f      	mov	r7, r5
10015eda:	e7bc      	b.n	10015e56 <__ssputs_r+0x1e>
10015edc:	6921      	ldr	r1, [r4, #16]
10015ede:	4640      	mov	r0, r8
10015ee0:	f7fa f91c 	bl	1001011c <_free_r>
10015ee4:	89a3      	ldrh	r3, [r4, #12]
10015ee6:	220c      	movs	r2, #12
10015ee8:	f043 0340 	orr.w	r3, r3, #64	@ 0x40
10015eec:	f8c8 2000 	str.w	r2, [r8]
10015ef0:	f04f 30ff 	mov.w	r0, #4294967295	@ 0xffffffff
10015ef4:	81a3      	strh	r3, [r4, #12]
10015ef6:	e7ba      	b.n	10015e6e <__ssputs_r+0x36>

10015ef8 <_read_r>:
10015ef8:	b538      	push	{r3, r4, r5, lr}
10015efa:	460c      	mov	r4, r1
10015efc:	4d08      	ldr	r5, [pc, #32]	@ (10015f20 <_read_r+0x28>)
10015efe:	4684      	mov	ip, r0
10015f00:	4611      	mov	r1, r2
10015f02:	4620      	mov	r0, r4
10015f04:	461a      	mov	r2, r3
10015f06:	2300      	movs	r3, #0
10015f08:	602b      	str	r3, [r5, #0]
10015f0a:	4664      	mov	r4, ip
10015f0c:	f7f8 fde2 	bl	1000ead4 <_read>
10015f10:	1c43      	adds	r3, r0, #1
10015f12:	d000      	beq.n	10015f16 <_read_r+0x1e>
10015f14:	bd38      	pop	{r3, r4, r5, pc}
10015f16:	682b      	ldr	r3, [r5, #0]
10015f18:	2b00      	cmp	r3, #0
10015f1a:	d0fb      	beq.n	10015f14 <_read_r+0x1c>
10015f1c:	6023      	str	r3, [r4, #0]
10015f1e:	bd38      	pop	{r3, r4, r5, pc}
10015f20:	200015a8 	.word	0x200015a8

10015f24 <_fiprintf_r>:
10015f24:	b40c      	push	{r2, r3}
10015f26:	b500      	push	{lr}
10015f28:	b083      	sub	sp, #12
10015f2a:	ab04      	add	r3, sp, #16
10015f2c:	f853 2b04 	ldr.w	r2, [r3], #4
10015f30:	9301      	str	r3, [sp, #4]
10015f32:	f000 f9c7 	bl	100162c4 <_vfiprintf_r>
10015f36:	b003      	add	sp, #12
10015f38:	f85d eb04 	ldr.w	lr, [sp], #4
10015f3c:	b002      	add	sp, #8
10015f3e:	4770      	bx	lr

10015f40 <fiprintf>:
10015f40:	b40e      	push	{r1, r2, r3}
10015f42:	b510      	push	{r4, lr}
10015f44:	b083      	sub	sp, #12
10015f46:	ab05      	add	r3, sp, #20
10015f48:	4c06      	ldr	r4, [pc, #24]	@ (10015f64 <fiprintf+0x24>)
10015f4a:	f853 2b04 	ldr.w	r2, [r3], #4
10015f4e:	9301      	str	r3, [sp, #4]
10015f50:	4601      	mov	r1, r0
10015f52:	6820      	ldr	r0, [r4, #0]
10015f54:	f000 f9b6 	bl	100162c4 <_vfiprintf_r>
10015f58:	b003      	add	sp, #12
10015f5a:	e8bd 4010 	ldmia.w	sp!, {r4, lr}
10015f5e:	b003      	add	sp, #12
10015f60:	4770      	bx	lr
10015f62:	bf00      	nop
10015f64:	20000010 	.word	0x20000010

10015f68 <_wctomb_r>:
10015f68:	b410      	push	{r4}
10015f6a:	4c03      	ldr	r4, [pc, #12]	@ (10015f78 <_wctomb_r+0x10>)
10015f6c:	f8d4 40e0 	ldr.w	r4, [r4, #224]	@ 0xe0
10015f70:	46a4      	mov	ip, r4
10015f72:	bc10      	pop	{r4}
10015f74:	4760      	bx	ip
10015f76:	bf00      	nop
10015f78:	20000558 	.word	0x20000558

10015f7c <__ascii_wctomb>:
10015f7c:	b149      	cbz	r1, 10015f92 <__ascii_wctomb+0x16>
10015f7e:	2aff      	cmp	r2, #255	@ 0xff
10015f80:	d802      	bhi.n	10015f88 <__ascii_wctomb+0xc>
10015f82:	700a      	strb	r2, [r1, #0]
10015f84:	2001      	movs	r0, #1
10015f86:	4770      	bx	lr
10015f88:	238a      	movs	r3, #138	@ 0x8a
10015f8a:	6003      	str	r3, [r0, #0]
10015f8c:	f04f 30ff 	mov.w	r0, #4294967295	@ 0xffffffff
10015f90:	4770      	bx	lr
10015f92:	4608      	mov	r0, r1
10015f94:	4770      	bx	lr
10015f96:	bf00      	nop

10015f98 <_lseek_r>:
10015f98:	b538      	push	{r3, r4, r5, lr}
10015f9a:	460c      	mov	r4, r1
10015f9c:	4d08      	ldr	r5, [pc, #32]	@ (10015fc0 <_lseek_r+0x28>)
10015f9e:	4684      	mov	ip, r0
10015fa0:	4611      	mov	r1, r2
10015fa2:	4620      	mov	r0, r4
10015fa4:	461a      	mov	r2, r3
10015fa6:	2300      	movs	r3, #0
10015fa8:	602b      	str	r3, [r5, #0]
10015faa:	4664      	mov	r4, ip
10015fac:	f7f8 fd8a 	bl	1000eac4 <_lseek>
10015fb0:	1c43      	adds	r3, r0, #1
10015fb2:	d000      	beq.n	10015fb6 <_lseek_r+0x1e>
10015fb4:	bd38      	pop	{r3, r4, r5, pc}
10015fb6:	682b      	ldr	r3, [r5, #0]
10015fb8:	2b00      	cmp	r3, #0
10015fba:	d0fb      	beq.n	10015fb4 <_lseek_r+0x1c>
10015fbc:	6023      	str	r3, [r4, #0]
10015fbe:	bd38      	pop	{r3, r4, r5, pc}
10015fc0:	200015a8 	.word	0x200015a8

10015fc4 <_fstat_r>:
10015fc4:	b570      	push	{r4, r5, r6, lr}
10015fc6:	460c      	mov	r4, r1
10015fc8:	4d08      	ldr	r5, [pc, #32]	@ (10015fec <_fstat_r+0x28>)
10015fca:	4603      	mov	r3, r0
10015fcc:	2600      	movs	r6, #0
10015fce:	4620      	mov	r0, r4
10015fd0:	4611      	mov	r1, r2
10015fd2:	461c      	mov	r4, r3
10015fd4:	602e      	str	r6, [r5, #0]
10015fd6:	f7f8 fd79 	bl	1000eacc <_fstat>
10015fda:	1c43      	adds	r3, r0, #1
10015fdc:	d000      	beq.n	10015fe0 <_fstat_r+0x1c>
10015fde:	bd70      	pop	{r4, r5, r6, pc}
10015fe0:	682b      	ldr	r3, [r5, #0]
10015fe2:	2b00      	cmp	r3, #0
10015fe4:	d0fb      	beq.n	10015fde <_fstat_r+0x1a>
10015fe6:	6023      	str	r3, [r4, #0]
10015fe8:	bd70      	pop	{r4, r5, r6, pc}
10015fea:	bf00      	nop
10015fec:	200015a8 	.word	0x200015a8

10015ff0 <_isatty_r>:
10015ff0:	b538      	push	{r3, r4, r5, lr}
10015ff2:	4d07      	ldr	r5, [pc, #28]	@ (10016010 <_isatty_r+0x20>)
10015ff4:	2200      	movs	r2, #0
10015ff6:	4604      	mov	r4, r0
10015ff8:	4608      	mov	r0, r1
10015ffa:	602a      	str	r2, [r5, #0]
10015ffc:	f7f8 fd5e 	bl	1000eabc <_isatty>
10016000:	1c43      	adds	r3, r0, #1
10016002:	d000      	beq.n	10016006 <_isatty_r+0x16>
10016004:	bd38      	pop	{r3, r4, r5, pc}
10016006:	682b      	ldr	r3, [r5, #0]
10016008:	2b00      	cmp	r3, #0
1001600a:	d0fb      	beq.n	10016004 <_isatty_r+0x14>
1001600c:	6023      	str	r3, [r4, #0]
1001600e:	bd38      	pop	{r3, r4, r5, pc}
10016010:	200015a8 	.word	0x200015a8

10016014 <_init_signal_r>:
10016014:	b538      	push	{r3, r4, r5, lr}
10016016:	f8d0 4118 	ldr.w	r4, [r0, #280]	@ 0x118
1001601a:	b10c      	cbz	r4, 10016020 <_init_signal_r+0xc>
1001601c:	2000      	movs	r0, #0
1001601e:	bd38      	pop	{r3, r4, r5, pc}
10016020:	2180      	movs	r1, #128	@ 0x80
10016022:	4605      	mov	r5, r0
10016024:	f7fd fad8 	bl	100135d8 <_malloc_r>
10016028:	4602      	mov	r2, r0
1001602a:	f8c5 0118 	str.w	r0, [r5, #280]	@ 0x118
1001602e:	b130      	cbz	r0, 1001603e <_init_signal_r+0x2a>
10016030:	1f03      	subs	r3, r0, #4
10016032:	327c      	adds	r2, #124	@ 0x7c
10016034:	f843 4f04 	str.w	r4, [r3, #4]!
10016038:	4293      	cmp	r3, r2
1001603a:	d1fb      	bne.n	10016034 <_init_signal_r+0x20>
1001603c:	e7ee      	b.n	1001601c <_init_signal_r+0x8>
1001603e:	f04f 30ff 	mov.w	r0, #4294967295	@ 0xffffffff
10016042:	bd38      	pop	{r3, r4, r5, pc}

10016044 <_signal_r>:
10016044:	b530      	push	{r4, r5, lr}
10016046:	291f      	cmp	r1, #31
10016048:	b083      	sub	sp, #12
1001604a:	4605      	mov	r5, r0
1001604c:	d809      	bhi.n	10016062 <_signal_r+0x1e>
1001604e:	f8d0 3118 	ldr.w	r3, [r0, #280]	@ 0x118
10016052:	460c      	mov	r4, r1
10016054:	b153      	cbz	r3, 1001606c <_signal_r+0x28>
10016056:	f853 0024 	ldr.w	r0, [r3, r4, lsl #2]
1001605a:	f843 2024 	str.w	r2, [r3, r4, lsl #2]
1001605e:	b003      	add	sp, #12
10016060:	bd30      	pop	{r4, r5, pc}
10016062:	2316      	movs	r3, #22
10016064:	6003      	str	r3, [r0, #0]
10016066:	f04f 30ff 	mov.w	r0, #4294967295	@ 0xffffffff
1001606a:	e7f8      	b.n	1001605e <_signal_r+0x1a>
1001606c:	2180      	movs	r1, #128	@ 0x80
1001606e:	9201      	str	r2, [sp, #4]
10016070:	f7fd fab2 	bl	100135d8 <_malloc_r>
10016074:	9a01      	ldr	r2, [sp, #4]
10016076:	f8c5 0118 	str.w	r0, [r5, #280]	@ 0x118
1001607a:	4603      	mov	r3, r0
1001607c:	2800      	cmp	r0, #0
1001607e:	d0f2      	beq.n	10016066 <_signal_r+0x22>
10016080:	1f01      	subs	r1, r0, #4
10016082:	f100 057c 	add.w	r5, r0, #124	@ 0x7c
10016086:	2000      	movs	r0, #0
10016088:	f841 0f04 	str.w	r0, [r1, #4]!
1001608c:	42a9      	cmp	r1, r5
1001608e:	d1fb      	bne.n	10016088 <_signal_r+0x44>
10016090:	e7e1      	b.n	10016056 <_signal_r+0x12>
10016092:	bf00      	nop

10016094 <_raise_r>:
10016094:	291f      	cmp	r1, #31
10016096:	b538      	push	{r3, r4, r5, lr}
10016098:	4605      	mov	r5, r0
1001609a:	d81f      	bhi.n	100160dc <_raise_r+0x48>
1001609c:	f8d0 2118 	ldr.w	r2, [r0, #280]	@ 0x118
100160a0:	460c      	mov	r4, r1
100160a2:	b16a      	cbz	r2, 100160c0 <_raise_r+0x2c>
100160a4:	f852 3021 	ldr.w	r3, [r2, r1, lsl #2]
100160a8:	b153      	cbz	r3, 100160c0 <_raise_r+0x2c>
100160aa:	2b01      	cmp	r3, #1
100160ac:	d006      	beq.n	100160bc <_raise_r+0x28>
100160ae:	1c59      	adds	r1, r3, #1
100160b0:	d010      	beq.n	100160d4 <_raise_r+0x40>
100160b2:	2100      	movs	r1, #0
100160b4:	f842 1024 	str.w	r1, [r2, r4, lsl #2]
100160b8:	4620      	mov	r0, r4
100160ba:	4798      	blx	r3
100160bc:	2000      	movs	r0, #0
100160be:	bd38      	pop	{r3, r4, r5, pc}
100160c0:	4628      	mov	r0, r5
100160c2:	f000 f8fd 	bl	100162c0 <_getpid_r>
100160c6:	4622      	mov	r2, r4
100160c8:	4601      	mov	r1, r0
100160ca:	4628      	mov	r0, r5
100160cc:	e8bd 4038 	ldmia.w	sp!, {r3, r4, r5, lr}
100160d0:	f000 b8e0 	b.w	10016294 <_kill_r>
100160d4:	2316      	movs	r3, #22
100160d6:	6003      	str	r3, [r0, #0]
100160d8:	2001      	movs	r0, #1
100160da:	bd38      	pop	{r3, r4, r5, pc}
100160dc:	2316      	movs	r3, #22
100160de:	6003      	str	r3, [r0, #0]
100160e0:	f04f 30ff 	mov.w	r0, #4294967295	@ 0xffffffff
100160e4:	bd38      	pop	{r3, r4, r5, pc}
100160e6:	bf00      	nop

100160e8 <__sigtramp_r>:
100160e8:	291f      	cmp	r1, #31
100160ea:	d82c      	bhi.n	10016146 <__sigtramp_r+0x5e>
100160ec:	b538      	push	{r3, r4, r5, lr}
100160ee:	f8d0 3118 	ldr.w	r3, [r0, #280]	@ 0x118
100160f2:	460c      	mov	r4, r1
100160f4:	4605      	mov	r5, r0
100160f6:	b1a3      	cbz	r3, 10016122 <__sigtramp_r+0x3a>
100160f8:	f853 2024 	ldr.w	r2, [r3, r4, lsl #2]
100160fc:	eb03 0384 	add.w	r3, r3, r4, lsl #2
10016100:	b14a      	cbz	r2, 10016116 <__sigtramp_r+0x2e>
10016102:	1c51      	adds	r1, r2, #1
10016104:	d00b      	beq.n	1001611e <__sigtramp_r+0x36>
10016106:	2a01      	cmp	r2, #1
10016108:	d007      	beq.n	1001611a <__sigtramp_r+0x32>
1001610a:	2500      	movs	r5, #0
1001610c:	4620      	mov	r0, r4
1001610e:	601d      	str	r5, [r3, #0]
10016110:	4790      	blx	r2
10016112:	4628      	mov	r0, r5
10016114:	bd38      	pop	{r3, r4, r5, pc}
10016116:	2001      	movs	r0, #1
10016118:	bd38      	pop	{r3, r4, r5, pc}
1001611a:	2003      	movs	r0, #3
1001611c:	bd38      	pop	{r3, r4, r5, pc}
1001611e:	2002      	movs	r0, #2
10016120:	bd38      	pop	{r3, r4, r5, pc}
10016122:	2180      	movs	r1, #128	@ 0x80
10016124:	f7fd fa58 	bl	100135d8 <_malloc_r>
10016128:	4603      	mov	r3, r0
1001612a:	f8c5 0118 	str.w	r0, [r5, #280]	@ 0x118
1001612e:	b138      	cbz	r0, 10016140 <__sigtramp_r+0x58>
10016130:	1f02      	subs	r2, r0, #4
10016132:	2100      	movs	r1, #0
10016134:	307c      	adds	r0, #124	@ 0x7c
10016136:	f842 1f04 	str.w	r1, [r2, #4]!
1001613a:	4282      	cmp	r2, r0
1001613c:	d1fb      	bne.n	10016136 <__sigtramp_r+0x4e>
1001613e:	e7db      	b.n	100160f8 <__sigtramp_r+0x10>
10016140:	f04f 30ff 	mov.w	r0, #4294967295	@ 0xffffffff
10016144:	bd38      	pop	{r3, r4, r5, pc}
10016146:	f04f 30ff 	mov.w	r0, #4294967295	@ 0xffffffff
1001614a:	4770      	bx	lr

1001614c <raise>:
1001614c:	b538      	push	{r3, r4, r5, lr}
1001614e:	4b14      	ldr	r3, [pc, #80]	@ (100161a0 <raise+0x54>)
10016150:	281f      	cmp	r0, #31
10016152:	681d      	ldr	r5, [r3, #0]
10016154:	d81e      	bhi.n	10016194 <raise+0x48>
10016156:	f8d5 2118 	ldr.w	r2, [r5, #280]	@ 0x118
1001615a:	4604      	mov	r4, r0
1001615c:	b162      	cbz	r2, 10016178 <raise+0x2c>
1001615e:	f852 3020 	ldr.w	r3, [r2, r0, lsl #2]
10016162:	b14b      	cbz	r3, 10016178 <raise+0x2c>
10016164:	2b01      	cmp	r3, #1
10016166:	d005      	beq.n	10016174 <raise+0x28>
10016168:	1c59      	adds	r1, r3, #1
1001616a:	d00f      	beq.n	1001618c <raise+0x40>
1001616c:	2100      	movs	r1, #0
1001616e:	f842 1020 	str.w	r1, [r2, r0, lsl #2]
10016172:	4798      	blx	r3
10016174:	2000      	movs	r0, #0
10016176:	bd38      	pop	{r3, r4, r5, pc}
10016178:	4628      	mov	r0, r5
1001617a:	f000 f8a1 	bl	100162c0 <_getpid_r>
1001617e:	4622      	mov	r2, r4
10016180:	4601      	mov	r1, r0
10016182:	4628      	mov	r0, r5
10016184:	e8bd 4038 	ldmia.w	sp!, {r3, r4, r5, lr}
10016188:	f000 b884 	b.w	10016294 <_kill_r>
1001618c:	2316      	movs	r3, #22
1001618e:	602b      	str	r3, [r5, #0]
10016190:	2001      	movs	r0, #1
10016192:	bd38      	pop	{r3, r4, r5, pc}
10016194:	2316      	movs	r3, #22
10016196:	602b      	str	r3, [r5, #0]
10016198:	f04f 30ff 	mov.w	r0, #4294967295	@ 0xffffffff
1001619c:	bd38      	pop	{r3, r4, r5, pc}
1001619e:	bf00      	nop
100161a0:	20000010 	.word	0x20000010

100161a4 <signal>:
100161a4:	4b12      	ldr	r3, [pc, #72]	@ (100161f0 <signal+0x4c>)
100161a6:	281f      	cmp	r0, #31
100161a8:	b570      	push	{r4, r5, r6, lr}
100161aa:	681e      	ldr	r6, [r3, #0]
100161ac:	d809      	bhi.n	100161c2 <signal+0x1e>
100161ae:	f8d6 3118 	ldr.w	r3, [r6, #280]	@ 0x118
100161b2:	4604      	mov	r4, r0
100161b4:	460d      	mov	r5, r1
100161b6:	b14b      	cbz	r3, 100161cc <signal+0x28>
100161b8:	f853 0024 	ldr.w	r0, [r3, r4, lsl #2]
100161bc:	f843 5024 	str.w	r5, [r3, r4, lsl #2]
100161c0:	bd70      	pop	{r4, r5, r6, pc}
100161c2:	2316      	movs	r3, #22
100161c4:	6033      	str	r3, [r6, #0]
100161c6:	f04f 30ff 	mov.w	r0, #4294967295	@ 0xffffffff
100161ca:	bd70      	pop	{r4, r5, r6, pc}
100161cc:	2180      	movs	r1, #128	@ 0x80
100161ce:	4630      	mov	r0, r6
100161d0:	f7fd fa02 	bl	100135d8 <_malloc_r>
100161d4:	4603      	mov	r3, r0
100161d6:	f8c6 0118 	str.w	r0, [r6, #280]	@ 0x118
100161da:	2800      	cmp	r0, #0
100161dc:	d0f3      	beq.n	100161c6 <signal+0x22>
100161de:	1f02      	subs	r2, r0, #4
100161e0:	2100      	movs	r1, #0
100161e2:	307c      	adds	r0, #124	@ 0x7c
100161e4:	f842 1f04 	str.w	r1, [r2, #4]!
100161e8:	4282      	cmp	r2, r0
100161ea:	d1fb      	bne.n	100161e4 <signal+0x40>
100161ec:	e7e4      	b.n	100161b8 <signal+0x14>
100161ee:	bf00      	nop
100161f0:	20000010 	.word	0x20000010

100161f4 <_init_signal>:
100161f4:	b538      	push	{r3, r4, r5, lr}
100161f6:	4b0c      	ldr	r3, [pc, #48]	@ (10016228 <_init_signal+0x34>)
100161f8:	681d      	ldr	r5, [r3, #0]
100161fa:	f8d5 4118 	ldr.w	r4, [r5, #280]	@ 0x118
100161fe:	b10c      	cbz	r4, 10016204 <_init_signal+0x10>
10016200:	2000      	movs	r0, #0
10016202:	bd38      	pop	{r3, r4, r5, pc}
10016204:	2180      	movs	r1, #128	@ 0x80
10016206:	4628      	mov	r0, r5
10016208:	f7fd f9e6 	bl	100135d8 <_malloc_r>
1001620c:	f8c5 0118 	str.w	r0, [r5, #280]	@ 0x118
10016210:	b138      	cbz	r0, 10016222 <_init_signal+0x2e>
10016212:	1f03      	subs	r3, r0, #4
10016214:	f100 027c 	add.w	r2, r0, #124	@ 0x7c
10016218:	f843 4f04 	str.w	r4, [r3, #4]!
1001621c:	4293      	cmp	r3, r2
1001621e:	d1fb      	bne.n	10016218 <_init_signal+0x24>
10016220:	e7ee      	b.n	10016200 <_init_signal+0xc>
10016222:	f04f 30ff 	mov.w	r0, #4294967295	@ 0xffffffff
10016226:	bd38      	pop	{r3, r4, r5, pc}
10016228:	20000010 	.word	0x20000010

1001622c <__sigtramp>:
1001622c:	b538      	push	{r3, r4, r5, lr}
1001622e:	4b18      	ldr	r3, [pc, #96]	@ (10016290 <__sigtramp+0x64>)
10016230:	281f      	cmp	r0, #31
10016232:	681d      	ldr	r5, [r3, #0]
10016234:	d828      	bhi.n	10016288 <__sigtramp+0x5c>
10016236:	4604      	mov	r4, r0
10016238:	f8d5 0118 	ldr.w	r0, [r5, #280]	@ 0x118
1001623c:	b1a0      	cbz	r0, 10016268 <__sigtramp+0x3c>
1001623e:	f850 3024 	ldr.w	r3, [r0, r4, lsl #2]
10016242:	eb00 0084 	add.w	r0, r0, r4, lsl #2
10016246:	b14b      	cbz	r3, 1001625c <__sigtramp+0x30>
10016248:	1c5a      	adds	r2, r3, #1
1001624a:	d00b      	beq.n	10016264 <__sigtramp+0x38>
1001624c:	2b01      	cmp	r3, #1
1001624e:	d007      	beq.n	10016260 <__sigtramp+0x34>
10016250:	2500      	movs	r5, #0
10016252:	6005      	str	r5, [r0, #0]
10016254:	4620      	mov	r0, r4
10016256:	4798      	blx	r3
10016258:	4628      	mov	r0, r5
1001625a:	bd38      	pop	{r3, r4, r5, pc}
1001625c:	2001      	movs	r0, #1
1001625e:	bd38      	pop	{r3, r4, r5, pc}
10016260:	2003      	movs	r0, #3
10016262:	bd38      	pop	{r3, r4, r5, pc}
10016264:	2002      	movs	r0, #2
10016266:	bd38      	pop	{r3, r4, r5, pc}
10016268:	2180      	movs	r1, #128	@ 0x80
1001626a:	4628      	mov	r0, r5
1001626c:	f7fd f9b4 	bl	100135d8 <_malloc_r>
10016270:	f8c5 0118 	str.w	r0, [r5, #280]	@ 0x118
10016274:	b140      	cbz	r0, 10016288 <__sigtramp+0x5c>
10016276:	1f03      	subs	r3, r0, #4
10016278:	f100 017c 	add.w	r1, r0, #124	@ 0x7c
1001627c:	2200      	movs	r2, #0
1001627e:	f843 2f04 	str.w	r2, [r3, #4]!
10016282:	428b      	cmp	r3, r1
10016284:	d1fb      	bne.n	1001627e <__sigtramp+0x52>
10016286:	e7da      	b.n	1001623e <__sigtramp+0x12>
10016288:	f04f 30ff 	mov.w	r0, #4294967295	@ 0xffffffff
1001628c:	bd38      	pop	{r3, r4, r5, pc}
1001628e:	bf00      	nop
10016290:	20000010 	.word	0x20000010

10016294 <_kill_r>:
10016294:	b570      	push	{r4, r5, r6, lr}
10016296:	460c      	mov	r4, r1
10016298:	4d08      	ldr	r5, [pc, #32]	@ (100162bc <_kill_r+0x28>)
1001629a:	4603      	mov	r3, r0
1001629c:	2600      	movs	r6, #0
1001629e:	4620      	mov	r0, r4
100162a0:	4611      	mov	r1, r2
100162a2:	461c      	mov	r4, r3
100162a4:	602e      	str	r6, [r5, #0]
100162a6:	f7f8 fd87 	bl	1000edb8 <_kill>
100162aa:	1c43      	adds	r3, r0, #1
100162ac:	d000      	beq.n	100162b0 <_kill_r+0x1c>
100162ae:	bd70      	pop	{r4, r5, r6, pc}
100162b0:	682b      	ldr	r3, [r5, #0]
100162b2:	2b00      	cmp	r3, #0
100162b4:	d0fb      	beq.n	100162ae <_kill_r+0x1a>
100162b6:	6023      	str	r3, [r4, #0]
100162b8:	bd70      	pop	{r4, r5, r6, pc}
100162ba:	bf00      	nop
100162bc:	200015a8 	.word	0x200015a8

100162c0 <_getpid_r>:
100162c0:	f7f8 bd76 	b.w	1000edb0 <_getpid>

100162c4 <_vfiprintf_r>:
100162c4:	e92d 4ff0 	stmdb	sp!, {r4, r5, r6, r7, r8, r9, sl, fp, lr}
100162c8:	b0ad      	sub	sp, #180	@ 0xb4
100162ca:	e9cd 3007 	strd	r3, r0, [sp, #28]
100162ce:	461c      	mov	r4, r3
100162d0:	9102      	str	r1, [sp, #8]
100162d2:	4693      	mov	fp, r2
100162d4:	b118      	cbz	r0, 100162de <_vfiprintf_r+0x1a>
100162d6:	6b43      	ldr	r3, [r0, #52]	@ 0x34
100162d8:	2b00      	cmp	r3, #0
100162da:	f000 8503 	beq.w	10016ce4 <_vfiprintf_r+0xa20>
100162de:	9902      	ldr	r1, [sp, #8]
100162e0:	f9b1 200c 	ldrsh.w	r2, [r1, #12]
100162e4:	6e4b      	ldr	r3, [r1, #100]	@ 0x64
100162e6:	0495      	lsls	r5, r2, #18
100162e8:	d405      	bmi.n	100162f6 <_vfiprintf_r+0x32>
100162ea:	f442 5200 	orr.w	r2, r2, #8192	@ 0x2000
100162ee:	f423 5300 	bic.w	r3, r3, #8192	@ 0x2000
100162f2:	818a      	strh	r2, [r1, #12]
100162f4:	664b      	str	r3, [r1, #100]	@ 0x64
100162f6:	0498      	lsls	r0, r3, #18
100162f8:	f100 8524 	bmi.w	10016d44 <_vfiprintf_r+0xa80>
100162fc:	9b02      	ldr	r3, [sp, #8]
100162fe:	f9b3 200c 	ldrsh.w	r2, [r3, #12]
10016302:	0711      	lsls	r1, r2, #28
10016304:	f140 80d3 	bpl.w	100164ae <_vfiprintf_r+0x1ea>
10016308:	691b      	ldr	r3, [r3, #16]
1001630a:	2b00      	cmp	r3, #0
1001630c:	f000 80cf 	beq.w	100164ae <_vfiprintf_r+0x1ea>
10016310:	f002 021a 	and.w	r2, r2, #26
10016314:	2a0a      	cmp	r2, #10
10016316:	f000 80d9 	beq.w	100164cc <_vfiprintf_r+0x208>
1001631a:	2300      	movs	r3, #0
1001631c:	e9cd 3310 	strd	r3, r3, [sp, #64]	@ 0x40
10016320:	f10d 0970 	add.w	r9, sp, #112	@ 0x70
10016324:	f8cd 903c 	str.w	r9, [sp, #60]	@ 0x3c
10016328:	9309      	str	r3, [sp, #36]	@ 0x24
1001632a:	46ca      	mov	sl, r9
1001632c:	9305      	str	r3, [sp, #20]
1001632e:	f89b 3000 	ldrb.w	r3, [fp]
10016332:	2b00      	cmp	r3, #0
10016334:	f000 80f4 	beq.w	10016520 <_vfiprintf_r+0x25c>
10016338:	465c      	mov	r4, fp
1001633a:	e004      	b.n	10016346 <_vfiprintf_r+0x82>
1001633c:	f814 3f01 	ldrb.w	r3, [r4, #1]!
10016340:	2b00      	cmp	r3, #0
10016342:	f000 80d2 	beq.w	100164ea <_vfiprintf_r+0x226>
10016346:	2b25      	cmp	r3, #37	@ 0x25
10016348:	d1f8      	bne.n	1001633c <_vfiprintf_r+0x78>
1001634a:	ebb4 050b 	subs.w	r5, r4, fp
1001634e:	f040 80cf 	bne.w	100164f0 <_vfiprintf_r+0x22c>
10016352:	7823      	ldrb	r3, [r4, #0]
10016354:	2b00      	cmp	r3, #0
10016356:	f000 80e3 	beq.w	10016520 <_vfiprintf_r+0x25c>
1001635a:	f04f 0300 	mov.w	r3, #0
1001635e:	f88d 3037 	strb.w	r3, [sp, #55]	@ 0x37
10016362:	f04f 32ff 	mov.w	r2, #4294967295	@ 0xffffffff
10016366:	2300      	movs	r3, #0
10016368:	e9cd 2303 	strd	r2, r3, [sp, #12]
1001636c:	7861      	ldrb	r1, [r4, #1]
1001636e:	f104 0b01 	add.w	fp, r4, #1
10016372:	4698      	mov	r8, r3
10016374:	f10b 0b01 	add.w	fp, fp, #1
10016378:	f1a1 0320 	sub.w	r3, r1, #32
1001637c:	2b58      	cmp	r3, #88	@ 0x58
1001637e:	f200 80dc 	bhi.w	1001653a <_vfiprintf_r+0x276>
10016382:	e8df f013 	tbh	[pc, r3, lsl #1]
10016386:	01b2      	.short	0x01b2
10016388:	00da00da 	.word	0x00da00da
1001638c:	00da01ad 	.word	0x00da01ad
10016390:	00da00da 	.word	0x00da00da
10016394:	00da00da 	.word	0x00da00da
10016398:	017600da 	.word	0x017600da
1001639c:	00da01a7 	.word	0x00da01a7
100163a0:	01860181 	.word	0x01860181
100163a4:	01a200da 	.word	0x01a200da
100163a8:	00590059 	.word	0x00590059
100163ac:	00590059 	.word	0x00590059
100163b0:	00590059 	.word	0x00590059
100163b4:	00590059 	.word	0x00590059
100163b8:	00da0059 	.word	0x00da0059
100163bc:	00da00da 	.word	0x00da00da
100163c0:	00da00da 	.word	0x00da00da
100163c4:	00da00da 	.word	0x00da00da
100163c8:	00da00da 	.word	0x00da00da
100163cc:	006800da 	.word	0x006800da
100163d0:	00da00da 	.word	0x00da00da
100163d4:	00da00da 	.word	0x00da00da
100163d8:	00da00da 	.word	0x00da00da
100163dc:	00da00da 	.word	0x00da00da
100163e0:	00da00da 	.word	0x00da00da
100163e4:	00da0219 	.word	0x00da0219
100163e8:	00da00da 	.word	0x00da00da
100163ec:	00da00da 	.word	0x00da00da
100163f0:	00da01ea 	.word	0x00da01ea
100163f4:	041d00da 	.word	0x041d00da
100163f8:	00da00da 	.word	0x00da00da
100163fc:	00da00da 	.word	0x00da00da
10016400:	00da00da 	.word	0x00da00da
10016404:	00da00da 	.word	0x00da00da
10016408:	00da00da 	.word	0x00da00da
1001640c:	006a01dd 	.word	0x006a01dd
10016410:	00da00da 	.word	0x00da00da
10016414:	01d800da 	.word	0x01d800da
10016418:	00da006a 	.word	0x00da006a
1001641c:	01cb00da 	.word	0x01cb00da
10016420:	01bd00da 	.word	0x01bd00da
10016424:	027f041b 	.word	0x027f041b
10016428:	00da027a 	.word	0x00da027a
1001642c:	00da0259 	.word	0x00da0259
10016430:	00da0419 	.word	0x00da0419
10016434:	044200da 	.word	0x044200da
10016438:	f1a1 0330 	sub.w	r3, r1, #48	@ 0x30
1001643c:	2200      	movs	r2, #0
1001643e:	f81b 1b01 	ldrb.w	r1, [fp], #1
10016442:	eb02 0282 	add.w	r2, r2, r2, lsl #2
10016446:	eb03 0242 	add.w	r2, r3, r2, lsl #1
1001644a:	f1a1 0330 	sub.w	r3, r1, #48	@ 0x30
1001644e:	2b09      	cmp	r3, #9
10016450:	d9f5      	bls.n	1001643e <_vfiprintf_r+0x17a>
10016452:	9204      	str	r2, [sp, #16]
10016454:	e790      	b.n	10016378 <_vfiprintf_r+0xb4>
10016456:	f048 0810 	orr.w	r8, r8, #16
1001645a:	f018 0f20 	tst.w	r8, #32
1001645e:	f000 80d7 	beq.w	10016610 <_vfiprintf_r+0x34c>
10016462:	9b07      	ldr	r3, [sp, #28]
10016464:	3307      	adds	r3, #7
10016466:	f023 0307 	bic.w	r3, r3, #7
1001646a:	461a      	mov	r2, r3
1001646c:	6859      	ldr	r1, [r3, #4]
1001646e:	f852 3b08 	ldr.w	r3, [r2], #8
10016472:	9207      	str	r2, [sp, #28]
10016474:	460a      	mov	r2, r1
10016476:	2900      	cmp	r1, #0
10016478:	f2c0 80de 	blt.w	10016638 <_vfiprintf_r+0x374>
1001647c:	9903      	ldr	r1, [sp, #12]
1001647e:	f89d 5037 	ldrb.w	r5, [sp, #55]	@ 0x37
10016482:	2900      	cmp	r1, #0
10016484:	f2c0 80e3 	blt.w	1001664e <_vfiprintf_r+0x38a>
10016488:	ea53 0102 	orrs.w	r1, r3, r2
1001648c:	f028 0880 	bic.w	r8, r8, #128	@ 0x80
10016490:	f040 80dd 	bne.w	1001664e <_vfiprintf_r+0x38a>
10016494:	9b03      	ldr	r3, [sp, #12]
10016496:	2b00      	cmp	r3, #0
10016498:	f040 8459 	bne.w	10016d4e <_vfiprintf_r+0xa8a>
1001649c:	9301      	str	r3, [sp, #4]
1001649e:	464c      	mov	r4, r9
100164a0:	2d00      	cmp	r5, #0
100164a2:	f000 81be 	beq.w	10016822 <_vfiprintf_r+0x55e>
100164a6:	9a01      	ldr	r2, [sp, #4]
100164a8:	3201      	adds	r2, #1
100164aa:	9201      	str	r2, [sp, #4]
100164ac:	e1b9      	b.n	10016822 <_vfiprintf_r+0x55e>
100164ae:	9d02      	ldr	r5, [sp, #8]
100164b0:	9808      	ldr	r0, [sp, #32]
100164b2:	4629      	mov	r1, r5
100164b4:	f7fe fb18 	bl	10014ae8 <__swsetup_r>
100164b8:	2800      	cmp	r0, #0
100164ba:	f040 8443 	bne.w	10016d44 <_vfiprintf_r+0xa80>
100164be:	f9b5 200c 	ldrsh.w	r2, [r5, #12]
100164c2:	f002 021a 	and.w	r2, r2, #26
100164c6:	2a0a      	cmp	r2, #10
100164c8:	f47f af27 	bne.w	1001631a <_vfiprintf_r+0x56>
100164cc:	9b02      	ldr	r3, [sp, #8]
100164ce:	f9b3 300e 	ldrsh.w	r3, [r3, #14]
100164d2:	2b00      	cmp	r3, #0
100164d4:	f6ff af21 	blt.w	1001631a <_vfiprintf_r+0x56>
100164d8:	9902      	ldr	r1, [sp, #8]
100164da:	9808      	ldr	r0, [sp, #32]
100164dc:	4623      	mov	r3, r4
100164de:	465a      	mov	r2, fp
100164e0:	b02d      	add	sp, #180	@ 0xb4
100164e2:	e8bd 4ff0 	ldmia.w	sp!, {r4, r5, r6, r7, r8, r9, sl, fp, lr}
100164e6:	f000 bc57 	b.w	10016d98 <__sbprintf>
100164ea:	ebb4 050b 	subs.w	r5, r4, fp
100164ee:	d017      	beq.n	10016520 <_vfiprintf_r+0x25c>
100164f0:	9b11      	ldr	r3, [sp, #68]	@ 0x44
100164f2:	442b      	add	r3, r5
100164f4:	9311      	str	r3, [sp, #68]	@ 0x44
100164f6:	9b10      	ldr	r3, [sp, #64]	@ 0x40
100164f8:	3301      	adds	r3, #1
100164fa:	2b07      	cmp	r3, #7
100164fc:	e9ca b500 	strd	fp, r5, [sl]
10016500:	9310      	str	r3, [sp, #64]	@ 0x40
10016502:	dc05      	bgt.n	10016510 <_vfiprintf_r+0x24c>
10016504:	f10a 0a08 	add.w	sl, sl, #8
10016508:	9b05      	ldr	r3, [sp, #20]
1001650a:	442b      	add	r3, r5
1001650c:	9305      	str	r3, [sp, #20]
1001650e:	e720      	b.n	10016352 <_vfiprintf_r+0x8e>
10016510:	9902      	ldr	r1, [sp, #8]
10016512:	9808      	ldr	r0, [sp, #32]
10016514:	aa0f      	add	r2, sp, #60	@ 0x3c
10016516:	f7fe fe0d 	bl	10015134 <__sprint_r>
1001651a:	b928      	cbnz	r0, 10016528 <_vfiprintf_r+0x264>
1001651c:	46ca      	mov	sl, r9
1001651e:	e7f3      	b.n	10016508 <_vfiprintf_r+0x244>
10016520:	9b11      	ldr	r3, [sp, #68]	@ 0x44
10016522:	2b00      	cmp	r3, #0
10016524:	f040 8400 	bne.w	10016d28 <_vfiprintf_r+0xa64>
10016528:	9b02      	ldr	r3, [sp, #8]
1001652a:	899b      	ldrh	r3, [r3, #12]
1001652c:	065b      	lsls	r3, r3, #25
1001652e:	f100 8409 	bmi.w	10016d44 <_vfiprintf_r+0xa80>
10016532:	9805      	ldr	r0, [sp, #20]
10016534:	b02d      	add	sp, #180	@ 0xb4
10016536:	e8bd 8ff0 	ldmia.w	sp!, {r4, r5, r6, r7, r8, r9, sl, fp, pc}
1001653a:	2900      	cmp	r1, #0
1001653c:	d0f0      	beq.n	10016520 <_vfiprintf_r+0x25c>
1001653e:	2300      	movs	r3, #0
10016540:	f88d 3037 	strb.w	r3, [sp, #55]	@ 0x37
10016544:	2301      	movs	r3, #1
10016546:	f88d 1048 	strb.w	r1, [sp, #72]	@ 0x48
1001654a:	9301      	str	r3, [sp, #4]
1001654c:	ac12      	add	r4, sp, #72	@ 0x48
1001654e:	2200      	movs	r2, #0
10016550:	9203      	str	r2, [sp, #12]
10016552:	9206      	str	r2, [sp, #24]
10016554:	f018 0784 	ands.w	r7, r8, #132	@ 0x84
10016558:	e9dd 2110 	ldrd	r2, r1, [sp, #64]	@ 0x40
1001655c:	d105      	bne.n	1001656a <_vfiprintf_r+0x2a6>
1001655e:	9804      	ldr	r0, [sp, #16]
10016560:	9d01      	ldr	r5, [sp, #4]
10016562:	1b45      	subs	r5, r0, r5
10016564:	2d00      	cmp	r5, #0
10016566:	f300 824f 	bgt.w	10016a08 <_vfiprintf_r+0x744>
1001656a:	f89d 0037 	ldrb.w	r0, [sp, #55]	@ 0x37
1001656e:	b180      	cbz	r0, 10016592 <_vfiprintf_r+0x2ce>
10016570:	3201      	adds	r2, #1
10016572:	f10d 0037 	add.w	r0, sp, #55	@ 0x37
10016576:	3101      	adds	r1, #1
10016578:	f8ca 0000 	str.w	r0, [sl]
1001657c:	2a07      	cmp	r2, #7
1001657e:	f04f 0001 	mov.w	r0, #1
10016582:	e9cd 2110 	strd	r2, r1, [sp, #64]	@ 0x40
10016586:	f8ca 0004 	str.w	r0, [sl, #4]
1001658a:	f300 8277 	bgt.w	10016a7c <_vfiprintf_r+0x7b8>
1001658e:	f10a 0a08 	add.w	sl, sl, #8
10016592:	9806      	ldr	r0, [sp, #24]
10016594:	b178      	cbz	r0, 100165b6 <_vfiprintf_r+0x2f2>
10016596:	3201      	adds	r2, #1
10016598:	a80e      	add	r0, sp, #56	@ 0x38
1001659a:	3102      	adds	r1, #2
1001659c:	f8ca 0000 	str.w	r0, [sl]
100165a0:	2a07      	cmp	r2, #7
100165a2:	f04f 0002 	mov.w	r0, #2
100165a6:	e9cd 2110 	strd	r2, r1, [sp, #64]	@ 0x40
100165aa:	f8ca 0004 	str.w	r0, [sl, #4]
100165ae:	f300 8273 	bgt.w	10016a98 <_vfiprintf_r+0x7d4>
100165b2:	f10a 0a08 	add.w	sl, sl, #8
100165b6:	2f80      	cmp	r7, #128	@ 0x80
100165b8:	f000 819b 	beq.w	100168f2 <_vfiprintf_r+0x62e>
100165bc:	9803      	ldr	r0, [sp, #12]
100165be:	1ac5      	subs	r5, r0, r3
100165c0:	2d00      	cmp	r5, #0
100165c2:	f300 81d5 	bgt.w	10016970 <_vfiprintf_r+0x6ac>
100165c6:	3201      	adds	r2, #1
100165c8:	4419      	add	r1, r3
100165ca:	2a07      	cmp	r2, #7
100165cc:	e9cd 2110 	strd	r2, r1, [sp, #64]	@ 0x40
100165d0:	f8ca 4000 	str.w	r4, [sl]
100165d4:	f8ca 3004 	str.w	r3, [sl, #4]
100165d8:	f300 8202 	bgt.w	100169e0 <_vfiprintf_r+0x71c>
100165dc:	f10a 0a08 	add.w	sl, sl, #8
100165e0:	f018 0f04 	tst.w	r8, #4
100165e4:	d005      	beq.n	100165f2 <_vfiprintf_r+0x32e>
100165e6:	9b04      	ldr	r3, [sp, #16]
100165e8:	9a01      	ldr	r2, [sp, #4]
100165ea:	1a9c      	subs	r4, r3, r2
100165ec:	2c00      	cmp	r4, #0
100165ee:	f300 8261 	bgt.w	10016ab4 <_vfiprintf_r+0x7f0>
100165f2:	e9dd 2304 	ldrd	r2, r3, [sp, #16]
100165f6:	9801      	ldr	r0, [sp, #4]
100165f8:	4282      	cmp	r2, r0
100165fa:	bfac      	ite	ge
100165fc:	189b      	addge	r3, r3, r2
100165fe:	181b      	addlt	r3, r3, r0
10016600:	9305      	str	r3, [sp, #20]
10016602:	2900      	cmp	r1, #0
10016604:	f040 81f7 	bne.w	100169f6 <_vfiprintf_r+0x732>
10016608:	2300      	movs	r3, #0
1001660a:	9310      	str	r3, [sp, #64]	@ 0x40
1001660c:	46ca      	mov	sl, r9
1001660e:	e68e      	b.n	1001632e <_vfiprintf_r+0x6a>
10016610:	9a07      	ldr	r2, [sp, #28]
10016612:	f018 0f10 	tst.w	r8, #16
10016616:	f852 3b04 	ldr.w	r3, [r2], #4
1001661a:	9207      	str	r2, [sp, #28]
1001661c:	d107      	bne.n	1001662e <_vfiprintf_r+0x36a>
1001661e:	f018 0f40 	tst.w	r8, #64	@ 0x40
10016622:	d004      	beq.n	1001662e <_vfiprintf_r+0x36a>
10016624:	f343 32c0 	sbfx	r2, r3, #15, #1
10016628:	4611      	mov	r1, r2
1001662a:	b21b      	sxth	r3, r3
1001662c:	e723      	b.n	10016476 <_vfiprintf_r+0x1b2>
1001662e:	17da      	asrs	r2, r3, #31
10016630:	4611      	mov	r1, r2
10016632:	2900      	cmp	r1, #0
10016634:	f6bf af22 	bge.w	1001647c <_vfiprintf_r+0x1b8>
10016638:	9903      	ldr	r1, [sp, #12]
1001663a:	425b      	negs	r3, r3
1001663c:	eb62 0242 	sbc.w	r2, r2, r2, lsl #1
10016640:	252d      	movs	r5, #45	@ 0x2d
10016642:	2900      	cmp	r1, #0
10016644:	f88d 5037 	strb.w	r5, [sp, #55]	@ 0x37
10016648:	db01      	blt.n	1001664e <_vfiprintf_r+0x38a>
1001664a:	f028 0880 	bic.w	r8, r8, #128	@ 0x80
1001664e:	2b0a      	cmp	r3, #10
10016650:	f172 0100 	sbcs.w	r1, r2, #0
10016654:	f080 82f3 	bcs.w	10016c3e <_vfiprintf_r+0x97a>
10016658:	3330      	adds	r3, #48	@ 0x30
1001665a:	b2db      	uxtb	r3, r3
1001665c:	f88d 306f 	strb.w	r3, [sp, #111]	@ 0x6f
10016660:	9b03      	ldr	r3, [sp, #12]
10016662:	2b01      	cmp	r3, #1
10016664:	bfb8      	it	lt
10016666:	2301      	movlt	r3, #1
10016668:	9301      	str	r3, [sp, #4]
1001666a:	f10d 046f 	add.w	r4, sp, #111	@ 0x6f
1001666e:	2301      	movs	r3, #1
10016670:	e716      	b.n	100164a0 <_vfiprintf_r+0x1dc>
10016672:	9b07      	ldr	r3, [sp, #28]
10016674:	f853 2b04 	ldr.w	r2, [r3], #4
10016678:	9204      	str	r2, [sp, #16]
1001667a:	2a00      	cmp	r2, #0
1001667c:	f280 8288 	bge.w	10016b90 <_vfiprintf_r+0x8cc>
10016680:	9a04      	ldr	r2, [sp, #16]
10016682:	9307      	str	r3, [sp, #28]
10016684:	4252      	negs	r2, r2
10016686:	9204      	str	r2, [sp, #16]
10016688:	f89b 1000 	ldrb.w	r1, [fp]
1001668c:	f048 0804 	orr.w	r8, r8, #4
10016690:	e670      	b.n	10016374 <_vfiprintf_r+0xb0>
10016692:	4658      	mov	r0, fp
10016694:	f810 1b01 	ldrb.w	r1, [r0], #1
10016698:	292a      	cmp	r1, #42	@ 0x2a
1001669a:	f000 835a 	beq.w	10016d52 <_vfiprintf_r+0xa8e>
1001669e:	f1a1 0330 	sub.w	r3, r1, #48	@ 0x30
100166a2:	2b09      	cmp	r3, #9
100166a4:	bf98      	it	ls
100166a6:	2200      	movls	r2, #0
100166a8:	f200 8347 	bhi.w	10016d3a <_vfiprintf_r+0xa76>
100166ac:	f810 1b01 	ldrb.w	r1, [r0], #1
100166b0:	eb02 0282 	add.w	r2, r2, r2, lsl #2
100166b4:	eb03 0242 	add.w	r2, r3, r2, lsl #1
100166b8:	f1a1 0330 	sub.w	r3, r1, #48	@ 0x30
100166bc:	2b09      	cmp	r3, #9
100166be:	d9f5      	bls.n	100166ac <_vfiprintf_r+0x3e8>
100166c0:	ea42 73e2 	orr.w	r3, r2, r2, asr #31
100166c4:	9303      	str	r3, [sp, #12]
100166c6:	4683      	mov	fp, r0
100166c8:	e656      	b.n	10016378 <_vfiprintf_r+0xb4>
100166ca:	f89b 1000 	ldrb.w	r1, [fp]
100166ce:	f048 0880 	orr.w	r8, r8, #128	@ 0x80
100166d2:	e64f      	b.n	10016374 <_vfiprintf_r+0xb0>
100166d4:	232b      	movs	r3, #43	@ 0x2b
100166d6:	f89b 1000 	ldrb.w	r1, [fp]
100166da:	f88d 3037 	strb.w	r3, [sp, #55]	@ 0x37
100166de:	e649      	b.n	10016374 <_vfiprintf_r+0xb0>
100166e0:	f89b 1000 	ldrb.w	r1, [fp]
100166e4:	f048 0801 	orr.w	r8, r8, #1
100166e8:	e644      	b.n	10016374 <_vfiprintf_r+0xb0>
100166ea:	f89d 3037 	ldrb.w	r3, [sp, #55]	@ 0x37
100166ee:	f89b 1000 	ldrb.w	r1, [fp]
100166f2:	2b00      	cmp	r3, #0
100166f4:	f47f ae3e 	bne.w	10016374 <_vfiprintf_r+0xb0>
100166f8:	2320      	movs	r3, #32
100166fa:	f88d 3037 	strb.w	r3, [sp, #55]	@ 0x37
100166fe:	e639      	b.n	10016374 <_vfiprintf_r+0xb0>
10016700:	f018 0f20 	tst.w	r8, #32
10016704:	f000 824d 	beq.w	10016ba2 <_vfiprintf_r+0x8de>
10016708:	9b07      	ldr	r3, [sp, #28]
1001670a:	9a05      	ldr	r2, [sp, #20]
1001670c:	681b      	ldr	r3, [r3, #0]
1001670e:	601a      	str	r2, [r3, #0]
10016710:	17d2      	asrs	r2, r2, #31
10016712:	605a      	str	r2, [r3, #4]
10016714:	9b07      	ldr	r3, [sp, #28]
10016716:	3304      	adds	r3, #4
10016718:	9307      	str	r3, [sp, #28]
1001671a:	e608      	b.n	1001632e <_vfiprintf_r+0x6a>
1001671c:	f89b 1000 	ldrb.w	r1, [fp]
10016720:	296c      	cmp	r1, #108	@ 0x6c
10016722:	bf03      	ittte	eq
10016724:	f89b 1001 	ldrbeq.w	r1, [fp, #1]
10016728:	f048 0820 	orreq.w	r8, r8, #32
1001672c:	f10b 0b01 	addeq.w	fp, fp, #1
10016730:	f048 0810 	orrne.w	r8, r8, #16
10016734:	e61e      	b.n	10016374 <_vfiprintf_r+0xb0>
10016736:	f89b 1000 	ldrb.w	r1, [fp]
1001673a:	f048 0840 	orr.w	r8, r8, #64	@ 0x40
1001673e:	e619      	b.n	10016374 <_vfiprintf_r+0xb0>
10016740:	9b07      	ldr	r3, [sp, #28]
10016742:	2200      	movs	r2, #0
10016744:	f88d 2037 	strb.w	r2, [sp, #55]	@ 0x37
10016748:	f853 2b04 	ldr.w	r2, [r3], #4
1001674c:	9307      	str	r3, [sp, #28]
1001674e:	2301      	movs	r3, #1
10016750:	f88d 2048 	strb.w	r2, [sp, #72]	@ 0x48
10016754:	9301      	str	r3, [sp, #4]
10016756:	ac12      	add	r4, sp, #72	@ 0x48
10016758:	e6f9      	b.n	1001654e <_vfiprintf_r+0x28a>
1001675a:	f048 0110 	orr.w	r1, r8, #16
1001675e:	f011 0220 	ands.w	r2, r1, #32
10016762:	f000 81de 	beq.w	10016b22 <_vfiprintf_r+0x85e>
10016766:	9b07      	ldr	r3, [sp, #28]
10016768:	3307      	adds	r3, #7
1001676a:	f023 0307 	bic.w	r3, r3, #7
1001676e:	4618      	mov	r0, r3
10016770:	685a      	ldr	r2, [r3, #4]
10016772:	f850 3b08 	ldr.w	r3, [r0], #8
10016776:	9007      	str	r0, [sp, #28]
10016778:	9803      	ldr	r0, [sp, #12]
1001677a:	2500      	movs	r5, #0
1001677c:	42a8      	cmp	r0, r5
1001677e:	f88d 5037 	strb.w	r5, [sp, #55]	@ 0x37
10016782:	f2c0 82a7 	blt.w	10016cd4 <_vfiprintf_r+0xa10>
10016786:	2501      	movs	r5, #1
10016788:	ea53 0002 	orrs.w	r0, r3, r2
1001678c:	f021 0880 	bic.w	r8, r1, #128	@ 0x80
10016790:	f040 8094 	bne.w	100168bc <_vfiprintf_r+0x5f8>
10016794:	9803      	ldr	r0, [sp, #12]
10016796:	2800      	cmp	r0, #0
10016798:	f040 829e 	bne.w	10016cd8 <_vfiprintf_r+0xa14>
1001679c:	2d00      	cmp	r5, #0
1001679e:	f040 81f3 	bne.w	10016b88 <_vfiprintf_r+0x8c4>
100167a2:	f011 0301 	ands.w	r3, r1, #1
100167a6:	f000 81f8 	beq.w	10016b9a <_vfiprintf_r+0x8d6>
100167aa:	2230      	movs	r2, #48	@ 0x30
100167ac:	f88d 206f 	strb.w	r2, [sp, #111]	@ 0x6f
100167b0:	9301      	str	r3, [sp, #4]
100167b2:	f10d 046f 	add.w	r4, sp, #111	@ 0x6f
100167b6:	e034      	b.n	10016822 <_vfiprintf_r+0x55e>
100167b8:	f048 0110 	orr.w	r1, r8, #16
100167bc:	f011 0220 	ands.w	r2, r1, #32
100167c0:	f000 81be 	beq.w	10016b40 <_vfiprintf_r+0x87c>
100167c4:	9b07      	ldr	r3, [sp, #28]
100167c6:	3307      	adds	r3, #7
100167c8:	f023 0307 	bic.w	r3, r3, #7
100167cc:	4618      	mov	r0, r3
100167ce:	685a      	ldr	r2, [r3, #4]
100167d0:	f850 3b08 	ldr.w	r3, [r0], #8
100167d4:	9007      	str	r0, [sp, #28]
100167d6:	9803      	ldr	r0, [sp, #12]
100167d8:	2500      	movs	r5, #0
100167da:	42a8      	cmp	r0, r5
100167dc:	f88d 5037 	strb.w	r5, [sp, #55]	@ 0x37
100167e0:	dad2      	bge.n	10016788 <_vfiprintf_r+0x4c4>
100167e2:	4688      	mov	r8, r1
100167e4:	464c      	mov	r4, r9
100167e6:	f003 0107 	and.w	r1, r3, #7
100167ea:	08db      	lsrs	r3, r3, #3
100167ec:	ea43 7342 	orr.w	r3, r3, r2, lsl #29
100167f0:	08d2      	lsrs	r2, r2, #3
100167f2:	3130      	adds	r1, #48	@ 0x30
100167f4:	ea53 0502 	orrs.w	r5, r3, r2
100167f8:	4620      	mov	r0, r4
100167fa:	f804 1d01 	strb.w	r1, [r4, #-1]!
100167fe:	d1f2      	bne.n	100167e6 <_vfiprintf_r+0x522>
10016800:	f018 0f01 	tst.w	r8, #1
10016804:	d06d      	beq.n	100168e2 <_vfiprintf_r+0x61e>
10016806:	2930      	cmp	r1, #48	@ 0x30
10016808:	d06b      	beq.n	100168e2 <_vfiprintf_r+0x61e>
1001680a:	9a03      	ldr	r2, [sp, #12]
1001680c:	3802      	subs	r0, #2
1001680e:	2330      	movs	r3, #48	@ 0x30
10016810:	f804 3c01 	strb.w	r3, [r4, #-1]
10016814:	eba9 0300 	sub.w	r3, r9, r0
10016818:	429a      	cmp	r2, r3
1001681a:	bfb8      	it	lt
1001681c:	461a      	movlt	r2, r3
1001681e:	4604      	mov	r4, r0
10016820:	9201      	str	r2, [sp, #4]
10016822:	f018 0202 	ands.w	r2, r8, #2
10016826:	9206      	str	r2, [sp, #24]
10016828:	f43f ae94 	beq.w	10016554 <_vfiprintf_r+0x290>
1001682c:	9a01      	ldr	r2, [sp, #4]
1001682e:	3202      	adds	r2, #2
10016830:	9201      	str	r2, [sp, #4]
10016832:	2202      	movs	r2, #2
10016834:	9206      	str	r2, [sp, #24]
10016836:	e68d      	b.n	10016554 <_vfiprintf_r+0x290>
10016838:	9d07      	ldr	r5, [sp, #28]
1001683a:	9b03      	ldr	r3, [sp, #12]
1001683c:	f855 4b04 	ldr.w	r4, [r5], #4
10016840:	2100      	movs	r1, #0
10016842:	f88d 1037 	strb.w	r1, [sp, #55]	@ 0x37
10016846:	2c00      	cmp	r4, #0
10016848:	f000 825e 	beq.w	10016d08 <_vfiprintf_r+0xa44>
1001684c:	2b00      	cmp	r3, #0
1001684e:	f2c0 81df 	blt.w	10016c10 <_vfiprintf_r+0x94c>
10016852:	461a      	mov	r2, r3
10016854:	4620      	mov	r0, r4
10016856:	f7fb fc0b 	bl	10012070 <memchr>
1001685a:	2800      	cmp	r0, #0
1001685c:	f000 826b 	beq.w	10016d36 <_vfiprintf_r+0xa72>
10016860:	1b03      	subs	r3, r0, r4
10016862:	f89d 2037 	ldrb.w	r2, [sp, #55]	@ 0x37
10016866:	ea23 71e3 	bic.w	r1, r3, r3, asr #31
1001686a:	9101      	str	r1, [sp, #4]
1001686c:	2a00      	cmp	r2, #0
1001686e:	f000 8252 	beq.w	10016d16 <_vfiprintf_r+0xa52>
10016872:	2200      	movs	r2, #0
10016874:	9507      	str	r5, [sp, #28]
10016876:	9203      	str	r2, [sp, #12]
10016878:	e615      	b.n	100164a6 <_vfiprintf_r+0x1e2>
1001687a:	f89b 1000 	ldrb.w	r1, [fp]
1001687e:	f048 0820 	orr.w	r8, r8, #32
10016882:	e577      	b.n	10016374 <_vfiprintf_r+0xb0>
10016884:	9a07      	ldr	r2, [sp, #28]
10016886:	f852 3b04 	ldr.w	r3, [r2], #4
1001688a:	9207      	str	r2, [sp, #28]
1001688c:	f647 0230 	movw	r2, #30768	@ 0x7830
10016890:	f8ad 2038 	strh.w	r2, [sp, #56]	@ 0x38
10016894:	4ab2      	ldr	r2, [pc, #712]	@ (10016b60 <_vfiprintf_r+0x89c>)
10016896:	9209      	str	r2, [sp, #36]	@ 0x24
10016898:	f048 0802 	orr.w	r8, r8, #2
1001689c:	2200      	movs	r2, #0
1001689e:	2100      	movs	r1, #0
100168a0:	f88d 1037 	strb.w	r1, [sp, #55]	@ 0x37
100168a4:	9903      	ldr	r1, [sp, #12]
100168a6:	2900      	cmp	r1, #0
100168a8:	db0d      	blt.n	100168c6 <_vfiprintf_r+0x602>
100168aa:	4641      	mov	r1, r8
100168ac:	ea53 0002 	orrs.w	r0, r3, r2
100168b0:	f04f 0502 	mov.w	r5, #2
100168b4:	f021 0880 	bic.w	r8, r1, #128	@ 0x80
100168b8:	f43f af6c 	beq.w	10016794 <_vfiprintf_r+0x4d0>
100168bc:	2d01      	cmp	r5, #1
100168be:	f000 8254 	beq.w	10016d6a <_vfiprintf_r+0xaa6>
100168c2:	2d02      	cmp	r5, #2
100168c4:	d18e      	bne.n	100167e4 <_vfiprintf_r+0x520>
100168c6:	9809      	ldr	r0, [sp, #36]	@ 0x24
100168c8:	464c      	mov	r4, r9
100168ca:	f003 010f 	and.w	r1, r3, #15
100168ce:	091b      	lsrs	r3, r3, #4
100168d0:	5c41      	ldrb	r1, [r0, r1]
100168d2:	f804 1d01 	strb.w	r1, [r4, #-1]!
100168d6:	ea43 7302 	orr.w	r3, r3, r2, lsl #28
100168da:	0912      	lsrs	r2, r2, #4
100168dc:	ea53 0102 	orrs.w	r1, r3, r2
100168e0:	d1f3      	bne.n	100168ca <_vfiprintf_r+0x606>
100168e2:	9a03      	ldr	r2, [sp, #12]
100168e4:	eba9 0304 	sub.w	r3, r9, r4
100168e8:	429a      	cmp	r2, r3
100168ea:	bfb8      	it	lt
100168ec:	461a      	movlt	r2, r3
100168ee:	9201      	str	r2, [sp, #4]
100168f0:	e797      	b.n	10016822 <_vfiprintf_r+0x55e>
100168f2:	9804      	ldr	r0, [sp, #16]
100168f4:	9d01      	ldr	r5, [sp, #4]
100168f6:	1b45      	subs	r5, r0, r5
100168f8:	2d00      	cmp	r5, #0
100168fa:	f77f ae5f 	ble.w	100165bc <_vfiprintf_r+0x2f8>
100168fe:	2d10      	cmp	r5, #16
10016900:	4e98      	ldr	r6, [pc, #608]	@ (10016b64 <_vfiprintf_r+0x8a0>)
10016902:	dd23      	ble.n	1001694c <_vfiprintf_r+0x688>
10016904:	9406      	str	r4, [sp, #24]
10016906:	4650      	mov	r0, sl
10016908:	9c08      	ldr	r4, [sp, #32]
1001690a:	2710      	movs	r7, #16
1001690c:	469a      	mov	sl, r3
1001690e:	e004      	b.n	1001691a <_vfiprintf_r+0x656>
10016910:	3d10      	subs	r5, #16
10016912:	2d10      	cmp	r5, #16
10016914:	f100 0008 	add.w	r0, r0, #8
10016918:	dd15      	ble.n	10016946 <_vfiprintf_r+0x682>
1001691a:	3201      	adds	r2, #1
1001691c:	3110      	adds	r1, #16
1001691e:	2a07      	cmp	r2, #7
10016920:	e9c0 6700 	strd	r6, r7, [r0]
10016924:	e9cd 2110 	strd	r2, r1, [sp, #64]	@ 0x40
10016928:	ddf2      	ble.n	10016910 <_vfiprintf_r+0x64c>
1001692a:	9902      	ldr	r1, [sp, #8]
1001692c:	aa0f      	add	r2, sp, #60	@ 0x3c
1001692e:	4620      	mov	r0, r4
10016930:	f7fe fc00 	bl	10015134 <__sprint_r>
10016934:	2800      	cmp	r0, #0
10016936:	f47f adf7 	bne.w	10016528 <_vfiprintf_r+0x264>
1001693a:	3d10      	subs	r5, #16
1001693c:	2d10      	cmp	r5, #16
1001693e:	e9dd 2110 	ldrd	r2, r1, [sp, #64]	@ 0x40
10016942:	4648      	mov	r0, r9
10016944:	dce9      	bgt.n	1001691a <_vfiprintf_r+0x656>
10016946:	9c06      	ldr	r4, [sp, #24]
10016948:	4653      	mov	r3, sl
1001694a:	4682      	mov	sl, r0
1001694c:	3201      	adds	r2, #1
1001694e:	4429      	add	r1, r5
10016950:	2a07      	cmp	r2, #7
10016952:	e9cd 2110 	strd	r2, r1, [sp, #64]	@ 0x40
10016956:	f8ca 6000 	str.w	r6, [sl]
1001695a:	f8ca 5004 	str.w	r5, [sl, #4]
1001695e:	f300 81c5 	bgt.w	10016cec <_vfiprintf_r+0xa28>
10016962:	9803      	ldr	r0, [sp, #12]
10016964:	1ac5      	subs	r5, r0, r3
10016966:	2d00      	cmp	r5, #0
10016968:	f10a 0a08 	add.w	sl, sl, #8
1001696c:	f77f ae2b 	ble.w	100165c6 <_vfiprintf_r+0x302>
10016970:	2d10      	cmp	r5, #16
10016972:	4e7c      	ldr	r6, [pc, #496]	@ (10016b64 <_vfiprintf_r+0x8a0>)
10016974:	dd26      	ble.n	100169c4 <_vfiprintf_r+0x700>
10016976:	9403      	str	r4, [sp, #12]
10016978:	4650      	mov	r0, sl
1001697a:	9c08      	ldr	r4, [sp, #32]
1001697c:	46b2      	mov	sl, r6
1001697e:	2710      	movs	r7, #16
10016980:	461e      	mov	r6, r3
10016982:	e004      	b.n	1001698e <_vfiprintf_r+0x6ca>
10016984:	3d10      	subs	r5, #16
10016986:	2d10      	cmp	r5, #16
10016988:	f100 0008 	add.w	r0, r0, #8
1001698c:	dd16      	ble.n	100169bc <_vfiprintf_r+0x6f8>
1001698e:	3201      	adds	r2, #1
10016990:	4b74      	ldr	r3, [pc, #464]	@ (10016b64 <_vfiprintf_r+0x8a0>)
10016992:	3110      	adds	r1, #16
10016994:	2a07      	cmp	r2, #7
10016996:	e9c0 3700 	strd	r3, r7, [r0]
1001699a:	e9cd 2110 	strd	r2, r1, [sp, #64]	@ 0x40
1001699e:	ddf1      	ble.n	10016984 <_vfiprintf_r+0x6c0>
100169a0:	9902      	ldr	r1, [sp, #8]
100169a2:	aa0f      	add	r2, sp, #60	@ 0x3c
100169a4:	4620      	mov	r0, r4
100169a6:	f7fe fbc5 	bl	10015134 <__sprint_r>
100169aa:	2800      	cmp	r0, #0
100169ac:	f47f adbc 	bne.w	10016528 <_vfiprintf_r+0x264>
100169b0:	3d10      	subs	r5, #16
100169b2:	2d10      	cmp	r5, #16
100169b4:	e9dd 2110 	ldrd	r2, r1, [sp, #64]	@ 0x40
100169b8:	4648      	mov	r0, r9
100169ba:	dce8      	bgt.n	1001698e <_vfiprintf_r+0x6ca>
100169bc:	9c03      	ldr	r4, [sp, #12]
100169be:	4633      	mov	r3, r6
100169c0:	4656      	mov	r6, sl
100169c2:	4682      	mov	sl, r0
100169c4:	3201      	adds	r2, #1
100169c6:	4429      	add	r1, r5
100169c8:	2a07      	cmp	r2, #7
100169ca:	e9cd 2110 	strd	r2, r1, [sp, #64]	@ 0x40
100169ce:	f8ca 6000 	str.w	r6, [sl]
100169d2:	f8ca 5004 	str.w	r5, [sl, #4]
100169d6:	f300 80c9 	bgt.w	10016b6c <_vfiprintf_r+0x8a8>
100169da:	f10a 0a08 	add.w	sl, sl, #8
100169de:	e5f2      	b.n	100165c6 <_vfiprintf_r+0x302>
100169e0:	9902      	ldr	r1, [sp, #8]
100169e2:	9808      	ldr	r0, [sp, #32]
100169e4:	aa0f      	add	r2, sp, #60	@ 0x3c
100169e6:	f7fe fba5 	bl	10015134 <__sprint_r>
100169ea:	2800      	cmp	r0, #0
100169ec:	f47f ad9c 	bne.w	10016528 <_vfiprintf_r+0x264>
100169f0:	9911      	ldr	r1, [sp, #68]	@ 0x44
100169f2:	46ca      	mov	sl, r9
100169f4:	e5f4      	b.n	100165e0 <_vfiprintf_r+0x31c>
100169f6:	9902      	ldr	r1, [sp, #8]
100169f8:	9808      	ldr	r0, [sp, #32]
100169fa:	aa0f      	add	r2, sp, #60	@ 0x3c
100169fc:	f7fe fb9a 	bl	10015134 <__sprint_r>
10016a00:	2800      	cmp	r0, #0
10016a02:	f43f ae01 	beq.w	10016608 <_vfiprintf_r+0x344>
10016a06:	e58f      	b.n	10016528 <_vfiprintf_r+0x264>
10016a08:	2d10      	cmp	r5, #16
10016a0a:	4e57      	ldr	r6, [pc, #348]	@ (10016b68 <_vfiprintf_r+0x8a4>)
10016a0c:	dd28      	ble.n	10016a60 <_vfiprintf_r+0x79c>
10016a0e:	e9cd 740a 	strd	r7, r4, [sp, #40]	@ 0x28
10016a12:	4650      	mov	r0, sl
10016a14:	4637      	mov	r7, r6
10016a16:	9c08      	ldr	r4, [sp, #32]
10016a18:	9e02      	ldr	r6, [sp, #8]
10016a1a:	469a      	mov	sl, r3
10016a1c:	e004      	b.n	10016a28 <_vfiprintf_r+0x764>
10016a1e:	3d10      	subs	r5, #16
10016a20:	2d10      	cmp	r5, #16
10016a22:	f100 0008 	add.w	r0, r0, #8
10016a26:	dd16      	ble.n	10016a56 <_vfiprintf_r+0x792>
10016a28:	3201      	adds	r2, #1
10016a2a:	3110      	adds	r1, #16
10016a2c:	2310      	movs	r3, #16
10016a2e:	2a07      	cmp	r2, #7
10016a30:	e9cd 2110 	strd	r2, r1, [sp, #64]	@ 0x40
10016a34:	6007      	str	r7, [r0, #0]
10016a36:	6043      	str	r3, [r0, #4]
10016a38:	ddf1      	ble.n	10016a1e <_vfiprintf_r+0x75a>
10016a3a:	aa0f      	add	r2, sp, #60	@ 0x3c
10016a3c:	4631      	mov	r1, r6
10016a3e:	4620      	mov	r0, r4
10016a40:	f7fe fb78 	bl	10015134 <__sprint_r>
10016a44:	2800      	cmp	r0, #0
10016a46:	f47f ad6f 	bne.w	10016528 <_vfiprintf_r+0x264>
10016a4a:	3d10      	subs	r5, #16
10016a4c:	2d10      	cmp	r5, #16
10016a4e:	e9dd 2110 	ldrd	r2, r1, [sp, #64]	@ 0x40
10016a52:	4648      	mov	r0, r9
10016a54:	dce8      	bgt.n	10016a28 <_vfiprintf_r+0x764>
10016a56:	463e      	mov	r6, r7
10016a58:	9c0b      	ldr	r4, [sp, #44]	@ 0x2c
10016a5a:	9f0a      	ldr	r7, [sp, #40]	@ 0x28
10016a5c:	4653      	mov	r3, sl
10016a5e:	4682      	mov	sl, r0
10016a60:	3201      	adds	r2, #1
10016a62:	4429      	add	r1, r5
10016a64:	2a07      	cmp	r2, #7
10016a66:	e9cd 2110 	strd	r2, r1, [sp, #64]	@ 0x40
10016a6a:	f8ca 6000 	str.w	r6, [sl]
10016a6e:	f8ca 5004 	str.w	r5, [sl, #4]
10016a72:	f300 8121 	bgt.w	10016cb8 <_vfiprintf_r+0x9f4>
10016a76:	f10a 0a08 	add.w	sl, sl, #8
10016a7a:	e576      	b.n	1001656a <_vfiprintf_r+0x2a6>
10016a7c:	9902      	ldr	r1, [sp, #8]
10016a7e:	9808      	ldr	r0, [sp, #32]
10016a80:	930a      	str	r3, [sp, #40]	@ 0x28
10016a82:	aa0f      	add	r2, sp, #60	@ 0x3c
10016a84:	f7fe fb56 	bl	10015134 <__sprint_r>
10016a88:	2800      	cmp	r0, #0
10016a8a:	f47f ad4d 	bne.w	10016528 <_vfiprintf_r+0x264>
10016a8e:	e9dd 2110 	ldrd	r2, r1, [sp, #64]	@ 0x40
10016a92:	9b0a      	ldr	r3, [sp, #40]	@ 0x28
10016a94:	46ca      	mov	sl, r9
10016a96:	e57c      	b.n	10016592 <_vfiprintf_r+0x2ce>
10016a98:	9902      	ldr	r1, [sp, #8]
10016a9a:	9808      	ldr	r0, [sp, #32]
10016a9c:	9306      	str	r3, [sp, #24]
10016a9e:	aa0f      	add	r2, sp, #60	@ 0x3c
10016aa0:	f7fe fb48 	bl	10015134 <__sprint_r>
10016aa4:	2800      	cmp	r0, #0
10016aa6:	f47f ad3f 	bne.w	10016528 <_vfiprintf_r+0x264>
10016aaa:	e9dd 2110 	ldrd	r2, r1, [sp, #64]	@ 0x40
10016aae:	9b06      	ldr	r3, [sp, #24]
10016ab0:	46ca      	mov	sl, r9
10016ab2:	e580      	b.n	100165b6 <_vfiprintf_r+0x2f2>
10016ab4:	2c10      	cmp	r4, #16
10016ab6:	9b10      	ldr	r3, [sp, #64]	@ 0x40
10016ab8:	4e2b      	ldr	r6, [pc, #172]	@ (10016b68 <_vfiprintf_r+0x8a4>)
10016aba:	dd1f      	ble.n	10016afc <_vfiprintf_r+0x838>
10016abc:	9f08      	ldr	r7, [sp, #32]
10016abe:	f8dd 8008 	ldr.w	r8, [sp, #8]
10016ac2:	2510      	movs	r5, #16
10016ac4:	e004      	b.n	10016ad0 <_vfiprintf_r+0x80c>
10016ac6:	3c10      	subs	r4, #16
10016ac8:	2c10      	cmp	r4, #16
10016aca:	f10a 0a08 	add.w	sl, sl, #8
10016ace:	dd15      	ble.n	10016afc <_vfiprintf_r+0x838>
10016ad0:	3301      	adds	r3, #1
10016ad2:	3110      	adds	r1, #16
10016ad4:	2b07      	cmp	r3, #7
10016ad6:	e9ca 6500 	strd	r6, r5, [sl]
10016ada:	e9cd 3110 	strd	r3, r1, [sp, #64]	@ 0x40
10016ade:	ddf2      	ble.n	10016ac6 <_vfiprintf_r+0x802>
10016ae0:	aa0f      	add	r2, sp, #60	@ 0x3c
10016ae2:	4641      	mov	r1, r8
10016ae4:	4638      	mov	r0, r7
10016ae6:	f7fe fb25 	bl	10015134 <__sprint_r>
10016aea:	2800      	cmp	r0, #0
10016aec:	f47f ad1c 	bne.w	10016528 <_vfiprintf_r+0x264>
10016af0:	3c10      	subs	r4, #16
10016af2:	2c10      	cmp	r4, #16
10016af4:	e9dd 3110 	ldrd	r3, r1, [sp, #64]	@ 0x40
10016af8:	46ca      	mov	sl, r9
10016afa:	dce9      	bgt.n	10016ad0 <_vfiprintf_r+0x80c>
10016afc:	3301      	adds	r3, #1
10016afe:	4421      	add	r1, r4
10016b00:	2b07      	cmp	r3, #7
10016b02:	e9ca 6400 	strd	r6, r4, [sl]
10016b06:	e9cd 3110 	strd	r3, r1, [sp, #64]	@ 0x40
10016b0a:	f77f ad72 	ble.w	100165f2 <_vfiprintf_r+0x32e>
10016b0e:	9902      	ldr	r1, [sp, #8]
10016b10:	9808      	ldr	r0, [sp, #32]
10016b12:	aa0f      	add	r2, sp, #60	@ 0x3c
10016b14:	f7fe fb0e 	bl	10015134 <__sprint_r>
10016b18:	2800      	cmp	r0, #0
10016b1a:	f47f ad05 	bne.w	10016528 <_vfiprintf_r+0x264>
10016b1e:	9911      	ldr	r1, [sp, #68]	@ 0x44
10016b20:	e567      	b.n	100165f2 <_vfiprintf_r+0x32e>
10016b22:	9807      	ldr	r0, [sp, #28]
10016b24:	f850 3b04 	ldr.w	r3, [r0], #4
10016b28:	9007      	str	r0, [sp, #28]
10016b2a:	f011 0010 	ands.w	r0, r1, #16
10016b2e:	f47f ae23 	bne.w	10016778 <_vfiprintf_r+0x4b4>
10016b32:	f011 0240 	ands.w	r2, r1, #64	@ 0x40
10016b36:	f43f ae1f 	beq.w	10016778 <_vfiprintf_r+0x4b4>
10016b3a:	b29b      	uxth	r3, r3
10016b3c:	4602      	mov	r2, r0
10016b3e:	e61b      	b.n	10016778 <_vfiprintf_r+0x4b4>
10016b40:	9807      	ldr	r0, [sp, #28]
10016b42:	f850 3b04 	ldr.w	r3, [r0], #4
10016b46:	9007      	str	r0, [sp, #28]
10016b48:	f011 0010 	ands.w	r0, r1, #16
10016b4c:	f47f ae43 	bne.w	100167d6 <_vfiprintf_r+0x512>
10016b50:	f011 0240 	ands.w	r2, r1, #64	@ 0x40
10016b54:	f43f ae3f 	beq.w	100167d6 <_vfiprintf_r+0x512>
10016b58:	b29b      	uxth	r3, r3
10016b5a:	4602      	mov	r2, r0
10016b5c:	e63b      	b.n	100167d6 <_vfiprintf_r+0x512>
10016b5e:	bf00      	nop
10016b60:	10017c00 	.word	0x10017c00
10016b64:	100180dc 	.word	0x100180dc
10016b68:	100180cc 	.word	0x100180cc
10016b6c:	9902      	ldr	r1, [sp, #8]
10016b6e:	9808      	ldr	r0, [sp, #32]
10016b70:	9303      	str	r3, [sp, #12]
10016b72:	aa0f      	add	r2, sp, #60	@ 0x3c
10016b74:	f7fe fade 	bl	10015134 <__sprint_r>
10016b78:	2800      	cmp	r0, #0
10016b7a:	f47f acd5 	bne.w	10016528 <_vfiprintf_r+0x264>
10016b7e:	e9dd 2110 	ldrd	r2, r1, [sp, #64]	@ 0x40
10016b82:	9b03      	ldr	r3, [sp, #12]
10016b84:	46ca      	mov	sl, r9
10016b86:	e51e      	b.n	100165c6 <_vfiprintf_r+0x302>
10016b88:	9b03      	ldr	r3, [sp, #12]
10016b8a:	9301      	str	r3, [sp, #4]
10016b8c:	464c      	mov	r4, r9
10016b8e:	e648      	b.n	10016822 <_vfiprintf_r+0x55e>
10016b90:	f89b 1000 	ldrb.w	r1, [fp]
10016b94:	9307      	str	r3, [sp, #28]
10016b96:	f7ff bbed 	b.w	10016374 <_vfiprintf_r+0xb0>
10016b9a:	9a03      	ldr	r2, [sp, #12]
10016b9c:	9201      	str	r2, [sp, #4]
10016b9e:	464c      	mov	r4, r9
10016ba0:	e63f      	b.n	10016822 <_vfiprintf_r+0x55e>
10016ba2:	f018 0f10 	tst.w	r8, #16
10016ba6:	d138      	bne.n	10016c1a <_vfiprintf_r+0x956>
10016ba8:	f018 0f40 	tst.w	r8, #64	@ 0x40
10016bac:	d035      	beq.n	10016c1a <_vfiprintf_r+0x956>
10016bae:	9b07      	ldr	r3, [sp, #28]
10016bb0:	9a05      	ldr	r2, [sp, #20]
10016bb2:	681b      	ldr	r3, [r3, #0]
10016bb4:	801a      	strh	r2, [r3, #0]
10016bb6:	e5ad      	b.n	10016714 <_vfiprintf_r+0x450>
10016bb8:	4641      	mov	r1, r8
10016bba:	e5d0      	b.n	1001675e <_vfiprintf_r+0x49a>
10016bbc:	4641      	mov	r1, r8
10016bbe:	e5fd      	b.n	100167bc <_vfiprintf_r+0x4f8>
10016bc0:	4b6b      	ldr	r3, [pc, #428]	@ (10016d70 <_vfiprintf_r+0xaac>)
10016bc2:	9309      	str	r3, [sp, #36]	@ 0x24
10016bc4:	f018 0220 	ands.w	r2, r8, #32
10016bc8:	d02c      	beq.n	10016c24 <_vfiprintf_r+0x960>
10016bca:	9b07      	ldr	r3, [sp, #28]
10016bcc:	3307      	adds	r3, #7
10016bce:	f023 0307 	bic.w	r3, r3, #7
10016bd2:	4618      	mov	r0, r3
10016bd4:	685a      	ldr	r2, [r3, #4]
10016bd6:	f850 3b08 	ldr.w	r3, [r0], #8
10016bda:	9007      	str	r0, [sp, #28]
10016bdc:	f018 0f01 	tst.w	r8, #1
10016be0:	f43f ae5d 	beq.w	1001689e <_vfiprintf_r+0x5da>
10016be4:	ea53 0002 	orrs.w	r0, r3, r2
10016be8:	f43f ae59 	beq.w	1001689e <_vfiprintf_r+0x5da>
10016bec:	f88d 1039 	strb.w	r1, [sp, #57]	@ 0x39
10016bf0:	2130      	movs	r1, #48	@ 0x30
10016bf2:	f88d 1038 	strb.w	r1, [sp, #56]	@ 0x38
10016bf6:	2100      	movs	r1, #0
10016bf8:	f88d 1037 	strb.w	r1, [sp, #55]	@ 0x37
10016bfc:	9903      	ldr	r1, [sp, #12]
10016bfe:	2900      	cmp	r1, #0
10016c00:	f280 808d 	bge.w	10016d1e <_vfiprintf_r+0xa5a>
10016c04:	f048 0802 	orr.w	r8, r8, #2
10016c08:	e65d      	b.n	100168c6 <_vfiprintf_r+0x602>
10016c0a:	4b5a      	ldr	r3, [pc, #360]	@ (10016d74 <_vfiprintf_r+0xab0>)
10016c0c:	9309      	str	r3, [sp, #36]	@ 0x24
10016c0e:	e7d9      	b.n	10016bc4 <_vfiprintf_r+0x900>
10016c10:	4620      	mov	r0, r4
10016c12:	f7f9 f895 	bl	1000fd40 <strlen>
10016c16:	4603      	mov	r3, r0
10016c18:	e623      	b.n	10016862 <_vfiprintf_r+0x59e>
10016c1a:	9b07      	ldr	r3, [sp, #28]
10016c1c:	9a05      	ldr	r2, [sp, #20]
10016c1e:	681b      	ldr	r3, [r3, #0]
10016c20:	601a      	str	r2, [r3, #0]
10016c22:	e577      	b.n	10016714 <_vfiprintf_r+0x450>
10016c24:	9807      	ldr	r0, [sp, #28]
10016c26:	f850 3b04 	ldr.w	r3, [r0], #4
10016c2a:	9007      	str	r0, [sp, #28]
10016c2c:	f018 0010 	ands.w	r0, r8, #16
10016c30:	d1d4      	bne.n	10016bdc <_vfiprintf_r+0x918>
10016c32:	f018 0240 	ands.w	r2, r8, #64	@ 0x40
10016c36:	bf1c      	itt	ne
10016c38:	b29b      	uxthne	r3, r3
10016c3a:	4602      	movne	r2, r0
10016c3c:	e7ce      	b.n	10016bdc <_vfiprintf_r+0x918>
10016c3e:	4e4e      	ldr	r6, [pc, #312]	@ (10016d78 <_vfiprintf_r+0xab4>)
10016c40:	f8cd a004 	str.w	sl, [sp, #4]
10016c44:	464c      	mov	r4, r9
10016c46:	f04f 0e05 	mov.w	lr, #5
10016c4a:	1899      	adds	r1, r3, r2
10016c4c:	f141 0100 	adc.w	r1, r1, #0
10016c50:	fba6 0701 	umull	r0, r7, r6, r1
10016c54:	f027 0003 	bic.w	r0, r7, #3
10016c58:	eb00 0097 	add.w	r0, r0, r7, lsr #2
10016c5c:	1a09      	subs	r1, r1, r0
10016c5e:	1a58      	subs	r0, r3, r1
10016c60:	469a      	mov	sl, r3
10016c62:	4694      	mov	ip, r2
10016c64:	f162 0300 	sbc.w	r3, r2, #0
10016c68:	f04f 32cc 	mov.w	r2, #3435973836	@ 0xcccccccc
10016c6c:	fb02 f200 	mul.w	r2, r2, r0
10016c70:	fb06 2203 	mla	r2, r6, r3, r2
10016c74:	fba0 3006 	umull	r3, r0, r0, r6
10016c78:	f003 0701 	and.w	r7, r3, #1
10016c7c:	4402      	add	r2, r0
10016c7e:	fba7 070e 	umull	r0, r7, r7, lr
10016c82:	1840      	adds	r0, r0, r1
10016c84:	f1ba 0f0a 	cmp.w	sl, #10
10016c88:	ea4f 0353 	mov.w	r3, r3, lsr #1
10016c8c:	f100 0030 	add.w	r0, r0, #48	@ 0x30
10016c90:	f17c 0c00 	sbcs.w	ip, ip, #0
10016c94:	ea43 73c2 	orr.w	r3, r3, r2, lsl #31
10016c98:	f804 0d01 	strb.w	r0, [r4, #-1]!
10016c9c:	ea4f 0252 	mov.w	r2, r2, lsr #1
10016ca0:	d2d3      	bcs.n	10016c4a <_vfiprintf_r+0x986>
10016ca2:	9a03      	ldr	r2, [sp, #12]
10016ca4:	f8dd a004 	ldr.w	sl, [sp, #4]
10016ca8:	eba9 0304 	sub.w	r3, r9, r4
10016cac:	429a      	cmp	r2, r3
10016cae:	bfb8      	it	lt
10016cb0:	461a      	movlt	r2, r3
10016cb2:	9201      	str	r2, [sp, #4]
10016cb4:	f7ff bbf4 	b.w	100164a0 <_vfiprintf_r+0x1dc>
10016cb8:	9902      	ldr	r1, [sp, #8]
10016cba:	9808      	ldr	r0, [sp, #32]
10016cbc:	930a      	str	r3, [sp, #40]	@ 0x28
10016cbe:	aa0f      	add	r2, sp, #60	@ 0x3c
10016cc0:	f7fe fa38 	bl	10015134 <__sprint_r>
10016cc4:	2800      	cmp	r0, #0
10016cc6:	f47f ac2f 	bne.w	10016528 <_vfiprintf_r+0x264>
10016cca:	e9dd 2110 	ldrd	r2, r1, [sp, #64]	@ 0x40
10016cce:	9b0a      	ldr	r3, [sp, #40]	@ 0x28
10016cd0:	46ca      	mov	sl, r9
10016cd2:	e44a      	b.n	1001656a <_vfiprintf_r+0x2a6>
10016cd4:	4688      	mov	r8, r1
10016cd6:	e4ba      	b.n	1001664e <_vfiprintf_r+0x38a>
10016cd8:	2d01      	cmp	r5, #1
10016cda:	f47f adf2 	bne.w	100168c2 <_vfiprintf_r+0x5fe>
10016cde:	2500      	movs	r5, #0
10016ce0:	2330      	movs	r3, #48	@ 0x30
10016ce2:	e4bb      	b.n	1001665c <_vfiprintf_r+0x398>
10016ce4:	f7f9 fcd4 	bl	10010690 <__sinit>
10016ce8:	f7ff baf9 	b.w	100162de <_vfiprintf_r+0x1a>
10016cec:	9902      	ldr	r1, [sp, #8]
10016cee:	9808      	ldr	r0, [sp, #32]
10016cf0:	9306      	str	r3, [sp, #24]
10016cf2:	aa0f      	add	r2, sp, #60	@ 0x3c
10016cf4:	f7fe fa1e 	bl	10015134 <__sprint_r>
10016cf8:	2800      	cmp	r0, #0
10016cfa:	f47f ac15 	bne.w	10016528 <_vfiprintf_r+0x264>
10016cfe:	e9dd 2110 	ldrd	r2, r1, [sp, #64]	@ 0x40
10016d02:	9b06      	ldr	r3, [sp, #24]
10016d04:	46ca      	mov	sl, r9
10016d06:	e459      	b.n	100165bc <_vfiprintf_r+0x2f8>
10016d08:	2b06      	cmp	r3, #6
10016d0a:	bf28      	it	cs
10016d0c:	2306      	movcs	r3, #6
10016d0e:	4c1b      	ldr	r4, [pc, #108]	@ (10016d7c <_vfiprintf_r+0xab8>)
10016d10:	9507      	str	r5, [sp, #28]
10016d12:	9301      	str	r3, [sp, #4]
10016d14:	e41b      	b.n	1001654e <_vfiprintf_r+0x28a>
10016d16:	e9cd 2506 	strd	r2, r5, [sp, #24]
10016d1a:	9203      	str	r2, [sp, #12]
10016d1c:	e41a      	b.n	10016554 <_vfiprintf_r+0x290>
10016d1e:	f028 0180 	bic.w	r1, r8, #128	@ 0x80
10016d22:	f041 0802 	orr.w	r8, r1, #2
10016d26:	e5ce      	b.n	100168c6 <_vfiprintf_r+0x602>
10016d28:	9902      	ldr	r1, [sp, #8]
10016d2a:	9808      	ldr	r0, [sp, #32]
10016d2c:	aa0f      	add	r2, sp, #60	@ 0x3c
10016d2e:	f7fe fa01 	bl	10015134 <__sprint_r>
10016d32:	f7ff bbf9 	b.w	10016528 <_vfiprintf_r+0x264>
10016d36:	9b03      	ldr	r3, [sp, #12]
10016d38:	e593      	b.n	10016862 <_vfiprintf_r+0x59e>
10016d3a:	2300      	movs	r3, #0
10016d3c:	4683      	mov	fp, r0
10016d3e:	9303      	str	r3, [sp, #12]
10016d40:	f7ff bb1a 	b.w	10016378 <_vfiprintf_r+0xb4>
10016d44:	f04f 33ff 	mov.w	r3, #4294967295	@ 0xffffffff
10016d48:	9305      	str	r3, [sp, #20]
10016d4a:	f7ff bbf2 	b.w	10016532 <_vfiprintf_r+0x26e>
10016d4e:	2330      	movs	r3, #48	@ 0x30
10016d50:	e484      	b.n	1001665c <_vfiprintf_r+0x398>
10016d52:	9b07      	ldr	r3, [sp, #28]
10016d54:	f89b 1001 	ldrb.w	r1, [fp, #1]
10016d58:	f853 2b04 	ldr.w	r2, [r3], #4
10016d5c:	9307      	str	r3, [sp, #28]
10016d5e:	ea42 72e2 	orr.w	r2, r2, r2, asr #31
10016d62:	4683      	mov	fp, r0
10016d64:	9203      	str	r2, [sp, #12]
10016d66:	f7ff bb05 	b.w	10016374 <_vfiprintf_r+0xb0>
10016d6a:	2500      	movs	r5, #0
10016d6c:	e46f      	b.n	1001664e <_vfiprintf_r+0x38a>
10016d6e:	bf00      	nop
10016d70:	10017bec 	.word	0x10017bec
10016d74:	10017c00 	.word	0x10017c00
10016d78:	cccccccd 	.word	0xcccccccd
10016d7c:	10017c14 	.word	0x10017c14

10016d80 <vfiprintf>:
10016d80:	b410      	push	{r4}
10016d82:	4c04      	ldr	r4, [pc, #16]	@ (10016d94 <vfiprintf+0x14>)
10016d84:	4684      	mov	ip, r0
10016d86:	4613      	mov	r3, r2
10016d88:	6820      	ldr	r0, [r4, #0]
10016d8a:	bc10      	pop	{r4}
10016d8c:	460a      	mov	r2, r1
10016d8e:	4661      	mov	r1, ip
10016d90:	f7ff ba98 	b.w	100162c4 <_vfiprintf_r>
10016d94:	20000010 	.word	0x20000010

10016d98 <__sbprintf>:
10016d98:	b570      	push	{r4, r5, r6, lr}
10016d9a:	460c      	mov	r4, r1
10016d9c:	8989      	ldrh	r1, [r1, #12]
10016d9e:	f5ad 6d8d 	sub.w	sp, sp, #1128	@ 0x468
10016da2:	f021 0102 	bic.w	r1, r1, #2
10016da6:	f8ad 100c 	strh.w	r1, [sp, #12]
10016daa:	a91a      	add	r1, sp, #104	@ 0x68
10016dac:	9100      	str	r1, [sp, #0]
10016dae:	9104      	str	r1, [sp, #16]
10016db0:	f44f 6180 	mov.w	r1, #1024	@ 0x400
10016db4:	9102      	str	r1, [sp, #8]
10016db6:	9105      	str	r1, [sp, #20]
10016db8:	6e61      	ldr	r1, [r4, #100]	@ 0x64
10016dba:	9119      	str	r1, [sp, #100]	@ 0x64
10016dbc:	89e1      	ldrh	r1, [r4, #14]
10016dbe:	f8ad 100e 	strh.w	r1, [sp, #14]
10016dc2:	69e1      	ldr	r1, [r4, #28]
10016dc4:	9107      	str	r1, [sp, #28]
10016dc6:	6a61      	ldr	r1, [r4, #36]	@ 0x24
10016dc8:	9109      	str	r1, [sp, #36]	@ 0x24
10016dca:	2100      	movs	r1, #0
10016dcc:	9106      	str	r1, [sp, #24]
10016dce:	4669      	mov	r1, sp
10016dd0:	4606      	mov	r6, r0
10016dd2:	f7ff fa77 	bl	100162c4 <_vfiprintf_r>
10016dd6:	1e05      	subs	r5, r0, #0
10016dd8:	db07      	blt.n	10016dea <__sbprintf+0x52>
10016dda:	4669      	mov	r1, sp
10016ddc:	4630      	mov	r0, r6
10016dde:	f7f9 f901 	bl	1000ffe4 <_fflush_r>
10016de2:	2800      	cmp	r0, #0
10016de4:	bf18      	it	ne
10016de6:	f04f 35ff 	movne.w	r5, #4294967295	@ 0xffffffff
10016dea:	f8bd 300c 	ldrh.w	r3, [sp, #12]
10016dee:	065b      	lsls	r3, r3, #25
10016df0:	d503      	bpl.n	10016dfa <__sbprintf+0x62>
10016df2:	89a3      	ldrh	r3, [r4, #12]
10016df4:	f043 0340 	orr.w	r3, r3, #64	@ 0x40
10016df8:	81a3      	strh	r3, [r4, #12]
10016dfa:	4628      	mov	r0, r5
10016dfc:	f50d 6d8d 	add.w	sp, sp, #1128	@ 0x468
10016e00:	bd70      	pop	{r4, r5, r6, pc}
10016e02:	bf00      	nop

10016e04 <_exit>:
10016e04:	e7fe      	b.n	10016e04 <_exit>
10016e06:	bf00      	nop

10016e08 <__aeabi_drsub>:
10016e08:	f081 4100 	eor.w	r1, r1, #2147483648	@ 0x80000000
10016e0c:	e002      	b.n	10016e14 <__adddf3>
10016e0e:	bf00      	nop

10016e10 <__aeabi_dsub>:
10016e10:	f083 4300 	eor.w	r3, r3, #2147483648	@ 0x80000000

10016e14 <__adddf3>:
10016e14:	b530      	push	{r4, r5, lr}
10016e16:	ea4f 0441 	mov.w	r4, r1, lsl #1
10016e1a:	ea4f 0543 	mov.w	r5, r3, lsl #1
10016e1e:	ea94 0f05 	teq	r4, r5
10016e22:	bf08      	it	eq
10016e24:	ea90 0f02 	teqeq	r0, r2
10016e28:	bf1f      	itttt	ne
10016e2a:	ea54 0c00 	orrsne.w	ip, r4, r0
10016e2e:	ea55 0c02 	orrsne.w	ip, r5, r2
10016e32:	ea7f 5c64 	mvnsne.w	ip, r4, asr #21
10016e36:	ea7f 5c65 	mvnsne.w	ip, r5, asr #21
10016e3a:	f000 80e2 	beq.w	10017002 <__adddf3+0x1ee>
10016e3e:	ea4f 5454 	mov.w	r4, r4, lsr #21
10016e42:	ebd4 5555 	rsbs	r5, r4, r5, lsr #21
10016e46:	bfb8      	it	lt
10016e48:	426d      	neglt	r5, r5
10016e4a:	dd0c      	ble.n	10016e66 <__adddf3+0x52>
10016e4c:	442c      	add	r4, r5
10016e4e:	ea80 0202 	eor.w	r2, r0, r2
10016e52:	ea81 0303 	eor.w	r3, r1, r3
10016e56:	ea82 0000 	eor.w	r0, r2, r0
10016e5a:	ea83 0101 	eor.w	r1, r3, r1
10016e5e:	ea80 0202 	eor.w	r2, r0, r2
10016e62:	ea81 0303 	eor.w	r3, r1, r3
10016e66:	2d36      	cmp	r5, #54	@ 0x36
10016e68:	bf88      	it	hi
10016e6a:	bd30      	pophi	{r4, r5, pc}
10016e6c:	f011 4f00 	tst.w	r1, #2147483648	@ 0x80000000
10016e70:	ea4f 3101 	mov.w	r1, r1, lsl #12
10016e74:	f44f 1c80 	mov.w	ip, #1048576	@ 0x100000
10016e78:	ea4c 3111 	orr.w	r1, ip, r1, lsr #12
10016e7c:	d002      	beq.n	10016e84 <__adddf3+0x70>
10016e7e:	4240      	negs	r0, r0
10016e80:	eb61 0141 	sbc.w	r1, r1, r1, lsl #1
10016e84:	f013 4f00 	tst.w	r3, #2147483648	@ 0x80000000
10016e88:	ea4f 3303 	mov.w	r3, r3, lsl #12
10016e8c:	ea4c 3313 	orr.w	r3, ip, r3, lsr #12
10016e90:	d002      	beq.n	10016e98 <__adddf3+0x84>
10016e92:	4252      	negs	r2, r2
10016e94:	eb63 0343 	sbc.w	r3, r3, r3, lsl #1
10016e98:	ea94 0f05 	teq	r4, r5
10016e9c:	f000 80a7 	beq.w	10016fee <__adddf3+0x1da>
10016ea0:	f1a4 0401 	sub.w	r4, r4, #1
10016ea4:	f1d5 0e20 	rsbs	lr, r5, #32
10016ea8:	db0d      	blt.n	10016ec6 <__adddf3+0xb2>
10016eaa:	fa02 fc0e 	lsl.w	ip, r2, lr
10016eae:	fa22 f205 	lsr.w	r2, r2, r5
10016eb2:	1880      	adds	r0, r0, r2
10016eb4:	f141 0100 	adc.w	r1, r1, #0
10016eb8:	fa03 f20e 	lsl.w	r2, r3, lr
10016ebc:	1880      	adds	r0, r0, r2
10016ebe:	fa43 f305 	asr.w	r3, r3, r5
10016ec2:	4159      	adcs	r1, r3
10016ec4:	e00e      	b.n	10016ee4 <__adddf3+0xd0>
10016ec6:	f1a5 0520 	sub.w	r5, r5, #32
10016eca:	f10e 0e20 	add.w	lr, lr, #32
10016ece:	2a01      	cmp	r2, #1
10016ed0:	fa03 fc0e 	lsl.w	ip, r3, lr
10016ed4:	bf28      	it	cs
10016ed6:	f04c 0c02 	orrcs.w	ip, ip, #2
10016eda:	fa43 f305 	asr.w	r3, r3, r5
10016ede:	18c0      	adds	r0, r0, r3
10016ee0:	eb51 71e3 	adcs.w	r1, r1, r3, asr #31
10016ee4:	f001 4500 	and.w	r5, r1, #2147483648	@ 0x80000000
10016ee8:	d507      	bpl.n	10016efa <__adddf3+0xe6>
10016eea:	f04f 0e00 	mov.w	lr, #0
10016eee:	f1dc 0c00 	rsbs	ip, ip, #0
10016ef2:	eb7e 0000 	sbcs.w	r0, lr, r0
10016ef6:	eb6e 0101 	sbc.w	r1, lr, r1
10016efa:	f5b1 1f80 	cmp.w	r1, #1048576	@ 0x100000
10016efe:	d31b      	bcc.n	10016f38 <__adddf3+0x124>
10016f00:	f5b1 1f00 	cmp.w	r1, #2097152	@ 0x200000
10016f04:	d30c      	bcc.n	10016f20 <__adddf3+0x10c>
10016f06:	0849      	lsrs	r1, r1, #1
10016f08:	ea5f 0030 	movs.w	r0, r0, rrx
10016f0c:	ea4f 0c3c 	mov.w	ip, ip, rrx
10016f10:	f104 0401 	add.w	r4, r4, #1
10016f14:	ea4f 5244 	mov.w	r2, r4, lsl #21
10016f18:	f512 0f80 	cmn.w	r2, #4194304	@ 0x400000
10016f1c:	f080 809a 	bcs.w	10017054 <__adddf3+0x240>
10016f20:	f1bc 4f00 	cmp.w	ip, #2147483648	@ 0x80000000
10016f24:	bf08      	it	eq
10016f26:	ea5f 0c50 	movseq.w	ip, r0, lsr #1
10016f2a:	f150 0000 	adcs.w	r0, r0, #0
10016f2e:	eb41 5104 	adc.w	r1, r1, r4, lsl #20
10016f32:	ea41 0105 	orr.w	r1, r1, r5
10016f36:	bd30      	pop	{r4, r5, pc}
10016f38:	ea5f 0c4c 	movs.w	ip, ip, lsl #1
10016f3c:	4140      	adcs	r0, r0
10016f3e:	eb41 0101 	adc.w	r1, r1, r1
10016f42:	3c01      	subs	r4, #1
10016f44:	bf28      	it	cs
10016f46:	f5b1 1f80 	cmpcs.w	r1, #1048576	@ 0x100000
10016f4a:	d2e9      	bcs.n	10016f20 <__adddf3+0x10c>
10016f4c:	f091 0f00 	teq	r1, #0
10016f50:	bf04      	itt	eq
10016f52:	4601      	moveq	r1, r0
10016f54:	2000      	moveq	r0, #0
10016f56:	fab1 f381 	clz	r3, r1
10016f5a:	bf08      	it	eq
10016f5c:	3320      	addeq	r3, #32
10016f5e:	f1a3 030b 	sub.w	r3, r3, #11
10016f62:	f1b3 0220 	subs.w	r2, r3, #32
10016f66:	da0c      	bge.n	10016f82 <__adddf3+0x16e>
10016f68:	320c      	adds	r2, #12
10016f6a:	dd08      	ble.n	10016f7e <__adddf3+0x16a>
10016f6c:	f102 0c14 	add.w	ip, r2, #20
10016f70:	f1c2 020c 	rsb	r2, r2, #12
10016f74:	fa01 f00c 	lsl.w	r0, r1, ip
10016f78:	fa21 f102 	lsr.w	r1, r1, r2
10016f7c:	e00c      	b.n	10016f98 <__adddf3+0x184>
10016f7e:	f102 0214 	add.w	r2, r2, #20
10016f82:	bfd8      	it	le
10016f84:	f1c2 0c20 	rsble	ip, r2, #32
10016f88:	fa01 f102 	lsl.w	r1, r1, r2
10016f8c:	fa20 fc0c 	lsr.w	ip, r0, ip
10016f90:	bfdc      	itt	le
10016f92:	ea41 010c 	orrle.w	r1, r1, ip
10016f96:	4090      	lslle	r0, r2
10016f98:	1ae4      	subs	r4, r4, r3
10016f9a:	bfa2      	ittt	ge
10016f9c:	eb01 5104 	addge.w	r1, r1, r4, lsl #20
10016fa0:	4329      	orrge	r1, r5
10016fa2:	bd30      	popge	{r4, r5, pc}
10016fa4:	ea6f 0404 	mvn.w	r4, r4
10016fa8:	3c1f      	subs	r4, #31
10016faa:	da1c      	bge.n	10016fe6 <__adddf3+0x1d2>
10016fac:	340c      	adds	r4, #12
10016fae:	dc0e      	bgt.n	10016fce <__adddf3+0x1ba>
10016fb0:	f104 0414 	add.w	r4, r4, #20
10016fb4:	f1c4 0220 	rsb	r2, r4, #32
10016fb8:	fa20 f004 	lsr.w	r0, r0, r4
10016fbc:	fa01 f302 	lsl.w	r3, r1, r2
10016fc0:	ea40 0003 	orr.w	r0, r0, r3
10016fc4:	fa21 f304 	lsr.w	r3, r1, r4
10016fc8:	ea45 0103 	orr.w	r1, r5, r3
10016fcc:	bd30      	pop	{r4, r5, pc}
10016fce:	f1c4 040c 	rsb	r4, r4, #12
10016fd2:	f1c4 0220 	rsb	r2, r4, #32
10016fd6:	fa20 f002 	lsr.w	r0, r0, r2
10016fda:	fa01 f304 	lsl.w	r3, r1, r4
10016fde:	ea40 0003 	orr.w	r0, r0, r3
10016fe2:	4629      	mov	r1, r5
10016fe4:	bd30      	pop	{r4, r5, pc}
10016fe6:	fa21 f004 	lsr.w	r0, r1, r4
10016fea:	4629      	mov	r1, r5
10016fec:	bd30      	pop	{r4, r5, pc}
10016fee:	f094 0f00 	teq	r4, #0
10016ff2:	f483 1380 	eor.w	r3, r3, #1048576	@ 0x100000
10016ff6:	bf06      	itte	eq
10016ff8:	f481 1180 	eoreq.w	r1, r1, #1048576	@ 0x100000
10016ffc:	3401      	addeq	r4, #1
10016ffe:	3d01      	subne	r5, #1
10017000:	e74e      	b.n	10016ea0 <__adddf3+0x8c>
10017002:	ea7f 5c64 	mvns.w	ip, r4, asr #21
10017006:	bf18      	it	ne
10017008:	ea7f 5c65 	mvnsne.w	ip, r5, asr #21
1001700c:	d029      	beq.n	10017062 <__adddf3+0x24e>
1001700e:	ea94 0f05 	teq	r4, r5
10017012:	bf08      	it	eq
10017014:	ea90 0f02 	teqeq	r0, r2
10017018:	d005      	beq.n	10017026 <__adddf3+0x212>
1001701a:	ea54 0c00 	orrs.w	ip, r4, r0
1001701e:	bf04      	itt	eq
10017020:	4619      	moveq	r1, r3
10017022:	4610      	moveq	r0, r2
10017024:	bd30      	pop	{r4, r5, pc}
10017026:	ea91 0f03 	teq	r1, r3
1001702a:	bf1e      	ittt	ne
1001702c:	2100      	movne	r1, #0
1001702e:	2000      	movne	r0, #0
10017030:	bd30      	popne	{r4, r5, pc}
10017032:	ea5f 5c54 	movs.w	ip, r4, lsr #21
10017036:	d105      	bne.n	10017044 <__adddf3+0x230>
10017038:	0040      	lsls	r0, r0, #1
1001703a:	4149      	adcs	r1, r1
1001703c:	bf28      	it	cs
1001703e:	f041 4100 	orrcs.w	r1, r1, #2147483648	@ 0x80000000
10017042:	bd30      	pop	{r4, r5, pc}
10017044:	f514 0480 	adds.w	r4, r4, #4194304	@ 0x400000
10017048:	bf3c      	itt	cc
1001704a:	f501 1180 	addcc.w	r1, r1, #1048576	@ 0x100000
1001704e:	bd30      	popcc	{r4, r5, pc}
10017050:	f001 4500 	and.w	r5, r1, #2147483648	@ 0x80000000
10017054:	f045 41fe 	orr.w	r1, r5, #2130706432	@ 0x7f000000
10017058:	f441 0170 	orr.w	r1, r1, #15728640	@ 0xf00000
1001705c:	f04f 0000 	mov.w	r0, #0
10017060:	bd30      	pop	{r4, r5, pc}
10017062:	ea7f 5c64 	mvns.w	ip, r4, asr #21
10017066:	bf1a      	itte	ne
10017068:	4619      	movne	r1, r3
1001706a:	4610      	movne	r0, r2
1001706c:	ea7f 5c65 	mvnseq.w	ip, r5, asr #21
10017070:	bf1c      	itt	ne
10017072:	460b      	movne	r3, r1
10017074:	4602      	movne	r2, r0
10017076:	ea50 3401 	orrs.w	r4, r0, r1, lsl #12
1001707a:	bf06      	itte	eq
1001707c:	ea52 3503 	orrseq.w	r5, r2, r3, lsl #12
10017080:	ea91 0f03 	teqeq	r1, r3
10017084:	f441 2100 	orrne.w	r1, r1, #524288	@ 0x80000
10017088:	bd30      	pop	{r4, r5, pc}
1001708a:	bf00      	nop

1001708c <__aeabi_ui2d>:
1001708c:	f090 0f00 	teq	r0, #0
10017090:	bf04      	itt	eq
10017092:	2100      	moveq	r1, #0
10017094:	4770      	bxeq	lr
10017096:	b530      	push	{r4, r5, lr}
10017098:	f44f 6480 	mov.w	r4, #1024	@ 0x400
1001709c:	f104 0432 	add.w	r4, r4, #50	@ 0x32
100170a0:	f04f 0500 	mov.w	r5, #0
100170a4:	f04f 0100 	mov.w	r1, #0
100170a8:	e750      	b.n	10016f4c <__adddf3+0x138>
100170aa:	bf00      	nop

100170ac <__aeabi_i2d>:
100170ac:	f090 0f00 	teq	r0, #0
100170b0:	bf04      	itt	eq
100170b2:	2100      	moveq	r1, #0
100170b4:	4770      	bxeq	lr
100170b6:	b530      	push	{r4, r5, lr}
100170b8:	f44f 6480 	mov.w	r4, #1024	@ 0x400
100170bc:	f104 0432 	add.w	r4, r4, #50	@ 0x32
100170c0:	f010 4500 	ands.w	r5, r0, #2147483648	@ 0x80000000
100170c4:	bf48      	it	mi
100170c6:	4240      	negmi	r0, r0
100170c8:	f04f 0100 	mov.w	r1, #0
100170cc:	e73e      	b.n	10016f4c <__adddf3+0x138>
100170ce:	bf00      	nop

100170d0 <__aeabi_f2d>:
100170d0:	0042      	lsls	r2, r0, #1
100170d2:	ea4f 01e2 	mov.w	r1, r2, asr #3
100170d6:	ea4f 0131 	mov.w	r1, r1, rrx
100170da:	ea4f 7002 	mov.w	r0, r2, lsl #28
100170de:	bf1f      	itttt	ne
100170e0:	f012 437f 	andsne.w	r3, r2, #4278190080	@ 0xff000000
100170e4:	f093 4f7f 	teqne	r3, #4278190080	@ 0xff000000
100170e8:	f081 5160 	eorne.w	r1, r1, #939524096	@ 0x38000000
100170ec:	4770      	bxne	lr
100170ee:	f032 427f 	bics.w	r2, r2, #4278190080	@ 0xff000000
100170f2:	bf08      	it	eq
100170f4:	4770      	bxeq	lr
100170f6:	f093 4f7f 	teq	r3, #4278190080	@ 0xff000000
100170fa:	bf04      	itt	eq
100170fc:	f441 2100 	orreq.w	r1, r1, #524288	@ 0x80000
10017100:	4770      	bxeq	lr
10017102:	b530      	push	{r4, r5, lr}
10017104:	f44f 7460 	mov.w	r4, #896	@ 0x380
10017108:	f001 4500 	and.w	r5, r1, #2147483648	@ 0x80000000
1001710c:	f021 4100 	bic.w	r1, r1, #2147483648	@ 0x80000000
10017110:	e71c      	b.n	10016f4c <__adddf3+0x138>
10017112:	bf00      	nop

10017114 <__aeabi_ul2d>:
10017114:	ea50 0201 	orrs.w	r2, r0, r1
10017118:	bf08      	it	eq
1001711a:	4770      	bxeq	lr
1001711c:	b530      	push	{r4, r5, lr}
1001711e:	f04f 0500 	mov.w	r5, #0
10017122:	e00a      	b.n	1001713a <__aeabi_l2d+0x16>

10017124 <__aeabi_l2d>:
10017124:	ea50 0201 	orrs.w	r2, r0, r1
10017128:	bf08      	it	eq
1001712a:	4770      	bxeq	lr
1001712c:	b530      	push	{r4, r5, lr}
1001712e:	f011 4500 	ands.w	r5, r1, #2147483648	@ 0x80000000
10017132:	d502      	bpl.n	1001713a <__aeabi_l2d+0x16>
10017134:	4240      	negs	r0, r0
10017136:	eb61 0141 	sbc.w	r1, r1, r1, lsl #1
1001713a:	f44f 6480 	mov.w	r4, #1024	@ 0x400
1001713e:	f104 0432 	add.w	r4, r4, #50	@ 0x32
10017142:	ea5f 5c91 	movs.w	ip, r1, lsr #22
10017146:	f43f aed8 	beq.w	10016efa <__adddf3+0xe6>
1001714a:	f04f 0203 	mov.w	r2, #3
1001714e:	ea5f 0cdc 	movs.w	ip, ip, lsr #3
10017152:	bf18      	it	ne
10017154:	3203      	addne	r2, #3
10017156:	ea5f 0cdc 	movs.w	ip, ip, lsr #3
1001715a:	bf18      	it	ne
1001715c:	3203      	addne	r2, #3
1001715e:	eb02 02dc 	add.w	r2, r2, ip, lsr #3
10017162:	f1c2 0320 	rsb	r3, r2, #32
10017166:	fa00 fc03 	lsl.w	ip, r0, r3
1001716a:	fa20 f002 	lsr.w	r0, r0, r2
1001716e:	fa01 fe03 	lsl.w	lr, r1, r3
10017172:	ea40 000e 	orr.w	r0, r0, lr
10017176:	fa21 f102 	lsr.w	r1, r1, r2
1001717a:	4414      	add	r4, r2
1001717c:	e6bd      	b.n	10016efa <__adddf3+0xe6>
1001717e:	bf00      	nop

10017180 <__aeabi_dmul>:
10017180:	b570      	push	{r4, r5, r6, lr}
10017182:	f04f 0cff 	mov.w	ip, #255	@ 0xff
10017186:	f44c 6ce0 	orr.w	ip, ip, #1792	@ 0x700
1001718a:	ea1c 5411 	ands.w	r4, ip, r1, lsr #20
1001718e:	bf1d      	ittte	ne
10017190:	ea1c 5513 	andsne.w	r5, ip, r3, lsr #20
10017194:	ea94 0f0c 	teqne	r4, ip
10017198:	ea95 0f0c 	teqne	r5, ip
1001719c:	f000 f8de 	bleq	1001735c <__aeabi_dmul+0x1dc>
100171a0:	442c      	add	r4, r5
100171a2:	ea81 0603 	eor.w	r6, r1, r3
100171a6:	ea21 514c 	bic.w	r1, r1, ip, lsl #21
100171aa:	ea23 534c 	bic.w	r3, r3, ip, lsl #21
100171ae:	ea50 3501 	orrs.w	r5, r0, r1, lsl #12
100171b2:	bf18      	it	ne
100171b4:	ea52 3503 	orrsne.w	r5, r2, r3, lsl #12
100171b8:	f441 1180 	orr.w	r1, r1, #1048576	@ 0x100000
100171bc:	f443 1380 	orr.w	r3, r3, #1048576	@ 0x100000
100171c0:	d038      	beq.n	10017234 <__aeabi_dmul+0xb4>
100171c2:	fba0 ce02 	umull	ip, lr, r0, r2
100171c6:	f04f 0500 	mov.w	r5, #0
100171ca:	fbe1 e502 	umlal	lr, r5, r1, r2
100171ce:	f006 4200 	and.w	r2, r6, #2147483648	@ 0x80000000
100171d2:	fbe0 e503 	umlal	lr, r5, r0, r3
100171d6:	f04f 0600 	mov.w	r6, #0
100171da:	fbe1 5603 	umlal	r5, r6, r1, r3
100171de:	f09c 0f00 	teq	ip, #0
100171e2:	bf18      	it	ne
100171e4:	f04e 0e01 	orrne.w	lr, lr, #1
100171e8:	f1a4 04ff 	sub.w	r4, r4, #255	@ 0xff
100171ec:	f5b6 7f00 	cmp.w	r6, #512	@ 0x200
100171f0:	f564 7440 	sbc.w	r4, r4, #768	@ 0x300
100171f4:	d204      	bcs.n	10017200 <__aeabi_dmul+0x80>
100171f6:	ea5f 0e4e 	movs.w	lr, lr, lsl #1
100171fa:	416d      	adcs	r5, r5
100171fc:	eb46 0606 	adc.w	r6, r6, r6
10017200:	ea42 21c6 	orr.w	r1, r2, r6, lsl #11
10017204:	ea41 5155 	orr.w	r1, r1, r5, lsr #21
10017208:	ea4f 20c5 	mov.w	r0, r5, lsl #11
1001720c:	ea40 505e 	orr.w	r0, r0, lr, lsr #21
10017210:	ea4f 2ece 	mov.w	lr, lr, lsl #11
10017214:	f1b4 0cfd 	subs.w	ip, r4, #253	@ 0xfd
10017218:	bf88      	it	hi
1001721a:	f5bc 6fe0 	cmphi.w	ip, #1792	@ 0x700
1001721e:	d81e      	bhi.n	1001725e <__aeabi_dmul+0xde>
10017220:	f1be 4f00 	cmp.w	lr, #2147483648	@ 0x80000000
10017224:	bf08      	it	eq
10017226:	ea5f 0e50 	movseq.w	lr, r0, lsr #1
1001722a:	f150 0000 	adcs.w	r0, r0, #0
1001722e:	eb41 5104 	adc.w	r1, r1, r4, lsl #20
10017232:	bd70      	pop	{r4, r5, r6, pc}
10017234:	f006 4600 	and.w	r6, r6, #2147483648	@ 0x80000000
10017238:	ea46 0101 	orr.w	r1, r6, r1
1001723c:	ea40 0002 	orr.w	r0, r0, r2
10017240:	ea81 0103 	eor.w	r1, r1, r3
10017244:	ebb4 045c 	subs.w	r4, r4, ip, lsr #1
10017248:	bfc2      	ittt	gt
1001724a:	ebd4 050c 	rsbsgt	r5, r4, ip
1001724e:	ea41 5104 	orrgt.w	r1, r1, r4, lsl #20
10017252:	bd70      	popgt	{r4, r5, r6, pc}
10017254:	f441 1180 	orr.w	r1, r1, #1048576	@ 0x100000
10017258:	f04f 0e00 	mov.w	lr, #0
1001725c:	3c01      	subs	r4, #1
1001725e:	f300 80ab 	bgt.w	100173b8 <__aeabi_dmul+0x238>
10017262:	f114 0f36 	cmn.w	r4, #54	@ 0x36
10017266:	bfde      	ittt	le
10017268:	2000      	movle	r0, #0
1001726a:	f001 4100 	andle.w	r1, r1, #2147483648	@ 0x80000000
1001726e:	bd70      	pople	{r4, r5, r6, pc}
10017270:	f1c4 0400 	rsb	r4, r4, #0
10017274:	3c20      	subs	r4, #32
10017276:	da35      	bge.n	100172e4 <__aeabi_dmul+0x164>
10017278:	340c      	adds	r4, #12
1001727a:	dc1b      	bgt.n	100172b4 <__aeabi_dmul+0x134>
1001727c:	f104 0414 	add.w	r4, r4, #20
10017280:	f1c4 0520 	rsb	r5, r4, #32
10017284:	fa00 f305 	lsl.w	r3, r0, r5
10017288:	fa20 f004 	lsr.w	r0, r0, r4
1001728c:	fa01 f205 	lsl.w	r2, r1, r5
10017290:	ea40 0002 	orr.w	r0, r0, r2
10017294:	f001 4200 	and.w	r2, r1, #2147483648	@ 0x80000000
10017298:	f021 4100 	bic.w	r1, r1, #2147483648	@ 0x80000000
1001729c:	eb10 70d3 	adds.w	r0, r0, r3, lsr #31
100172a0:	fa21 f604 	lsr.w	r6, r1, r4
100172a4:	eb42 0106 	adc.w	r1, r2, r6
100172a8:	ea5e 0e43 	orrs.w	lr, lr, r3, lsl #1
100172ac:	bf08      	it	eq
100172ae:	ea20 70d3 	biceq.w	r0, r0, r3, lsr #31
100172b2:	bd70      	pop	{r4, r5, r6, pc}
100172b4:	f1c4 040c 	rsb	r4, r4, #12
100172b8:	f1c4 0520 	rsb	r5, r4, #32
100172bc:	fa00 f304 	lsl.w	r3, r0, r4
100172c0:	fa20 f005 	lsr.w	r0, r0, r5
100172c4:	fa01 f204 	lsl.w	r2, r1, r4
100172c8:	ea40 0002 	orr.w	r0, r0, r2
100172cc:	f001 4100 	and.w	r1, r1, #2147483648	@ 0x80000000
100172d0:	eb10 70d3 	adds.w	r0, r0, r3, lsr #31
100172d4:	f141 0100 	adc.w	r1, r1, #0
100172d8:	ea5e 0e43 	orrs.w	lr, lr, r3, lsl #1
100172dc:	bf08      	it	eq
100172de:	ea20 70d3 	biceq.w	r0, r0, r3, lsr #31
100172e2:	bd70      	pop	{r4, r5, r6, pc}
100172e4:	f1c4 0520 	rsb	r5, r4, #32
100172e8:	fa00 f205 	lsl.w	r2, r0, r5
100172ec:	ea4e 0e02 	orr.w	lr, lr, r2
100172f0:	fa20 f304 	lsr.w	r3, r0, r4
100172f4:	fa01 f205 	lsl.w	r2, r1, r5
100172f8:	ea43 0302 	orr.w	r3, r3, r2
100172fc:	fa21 f004 	lsr.w	r0, r1, r4
10017300:	f001 4100 	and.w	r1, r1, #2147483648	@ 0x80000000
10017304:	fa21 f204 	lsr.w	r2, r1, r4
10017308:	ea20 0002 	bic.w	r0, r0, r2
1001730c:	eb00 70d3 	add.w	r0, r0, r3, lsr #31
10017310:	ea5e 0e43 	orrs.w	lr, lr, r3, lsl #1
10017314:	bf08      	it	eq
10017316:	ea20 70d3 	biceq.w	r0, r0, r3, lsr #31
1001731a:	bd70      	pop	{r4, r5, r6, pc}
1001731c:	f094 0f00 	teq	r4, #0
10017320:	d10f      	bne.n	10017342 <__aeabi_dmul+0x1c2>
10017322:	f001 4600 	and.w	r6, r1, #2147483648	@ 0x80000000
10017326:	0040      	lsls	r0, r0, #1
10017328:	eb41 0101 	adc.w	r1, r1, r1
1001732c:	f411 1f80 	tst.w	r1, #1048576	@ 0x100000
10017330:	bf08      	it	eq
10017332:	3c01      	subeq	r4, #1
10017334:	d0f7      	beq.n	10017326 <__aeabi_dmul+0x1a6>
10017336:	ea41 0106 	orr.w	r1, r1, r6
1001733a:	f095 0f00 	teq	r5, #0
1001733e:	bf18      	it	ne
10017340:	4770      	bxne	lr
10017342:	f003 4600 	and.w	r6, r3, #2147483648	@ 0x80000000
10017346:	0052      	lsls	r2, r2, #1
10017348:	eb43 0303 	adc.w	r3, r3, r3
1001734c:	f413 1f80 	tst.w	r3, #1048576	@ 0x100000
10017350:	bf08      	it	eq
10017352:	3d01      	subeq	r5, #1
10017354:	d0f7      	beq.n	10017346 <__aeabi_dmul+0x1c6>
10017356:	ea43 0306 	orr.w	r3, r3, r6
1001735a:	4770      	bx	lr
1001735c:	ea94 0f0c 	teq	r4, ip
10017360:	ea0c 5513 	and.w	r5, ip, r3, lsr #20
10017364:	bf18      	it	ne
10017366:	ea95 0f0c 	teqne	r5, ip
1001736a:	d00c      	beq.n	10017386 <__aeabi_dmul+0x206>
1001736c:	ea50 0641 	orrs.w	r6, r0, r1, lsl #1
10017370:	bf18      	it	ne
10017372:	ea52 0643 	orrsne.w	r6, r2, r3, lsl #1
10017376:	d1d1      	bne.n	1001731c <__aeabi_dmul+0x19c>
10017378:	ea81 0103 	eor.w	r1, r1, r3
1001737c:	f001 4100 	and.w	r1, r1, #2147483648	@ 0x80000000
10017380:	f04f 0000 	mov.w	r0, #0
10017384:	bd70      	pop	{r4, r5, r6, pc}
10017386:	ea50 0641 	orrs.w	r6, r0, r1, lsl #1
1001738a:	bf06      	itte	eq
1001738c:	4610      	moveq	r0, r2
1001738e:	4619      	moveq	r1, r3
10017390:	ea52 0643 	orrsne.w	r6, r2, r3, lsl #1
10017394:	d019      	beq.n	100173ca <__aeabi_dmul+0x24a>
10017396:	ea94 0f0c 	teq	r4, ip
1001739a:	d102      	bne.n	100173a2 <__aeabi_dmul+0x222>
1001739c:	ea50 3601 	orrs.w	r6, r0, r1, lsl #12
100173a0:	d113      	bne.n	100173ca <__aeabi_dmul+0x24a>
100173a2:	ea95 0f0c 	teq	r5, ip
100173a6:	d105      	bne.n	100173b4 <__aeabi_dmul+0x234>
100173a8:	ea52 3603 	orrs.w	r6, r2, r3, lsl #12
100173ac:	bf1c      	itt	ne
100173ae:	4610      	movne	r0, r2
100173b0:	4619      	movne	r1, r3
100173b2:	d10a      	bne.n	100173ca <__aeabi_dmul+0x24a>
100173b4:	ea81 0103 	eor.w	r1, r1, r3
100173b8:	f001 4100 	and.w	r1, r1, #2147483648	@ 0x80000000
100173bc:	f041 41fe 	orr.w	r1, r1, #2130706432	@ 0x7f000000
100173c0:	f441 0170 	orr.w	r1, r1, #15728640	@ 0xf00000
100173c4:	f04f 0000 	mov.w	r0, #0
100173c8:	bd70      	pop	{r4, r5, r6, pc}
100173ca:	f041 41fe 	orr.w	r1, r1, #2130706432	@ 0x7f000000
100173ce:	f441 0178 	orr.w	r1, r1, #16252928	@ 0xf80000
100173d2:	bd70      	pop	{r4, r5, r6, pc}

100173d4 <__aeabi_ddiv>:
100173d4:	b570      	push	{r4, r5, r6, lr}
100173d6:	f04f 0cff 	mov.w	ip, #255	@ 0xff
100173da:	f44c 6ce0 	orr.w	ip, ip, #1792	@ 0x700
100173de:	ea1c 5411 	ands.w	r4, ip, r1, lsr #20
100173e2:	bf1d      	ittte	ne
100173e4:	ea1c 5513 	andsne.w	r5, ip, r3, lsr #20
100173e8:	ea94 0f0c 	teqne	r4, ip
100173ec:	ea95 0f0c 	teqne	r5, ip
100173f0:	f000 f8a7 	bleq	10017542 <__aeabi_ddiv+0x16e>
100173f4:	eba4 0405 	sub.w	r4, r4, r5
100173f8:	ea81 0e03 	eor.w	lr, r1, r3
100173fc:	ea52 3503 	orrs.w	r5, r2, r3, lsl #12
10017400:	ea4f 3101 	mov.w	r1, r1, lsl #12
10017404:	f000 8088 	beq.w	10017518 <__aeabi_ddiv+0x144>
10017408:	ea4f 3303 	mov.w	r3, r3, lsl #12
1001740c:	f04f 5580 	mov.w	r5, #268435456	@ 0x10000000
10017410:	ea45 1313 	orr.w	r3, r5, r3, lsr #4
10017414:	ea43 6312 	orr.w	r3, r3, r2, lsr #24
10017418:	ea4f 2202 	mov.w	r2, r2, lsl #8
1001741c:	ea45 1511 	orr.w	r5, r5, r1, lsr #4
10017420:	ea45 6510 	orr.w	r5, r5, r0, lsr #24
10017424:	ea4f 2600 	mov.w	r6, r0, lsl #8
10017428:	f00e 4100 	and.w	r1, lr, #2147483648	@ 0x80000000
1001742c:	429d      	cmp	r5, r3
1001742e:	bf08      	it	eq
10017430:	4296      	cmpeq	r6, r2
10017432:	f144 04fd 	adc.w	r4, r4, #253	@ 0xfd
10017436:	f504 7440 	add.w	r4, r4, #768	@ 0x300
1001743a:	d202      	bcs.n	10017442 <__aeabi_ddiv+0x6e>
1001743c:	085b      	lsrs	r3, r3, #1
1001743e:	ea4f 0232 	mov.w	r2, r2, rrx
10017442:	1ab6      	subs	r6, r6, r2
10017444:	eb65 0503 	sbc.w	r5, r5, r3
10017448:	085b      	lsrs	r3, r3, #1
1001744a:	ea4f 0232 	mov.w	r2, r2, rrx
1001744e:	f44f 1080 	mov.w	r0, #1048576	@ 0x100000
10017452:	f44f 2c00 	mov.w	ip, #524288	@ 0x80000
10017456:	ebb6 0e02 	subs.w	lr, r6, r2
1001745a:	eb75 0e03 	sbcs.w	lr, r5, r3
1001745e:	bf22      	ittt	cs
10017460:	1ab6      	subcs	r6, r6, r2
10017462:	4675      	movcs	r5, lr
10017464:	ea40 000c 	orrcs.w	r0, r0, ip
10017468:	085b      	lsrs	r3, r3, #1
1001746a:	ea4f 0232 	mov.w	r2, r2, rrx
1001746e:	ebb6 0e02 	subs.w	lr, r6, r2
10017472:	eb75 0e03 	sbcs.w	lr, r5, r3
10017476:	bf22      	ittt	cs
10017478:	1ab6      	subcs	r6, r6, r2
1001747a:	4675      	movcs	r5, lr
1001747c:	ea40 005c 	orrcs.w	r0, r0, ip, lsr #1
10017480:	085b      	lsrs	r3, r3, #1
10017482:	ea4f 0232 	mov.w	r2, r2, rrx
10017486:	ebb6 0e02 	subs.w	lr, r6, r2
1001748a:	eb75 0e03 	sbcs.w	lr, r5, r3
1001748e:	bf22      	ittt	cs
10017490:	1ab6      	subcs	r6, r6, r2
10017492:	4675      	movcs	r5, lr
10017494:	ea40 009c 	orrcs.w	r0, r0, ip, lsr #2
10017498:	085b      	lsrs	r3, r3, #1
1001749a:	ea4f 0232 	mov.w	r2, r2, rrx
1001749e:	ebb6 0e02 	subs.w	lr, r6, r2
100174a2:	eb75 0e03 	sbcs.w	lr, r5, r3
100174a6:	bf22      	ittt	cs
100174a8:	1ab6      	subcs	r6, r6, r2
100174aa:	4675      	movcs	r5, lr
100174ac:	ea40 00dc 	orrcs.w	r0, r0, ip, lsr #3
100174b0:	ea55 0e06 	orrs.w	lr, r5, r6
100174b4:	d018      	beq.n	100174e8 <__aeabi_ddiv+0x114>
100174b6:	ea4f 1505 	mov.w	r5, r5, lsl #4
100174ba:	ea45 7516 	orr.w	r5, r5, r6, lsr #28
100174be:	ea4f 1606 	mov.w	r6, r6, lsl #4
100174c2:	ea4f 03c3 	mov.w	r3, r3, lsl #3
100174c6:	ea43 7352 	orr.w	r3, r3, r2, lsr #29
100174ca:	ea4f 02c2 	mov.w	r2, r2, lsl #3
100174ce:	ea5f 1c1c 	movs.w	ip, ip, lsr #4
100174d2:	d1c0      	bne.n	10017456 <__aeabi_ddiv+0x82>
100174d4:	f411 1f80 	tst.w	r1, #1048576	@ 0x100000
100174d8:	d10b      	bne.n	100174f2 <__aeabi_ddiv+0x11e>
100174da:	ea41 0100 	orr.w	r1, r1, r0
100174de:	f04f 0000 	mov.w	r0, #0
100174e2:	f04f 4c00 	mov.w	ip, #2147483648	@ 0x80000000
100174e6:	e7b6      	b.n	10017456 <__aeabi_ddiv+0x82>
100174e8:	f411 1f80 	tst.w	r1, #1048576	@ 0x100000
100174ec:	bf04      	itt	eq
100174ee:	4301      	orreq	r1, r0
100174f0:	2000      	moveq	r0, #0
100174f2:	f1b4 0cfd 	subs.w	ip, r4, #253	@ 0xfd
100174f6:	bf88      	it	hi
100174f8:	f5bc 6fe0 	cmphi.w	ip, #1792	@ 0x700
100174fc:	f63f aeaf 	bhi.w	1001725e <__aeabi_dmul+0xde>
10017500:	ebb5 0c03 	subs.w	ip, r5, r3
10017504:	bf04      	itt	eq
10017506:	ebb6 0c02 	subseq.w	ip, r6, r2
1001750a:	ea5f 0c50 	movseq.w	ip, r0, lsr #1
1001750e:	f150 0000 	adcs.w	r0, r0, #0
10017512:	eb41 5104 	adc.w	r1, r1, r4, lsl #20
10017516:	bd70      	pop	{r4, r5, r6, pc}
10017518:	f00e 4e00 	and.w	lr, lr, #2147483648	@ 0x80000000
1001751c:	ea4e 3111 	orr.w	r1, lr, r1, lsr #12
10017520:	eb14 045c 	adds.w	r4, r4, ip, lsr #1
10017524:	bfc2      	ittt	gt
10017526:	ebd4 050c 	rsbsgt	r5, r4, ip
1001752a:	ea41 5104 	orrgt.w	r1, r1, r4, lsl #20
1001752e:	bd70      	popgt	{r4, r5, r6, pc}
10017530:	f441 1180 	orr.w	r1, r1, #1048576	@ 0x100000
10017534:	f04f 0e00 	mov.w	lr, #0
10017538:	3c01      	subs	r4, #1
1001753a:	e690      	b.n	1001725e <__aeabi_dmul+0xde>
1001753c:	ea45 0e06 	orr.w	lr, r5, r6
10017540:	e68d      	b.n	1001725e <__aeabi_dmul+0xde>
10017542:	ea0c 5513 	and.w	r5, ip, r3, lsr #20
10017546:	ea94 0f0c 	teq	r4, ip
1001754a:	bf08      	it	eq
1001754c:	ea95 0f0c 	teqeq	r5, ip
10017550:	f43f af3b 	beq.w	100173ca <__aeabi_dmul+0x24a>
10017554:	ea94 0f0c 	teq	r4, ip
10017558:	d10a      	bne.n	10017570 <__aeabi_ddiv+0x19c>
1001755a:	ea50 3401 	orrs.w	r4, r0, r1, lsl #12
1001755e:	f47f af34 	bne.w	100173ca <__aeabi_dmul+0x24a>
10017562:	ea95 0f0c 	teq	r5, ip
10017566:	f47f af25 	bne.w	100173b4 <__aeabi_dmul+0x234>
1001756a:	4610      	mov	r0, r2
1001756c:	4619      	mov	r1, r3
1001756e:	e72c      	b.n	100173ca <__aeabi_dmul+0x24a>
10017570:	ea95 0f0c 	teq	r5, ip
10017574:	d106      	bne.n	10017584 <__aeabi_ddiv+0x1b0>
10017576:	ea52 3503 	orrs.w	r5, r2, r3, lsl #12
1001757a:	f43f aefd 	beq.w	10017378 <__aeabi_dmul+0x1f8>
1001757e:	4610      	mov	r0, r2
10017580:	4619      	mov	r1, r3
10017582:	e722      	b.n	100173ca <__aeabi_dmul+0x24a>
10017584:	ea50 0641 	orrs.w	r6, r0, r1, lsl #1
10017588:	bf18      	it	ne
1001758a:	ea52 0643 	orrsne.w	r6, r2, r3, lsl #1
1001758e:	f47f aec5 	bne.w	1001731c <__aeabi_dmul+0x19c>
10017592:	ea50 0441 	orrs.w	r4, r0, r1, lsl #1
10017596:	f47f af0d 	bne.w	100173b4 <__aeabi_dmul+0x234>
1001759a:	ea52 0543 	orrs.w	r5, r2, r3, lsl #1
1001759e:	f47f aeeb 	bne.w	10017378 <__aeabi_dmul+0x1f8>
100175a2:	e712      	b.n	100173ca <__aeabi_dmul+0x24a>

100175a4 <__gedf2>:
100175a4:	f04f 3cff 	mov.w	ip, #4294967295	@ 0xffffffff
100175a8:	e006      	b.n	100175b8 <__cmpdf2+0x4>
100175aa:	bf00      	nop

100175ac <__ledf2>:
100175ac:	f04f 0c01 	mov.w	ip, #1
100175b0:	e002      	b.n	100175b8 <__cmpdf2+0x4>
100175b2:	bf00      	nop

100175b4 <__cmpdf2>:
100175b4:	f04f 0c01 	mov.w	ip, #1
100175b8:	f84d cd04 	str.w	ip, [sp, #-4]!
100175bc:	ea4f 0c41 	mov.w	ip, r1, lsl #1
100175c0:	ea7f 5c6c 	mvns.w	ip, ip, asr #21
100175c4:	ea4f 0c43 	mov.w	ip, r3, lsl #1
100175c8:	bf18      	it	ne
100175ca:	ea7f 5c6c 	mvnsne.w	ip, ip, asr #21
100175ce:	d01b      	beq.n	10017608 <__cmpdf2+0x54>
100175d0:	b001      	add	sp, #4
100175d2:	ea50 0c41 	orrs.w	ip, r0, r1, lsl #1
100175d6:	bf0c      	ite	eq
100175d8:	ea52 0c43 	orrseq.w	ip, r2, r3, lsl #1
100175dc:	ea91 0f03 	teqne	r1, r3
100175e0:	bf02      	ittt	eq
100175e2:	ea90 0f02 	teqeq	r0, r2
100175e6:	2000      	moveq	r0, #0
100175e8:	4770      	bxeq	lr
100175ea:	f110 0f00 	cmn.w	r0, #0
100175ee:	ea91 0f03 	teq	r1, r3
100175f2:	bf58      	it	pl
100175f4:	4299      	cmppl	r1, r3
100175f6:	bf08      	it	eq
100175f8:	4290      	cmpeq	r0, r2
100175fa:	bf2c      	ite	cs
100175fc:	17d8      	asrcs	r0, r3, #31
100175fe:	ea6f 70e3 	mvncc.w	r0, r3, asr #31
10017602:	f040 0001 	orr.w	r0, r0, #1
10017606:	4770      	bx	lr
10017608:	ea4f 0c41 	mov.w	ip, r1, lsl #1
1001760c:	ea7f 5c6c 	mvns.w	ip, ip, asr #21
10017610:	d102      	bne.n	10017618 <__cmpdf2+0x64>
10017612:	ea50 3c01 	orrs.w	ip, r0, r1, lsl #12
10017616:	d107      	bne.n	10017628 <__cmpdf2+0x74>
10017618:	ea4f 0c43 	mov.w	ip, r3, lsl #1
1001761c:	ea7f 5c6c 	mvns.w	ip, ip, asr #21
10017620:	d1d6      	bne.n	100175d0 <__cmpdf2+0x1c>
10017622:	ea52 3c03 	orrs.w	ip, r2, r3, lsl #12
10017626:	d0d3      	beq.n	100175d0 <__cmpdf2+0x1c>
10017628:	f85d 0b04 	ldr.w	r0, [sp], #4
1001762c:	4770      	bx	lr
1001762e:	bf00      	nop

10017630 <__aeabi_cdrcmple>:
10017630:	4684      	mov	ip, r0
10017632:	4610      	mov	r0, r2
10017634:	4662      	mov	r2, ip
10017636:	468c      	mov	ip, r1
10017638:	4619      	mov	r1, r3
1001763a:	4663      	mov	r3, ip
1001763c:	e000      	b.n	10017640 <__aeabi_cdcmpeq>
1001763e:	bf00      	nop

10017640 <__aeabi_cdcmpeq>:
10017640:	b501      	push	{r0, lr}
10017642:	f7ff ffb7 	bl	100175b4 <__cmpdf2>
10017646:	2800      	cmp	r0, #0
10017648:	bf48      	it	mi
1001764a:	f110 0f00 	cmnmi.w	r0, #0
1001764e:	bd01      	pop	{r0, pc}

10017650 <__aeabi_dcmpeq>:
10017650:	f84d ed08 	str.w	lr, [sp, #-8]!
10017654:	f7ff fff4 	bl	10017640 <__aeabi_cdcmpeq>
10017658:	bf0c      	ite	eq
1001765a:	2001      	moveq	r0, #1
1001765c:	2000      	movne	r0, #0
1001765e:	f85d fb08 	ldr.w	pc, [sp], #8
10017662:	bf00      	nop

10017664 <__aeabi_dcmplt>:
10017664:	f84d ed08 	str.w	lr, [sp, #-8]!
10017668:	f7ff ffea 	bl	10017640 <__aeabi_cdcmpeq>
1001766c:	bf34      	ite	cc
1001766e:	2001      	movcc	r0, #1
10017670:	2000      	movcs	r0, #0
10017672:	f85d fb08 	ldr.w	pc, [sp], #8
10017676:	bf00      	nop

10017678 <__aeabi_dcmple>:
10017678:	f84d ed08 	str.w	lr, [sp, #-8]!
1001767c:	f7ff ffe0 	bl	10017640 <__aeabi_cdcmpeq>
10017680:	bf94      	ite	ls
10017682:	2001      	movls	r0, #1
10017684:	2000      	movhi	r0, #0
10017686:	f85d fb08 	ldr.w	pc, [sp], #8
1001768a:	bf00      	nop

1001768c <__aeabi_dcmpge>:
1001768c:	f84d ed08 	str.w	lr, [sp, #-8]!
10017690:	f7ff ffce 	bl	10017630 <__aeabi_cdrcmple>
10017694:	bf94      	ite	ls
10017696:	2001      	movls	r0, #1
10017698:	2000      	movhi	r0, #0
1001769a:	f85d fb08 	ldr.w	pc, [sp], #8
1001769e:	bf00      	nop

100176a0 <__aeabi_dcmpgt>:
100176a0:	f84d ed08 	str.w	lr, [sp, #-8]!
100176a4:	f7ff ffc4 	bl	10017630 <__aeabi_cdrcmple>
100176a8:	bf34      	ite	cc
100176aa:	2001      	movcc	r0, #1
100176ac:	2000      	movcs	r0, #0
100176ae:	f85d fb08 	ldr.w	pc, [sp], #8
100176b2:	bf00      	nop

100176b4 <__aeabi_dcmpun>:
100176b4:	ea4f 0c41 	mov.w	ip, r1, lsl #1
100176b8:	ea7f 5c6c 	mvns.w	ip, ip, asr #21
100176bc:	d102      	bne.n	100176c4 <__aeabi_dcmpun+0x10>
100176be:	ea50 3c01 	orrs.w	ip, r0, r1, lsl #12
100176c2:	d10a      	bne.n	100176da <__aeabi_dcmpun+0x26>
100176c4:	ea4f 0c43 	mov.w	ip, r3, lsl #1
100176c8:	ea7f 5c6c 	mvns.w	ip, ip, asr #21
100176cc:	d102      	bne.n	100176d4 <__aeabi_dcmpun+0x20>
100176ce:	ea52 3c03 	orrs.w	ip, r2, r3, lsl #12
100176d2:	d102      	bne.n	100176da <__aeabi_dcmpun+0x26>
100176d4:	f04f 0000 	mov.w	r0, #0
100176d8:	4770      	bx	lr
100176da:	f04f 0001 	mov.w	r0, #1
100176de:	4770      	bx	lr

100176e0 <__aeabi_d2iz>:
100176e0:	ea4f 0241 	mov.w	r2, r1, lsl #1
100176e4:	f512 1200 	adds.w	r2, r2, #2097152	@ 0x200000
100176e8:	d215      	bcs.n	10017716 <__aeabi_d2iz+0x36>
100176ea:	d511      	bpl.n	10017710 <__aeabi_d2iz+0x30>
100176ec:	f46f 7378 	mvn.w	r3, #992	@ 0x3e0
100176f0:	ebb3 5262 	subs.w	r2, r3, r2, asr #21
100176f4:	d912      	bls.n	1001771c <__aeabi_d2iz+0x3c>
100176f6:	ea4f 23c1 	mov.w	r3, r1, lsl #11
100176fa:	f043 4300 	orr.w	r3, r3, #2147483648	@ 0x80000000
100176fe:	ea43 5350 	orr.w	r3, r3, r0, lsr #21
10017702:	f011 4f00 	tst.w	r1, #2147483648	@ 0x80000000
10017706:	fa23 f002 	lsr.w	r0, r3, r2
1001770a:	bf18      	it	ne
1001770c:	4240      	negne	r0, r0
1001770e:	4770      	bx	lr
10017710:	f04f 0000 	mov.w	r0, #0
10017714:	4770      	bx	lr
10017716:	ea50 3001 	orrs.w	r0, r0, r1, lsl #12
1001771a:	d105      	bne.n	10017728 <__aeabi_d2iz+0x48>
1001771c:	f011 4000 	ands.w	r0, r1, #2147483648	@ 0x80000000
10017720:	bf08      	it	eq
10017722:	f06f 4000 	mvneq.w	r0, #2147483648	@ 0x80000000
10017726:	4770      	bx	lr
10017728:	f04f 0000 	mov.w	r0, #0
1001772c:	4770      	bx	lr
1001772e:	bf00      	nop

10017730 <__aeabi_uldivmod>:
10017730:	b953      	cbnz	r3, 10017748 <__aeabi_uldivmod+0x18>
10017732:	b94a      	cbnz	r2, 10017748 <__aeabi_uldivmod+0x18>
10017734:	2900      	cmp	r1, #0
10017736:	bf08      	it	eq
10017738:	2800      	cmpeq	r0, #0
1001773a:	bf1c      	itt	ne
1001773c:	f04f 31ff 	movne.w	r1, #4294967295	@ 0xffffffff
10017740:	f04f 30ff 	movne.w	r0, #4294967295	@ 0xffffffff
10017744:	f000 b96a 	b.w	10017a1c <__aeabi_idiv0>
10017748:	f1ad 0c08 	sub.w	ip, sp, #8
1001774c:	e96d ce04 	strd	ip, lr, [sp, #-16]!
10017750:	f000 f806 	bl	10017760 <__udivmoddi4>
10017754:	f8dd e004 	ldr.w	lr, [sp, #4]
10017758:	e9dd 2302 	ldrd	r2, r3, [sp, #8]
1001775c:	b004      	add	sp, #16
1001775e:	4770      	bx	lr

10017760 <__udivmoddi4>:
10017760:	e92d 47f0 	stmdb	sp!, {r4, r5, r6, r7, r8, r9, sl, lr}
10017764:	9d08      	ldr	r5, [sp, #32]
10017766:	460e      	mov	r6, r1
10017768:	4604      	mov	r4, r0
1001776a:	460f      	mov	r7, r1
1001776c:	2b00      	cmp	r3, #0
1001776e:	d14a      	bne.n	10017806 <__udivmoddi4+0xa6>
10017770:	4694      	mov	ip, r2
10017772:	458c      	cmp	ip, r1
10017774:	fab2 f282 	clz	r2, r2
10017778:	d960      	bls.n	1001783c <__udivmoddi4+0xdc>
1001777a:	b142      	cbz	r2, 1001778e <__udivmoddi4+0x2e>
1001777c:	f1c2 0320 	rsb	r3, r2, #32
10017780:	4097      	lsls	r7, r2
10017782:	fa20 f303 	lsr.w	r3, r0, r3
10017786:	fa0c fc02 	lsl.w	ip, ip, r2
1001778a:	431f      	orrs	r7, r3
1001778c:	4094      	lsls	r4, r2
1001778e:	ea4f 4e1c 	mov.w	lr, ip, lsr #16
10017792:	fa1f f68c 	uxth.w	r6, ip
10017796:	fbb7 f1fe 	udiv	r1, r7, lr
1001779a:	0c23      	lsrs	r3, r4, #16
1001779c:	fb0e 7711 	mls	r7, lr, r1, r7
100177a0:	ea43 4307 	orr.w	r3, r3, r7, lsl #16
100177a4:	fb01 f006 	mul.w	r0, r1, r6
100177a8:	4298      	cmp	r0, r3
100177aa:	d90a      	bls.n	100177c2 <__udivmoddi4+0x62>
100177ac:	eb1c 0303 	adds.w	r3, ip, r3
100177b0:	f101 37ff 	add.w	r7, r1, #4294967295	@ 0xffffffff
100177b4:	f080 8115 	bcs.w	100179e2 <__udivmoddi4+0x282>
100177b8:	4298      	cmp	r0, r3
100177ba:	f240 8112 	bls.w	100179e2 <__udivmoddi4+0x282>
100177be:	3902      	subs	r1, #2
100177c0:	4463      	add	r3, ip
100177c2:	1a1b      	subs	r3, r3, r0
100177c4:	b2a4      	uxth	r4, r4
100177c6:	fbb3 f0fe 	udiv	r0, r3, lr
100177ca:	fb0e 3310 	mls	r3, lr, r0, r3
100177ce:	ea44 4403 	orr.w	r4, r4, r3, lsl #16
100177d2:	fb00 f606 	mul.w	r6, r0, r6
100177d6:	42a6      	cmp	r6, r4
100177d8:	d90a      	bls.n	100177f0 <__udivmoddi4+0x90>
100177da:	eb1c 0404 	adds.w	r4, ip, r4
100177de:	f100 33ff 	add.w	r3, r0, #4294967295	@ 0xffffffff
100177e2:	f080 8100 	bcs.w	100179e6 <__udivmoddi4+0x286>
100177e6:	42a6      	cmp	r6, r4
100177e8:	f240 80fd 	bls.w	100179e6 <__udivmoddi4+0x286>
100177ec:	4464      	add	r4, ip
100177ee:	3802      	subs	r0, #2
100177f0:	ea40 4001 	orr.w	r0, r0, r1, lsl #16
100177f4:	1ba4      	subs	r4, r4, r6
100177f6:	2100      	movs	r1, #0
100177f8:	b11d      	cbz	r5, 10017802 <__udivmoddi4+0xa2>
100177fa:	40d4      	lsrs	r4, r2
100177fc:	2300      	movs	r3, #0
100177fe:	e9c5 4300 	strd	r4, r3, [r5]
10017802:	e8bd 87f0 	ldmia.w	sp!, {r4, r5, r6, r7, r8, r9, sl, pc}
10017806:	428b      	cmp	r3, r1
10017808:	d905      	bls.n	10017816 <__udivmoddi4+0xb6>
1001780a:	b10d      	cbz	r5, 10017810 <__udivmoddi4+0xb0>
1001780c:	e9c5 0100 	strd	r0, r1, [r5]
10017810:	2100      	movs	r1, #0
10017812:	4608      	mov	r0, r1
10017814:	e7f5      	b.n	10017802 <__udivmoddi4+0xa2>
10017816:	fab3 f183 	clz	r1, r3
1001781a:	2900      	cmp	r1, #0
1001781c:	d146      	bne.n	100178ac <__udivmoddi4+0x14c>
1001781e:	42b3      	cmp	r3, r6
10017820:	d302      	bcc.n	10017828 <__udivmoddi4+0xc8>
10017822:	4282      	cmp	r2, r0
10017824:	f200 80f5 	bhi.w	10017a12 <__udivmoddi4+0x2b2>
10017828:	1a84      	subs	r4, r0, r2
1001782a:	eb66 0203 	sbc.w	r2, r6, r3
1001782e:	2001      	movs	r0, #1
10017830:	4617      	mov	r7, r2
10017832:	2d00      	cmp	r5, #0
10017834:	d0e5      	beq.n	10017802 <__udivmoddi4+0xa2>
10017836:	e9c5 4700 	strd	r4, r7, [r5]
1001783a:	e7e2      	b.n	10017802 <__udivmoddi4+0xa2>
1001783c:	2a00      	cmp	r2, #0
1001783e:	f040 8093 	bne.w	10017968 <__udivmoddi4+0x208>
10017842:	eba1 030c 	sub.w	r3, r1, ip
10017846:	ea4f 471c 	mov.w	r7, ip, lsr #16
1001784a:	fa1f fe8c 	uxth.w	lr, ip
1001784e:	2101      	movs	r1, #1
10017850:	fbb3 f6f7 	udiv	r6, r3, r7
10017854:	fb07 3016 	mls	r0, r7, r6, r3
10017858:	0c23      	lsrs	r3, r4, #16
1001785a:	ea43 4300 	orr.w	r3, r3, r0, lsl #16
1001785e:	fb0e f006 	mul.w	r0, lr, r6
10017862:	4298      	cmp	r0, r3
10017864:	d908      	bls.n	10017878 <__udivmoddi4+0x118>
10017866:	eb1c 0303 	adds.w	r3, ip, r3
1001786a:	f106 38ff 	add.w	r8, r6, #4294967295	@ 0xffffffff
1001786e:	d202      	bcs.n	10017876 <__udivmoddi4+0x116>
10017870:	4298      	cmp	r0, r3
10017872:	f200 80d0 	bhi.w	10017a16 <__udivmoddi4+0x2b6>
10017876:	4646      	mov	r6, r8
10017878:	1a1b      	subs	r3, r3, r0
1001787a:	b2a4      	uxth	r4, r4
1001787c:	fbb3 f0f7 	udiv	r0, r3, r7
10017880:	fb07 3310 	mls	r3, r7, r0, r3
10017884:	ea44 4403 	orr.w	r4, r4, r3, lsl #16
10017888:	fb0e fe00 	mul.w	lr, lr, r0
1001788c:	45a6      	cmp	lr, r4
1001788e:	d908      	bls.n	100178a2 <__udivmoddi4+0x142>
10017890:	eb1c 0404 	adds.w	r4, ip, r4
10017894:	f100 33ff 	add.w	r3, r0, #4294967295	@ 0xffffffff
10017898:	d202      	bcs.n	100178a0 <__udivmoddi4+0x140>
1001789a:	45a6      	cmp	lr, r4
1001789c:	f200 80b6 	bhi.w	10017a0c <__udivmoddi4+0x2ac>
100178a0:	4618      	mov	r0, r3
100178a2:	eba4 040e 	sub.w	r4, r4, lr
100178a6:	ea40 4006 	orr.w	r0, r0, r6, lsl #16
100178aa:	e7a5      	b.n	100177f8 <__udivmoddi4+0x98>
100178ac:	f1c1 0720 	rsb	r7, r1, #32
100178b0:	408b      	lsls	r3, r1
100178b2:	fa22 fc07 	lsr.w	ip, r2, r7
100178b6:	ea4c 0c03 	orr.w	ip, ip, r3
100178ba:	fa06 fe01 	lsl.w	lr, r6, r1
100178be:	fa20 f407 	lsr.w	r4, r0, r7
100178c2:	fa26 f307 	lsr.w	r3, r6, r7
100178c6:	ea44 040e 	orr.w	r4, r4, lr
100178ca:	fa00 f801 	lsl.w	r8, r0, r1
100178ce:	ea4f 401c 	mov.w	r0, ip, lsr #16
100178d2:	ea4f 4914 	mov.w	r9, r4, lsr #16
100178d6:	fbb3 fef0 	udiv	lr, r3, r0
100178da:	fa1f f68c 	uxth.w	r6, ip
100178de:	fb00 331e 	mls	r3, r0, lr, r3
100178e2:	ea49 4303 	orr.w	r3, r9, r3, lsl #16
100178e6:	fb0e f906 	mul.w	r9, lr, r6
100178ea:	4599      	cmp	r9, r3
100178ec:	fa02 f201 	lsl.w	r2, r2, r1
100178f0:	d90b      	bls.n	1001790a <__udivmoddi4+0x1aa>
100178f2:	eb1c 0303 	adds.w	r3, ip, r3
100178f6:	f10e 3aff 	add.w	sl, lr, #4294967295	@ 0xffffffff
100178fa:	f080 8085 	bcs.w	10017a08 <__udivmoddi4+0x2a8>
100178fe:	4599      	cmp	r9, r3
10017900:	f240 8082 	bls.w	10017a08 <__udivmoddi4+0x2a8>
10017904:	f1ae 0e02 	sub.w	lr, lr, #2
10017908:	4463      	add	r3, ip
1001790a:	eba3 0909 	sub.w	r9, r3, r9
1001790e:	b2a4      	uxth	r4, r4
10017910:	fbb9 f3f0 	udiv	r3, r9, r0
10017914:	fb00 9913 	mls	r9, r0, r3, r9
10017918:	ea44 4409 	orr.w	r4, r4, r9, lsl #16
1001791c:	fb03 f606 	mul.w	r6, r3, r6
10017920:	42a6      	cmp	r6, r4
10017922:	d908      	bls.n	10017936 <__udivmoddi4+0x1d6>
10017924:	eb1c 0404 	adds.w	r4, ip, r4
10017928:	f103 30ff 	add.w	r0, r3, #4294967295	@ 0xffffffff
1001792c:	d268      	bcs.n	10017a00 <__udivmoddi4+0x2a0>
1001792e:	42a6      	cmp	r6, r4
10017930:	d966      	bls.n	10017a00 <__udivmoddi4+0x2a0>
10017932:	3b02      	subs	r3, #2
10017934:	4464      	add	r4, ip
10017936:	ea43 400e 	orr.w	r0, r3, lr, lsl #16
1001793a:	1ba4      	subs	r4, r4, r6
1001793c:	fba0 e602 	umull	lr, r6, r0, r2
10017940:	42b4      	cmp	r4, r6
10017942:	4673      	mov	r3, lr
10017944:	46b1      	mov	r9, r6
10017946:	d352      	bcc.n	100179ee <__udivmoddi4+0x28e>
10017948:	d04f      	beq.n	100179ea <__udivmoddi4+0x28a>
1001794a:	b15d      	cbz	r5, 10017964 <__udivmoddi4+0x204>
1001794c:	ebb8 0203 	subs.w	r2, r8, r3
10017950:	eb64 0409 	sbc.w	r4, r4, r9
10017954:	fa04 f707 	lsl.w	r7, r4, r7
10017958:	fa22 f301 	lsr.w	r3, r2, r1
1001795c:	431f      	orrs	r7, r3
1001795e:	40cc      	lsrs	r4, r1
10017960:	e9c5 7400 	strd	r7, r4, [r5]
10017964:	2100      	movs	r1, #0
10017966:	e74c      	b.n	10017802 <__udivmoddi4+0xa2>
10017968:	f1c2 0120 	rsb	r1, r2, #32
1001796c:	fa20 f301 	lsr.w	r3, r0, r1
10017970:	fa0c fc02 	lsl.w	ip, ip, r2
10017974:	fa26 f101 	lsr.w	r1, r6, r1
10017978:	4096      	lsls	r6, r2
1001797a:	4333      	orrs	r3, r6
1001797c:	ea4f 471c 	mov.w	r7, ip, lsr #16
10017980:	fa1f fe8c 	uxth.w	lr, ip
10017984:	fbb1 f0f7 	udiv	r0, r1, r7
10017988:	fb07 1610 	mls	r6, r7, r0, r1
1001798c:	0c19      	lsrs	r1, r3, #16
1001798e:	ea41 4106 	orr.w	r1, r1, r6, lsl #16
10017992:	fb00 f60e 	mul.w	r6, r0, lr
10017996:	428e      	cmp	r6, r1
10017998:	fa04 f402 	lsl.w	r4, r4, r2
1001799c:	d908      	bls.n	100179b0 <__udivmoddi4+0x250>
1001799e:	eb1c 0101 	adds.w	r1, ip, r1
100179a2:	f100 38ff 	add.w	r8, r0, #4294967295	@ 0xffffffff
100179a6:	d22d      	bcs.n	10017a04 <__udivmoddi4+0x2a4>
100179a8:	428e      	cmp	r6, r1
100179aa:	d92b      	bls.n	10017a04 <__udivmoddi4+0x2a4>
100179ac:	3802      	subs	r0, #2
100179ae:	4461      	add	r1, ip
100179b0:	1b89      	subs	r1, r1, r6
100179b2:	b29b      	uxth	r3, r3
100179b4:	fbb1 f6f7 	udiv	r6, r1, r7
100179b8:	fb07 1116 	mls	r1, r7, r6, r1
100179bc:	ea43 4301 	orr.w	r3, r3, r1, lsl #16
100179c0:	fb06 f10e 	mul.w	r1, r6, lr
100179c4:	4299      	cmp	r1, r3
100179c6:	d908      	bls.n	100179da <__udivmoddi4+0x27a>
100179c8:	eb1c 0303 	adds.w	r3, ip, r3
100179cc:	f106 38ff 	add.w	r8, r6, #4294967295	@ 0xffffffff
100179d0:	d214      	bcs.n	100179fc <__udivmoddi4+0x29c>
100179d2:	4299      	cmp	r1, r3
100179d4:	d912      	bls.n	100179fc <__udivmoddi4+0x29c>
100179d6:	3e02      	subs	r6, #2
100179d8:	4463      	add	r3, ip
100179da:	1a5b      	subs	r3, r3, r1
100179dc:	ea46 4100 	orr.w	r1, r6, r0, lsl #16
100179e0:	e736      	b.n	10017850 <__udivmoddi4+0xf0>
100179e2:	4639      	mov	r1, r7
100179e4:	e6ed      	b.n	100177c2 <__udivmoddi4+0x62>
100179e6:	4618      	mov	r0, r3
100179e8:	e702      	b.n	100177f0 <__udivmoddi4+0x90>
100179ea:	45f0      	cmp	r8, lr
100179ec:	d2ad      	bcs.n	1001794a <__udivmoddi4+0x1ea>
100179ee:	ebbe 0302 	subs.w	r3, lr, r2
100179f2:	eb66 060c 	sbc.w	r6, r6, ip
100179f6:	3801      	subs	r0, #1
100179f8:	46b1      	mov	r9, r6
100179fa:	e7a6      	b.n	1001794a <__udivmoddi4+0x1ea>
100179fc:	4646      	mov	r6, r8
100179fe:	e7ec      	b.n	100179da <__udivmoddi4+0x27a>
10017a00:	4603      	mov	r3, r0
10017a02:	e798      	b.n	10017936 <__udivmoddi4+0x1d6>
10017a04:	4640      	mov	r0, r8
10017a06:	e7d3      	b.n	100179b0 <__udivmoddi4+0x250>
10017a08:	46d6      	mov	lr, sl
10017a0a:	e77e      	b.n	1001790a <__udivmoddi4+0x1aa>
10017a0c:	4464      	add	r4, ip
10017a0e:	3802      	subs	r0, #2
10017a10:	e747      	b.n	100178a2 <__udivmoddi4+0x142>
10017a12:	4608      	mov	r0, r1
10017a14:	e70d      	b.n	10017832 <__udivmoddi4+0xd2>
10017a16:	3e02      	subs	r6, #2
10017a18:	4463      	add	r3, ip
10017a1a:	e72d      	b.n	10017878 <__udivmoddi4+0x118>

10017a1c <__aeabi_idiv0>:
10017a1c:	4770      	bx	lr
10017a1e:	bf00      	nop
10017a20:	746f6f42 	.word	0x746f6f42
10017a24:	66655220 	.word	0x66655220
10017a28:	6e657265 	.word	0x6e657265
10017a2c:	46206563 	.word	0x46206563
10017a30:	3a67616c 	.word	0x3a67616c
10017a34:	0a732520 	.word	0x0a732520
10017a38:	00000000 	.word	0x00000000
10017a3c:	6c696146 	.word	0x6c696146
10017a40:	74206465 	.word	0x74206465
10017a44:	7075206f 	.word	0x7075206f
10017a48:	65746164 	.word	0x65746164
10017a4c:	62757320 	.word	0x62757320
10017a50:	69726373 	.word	0x69726373
10017a54:	6f697470 	.word	0x6f697470
10017a58:	202d206e 	.word	0x202d206e
10017a5c:	6e6e6163 	.word	0x6e6e6163
10017a60:	7320746f 	.word	0x7320746f
10017a64:	63736275 	.word	0x63736275
10017a68:	65626972 	.word	0x65626972
10017a6c:	206f7420 	.word	0x206f7420
10017a70:	72656d65 	.word	0x72656d65
10017a74:	636e6567 	.word	0x636e6567
10017a78:	68632079 	.word	0x68632079
10017a7c:	656e6e61 	.word	0x656e6e61
10017a80:	00000a6c 	.word	0x00000a6c
10017a84:	6c696146 	.word	0x6c696146
10017a88:	74206465 	.word	0x74206465
10017a8c:	7075206f 	.word	0x7075206f
10017a90:	65746164 	.word	0x65746164
10017a94:	62757320 	.word	0x62757320
10017a98:	69726373 	.word	0x69726373
10017a9c:	6f697470 	.word	0x6f697470
10017aa0:	202d206e 	.word	0x202d206e
10017aa4:	2078616d 	.word	0x2078616d
10017aa8:	73627573 	.word	0x73627573
10017aac:	70697263 	.word	0x70697263
10017ab0:	6e6f6974 	.word	0x6e6f6974
10017ab4:	6e692073 	.word	0x6e692073
10017ab8:	6c617473 	.word	0x6c617473
10017abc:	0a64656c 	.word	0x0a64656c
10017ac0:	00000000 	.word	0x00000000
10017ac4:	63656843 	.word	0x63656843
10017ac8:	676e696b 	.word	0x676e696b
10017acc:	62757320 	.word	0x62757320
10017ad0:	69726373 	.word	0x69726373
10017ad4:	6f697470 	.word	0x6f697470
10017ad8:	00000a6e 	.word	0x00000a6e
10017adc:	73627553 	.word	0x73627553
10017ae0:	70697263 	.word	0x70697263
10017ae4:	6e6f6974 	.word	0x6e6f6974
10017ae8:	6c615620 	.word	0x6c615620
10017aec:	000a6469 	.word	0x000a6469
10017af0:	65636552 	.word	0x65636552
10017af4:	6e697669 	.word	0x6e697669
10017af8:	6e752067 	.word	0x6e752067
10017afc:	73627573 	.word	0x73627573
10017b00:	62697263 	.word	0x62697263
10017b04:	63206465 	.word	0x63206465
10017b08:	6e6e6168 	.word	0x6e6e6168
10017b0c:	64206c65 	.word	0x64206c65
10017b10:	2e617461 	.word	0x2e617461
10017b14:	75252020 	.word	0x75252020
10017b18:	0000000a 	.word	0x0000000a
10017b1c:	73726946 	.word	0x73726946
10017b20:	6f622074 	.word	0x6f622074
10017b24:	202e746f 	.word	0x202e746f
10017b28:	74655320 	.word	0x74655320
10017b2c:	676e6974 	.word	0x676e6974
10017b30:	616c6620 	.word	0x616c6620
10017b34:	2e2e6873 	.word	0x2e2e6873
10017b38:	00000a2e 	.word	0x00000a2e
10017b3c:	6f636544 	.word	0x6f636544
10017b40:	20726564 	.word	0x20726564
10017b44:	746f6f42 	.word	0x746f6f42
10017b48:	0a216465 	.word	0x0a216465
10017b4c:	00000000 	.word	0x00000000
10017b50:	64616552 	.word	0x64616552
10017b54:	00000a79 	.word	0x00000a79
10017b58:	6c696146 	.word	0x6c696146
10017b5c:	74206465 	.word	0x74206465
10017b60:	6572206f 	.word	0x6572206f
10017b64:	76696563 	.word	0x76696563
10017b68:	6d632065 	.word	0x6d632065
10017b6c:	72662064 	.word	0x72662064
10017b70:	68206d6f 	.word	0x68206d6f
10017b74:	0a74736f 	.word	0x0a74736f
10017b78:	00000000 	.word	0x00000000
10017b7c:	61766e49 	.word	0x61766e49
10017b80:	2064696c 	.word	0x2064696c
10017b84:	6d6d6f43 	.word	0x6d6d6f43
10017b88:	3a646e61 	.word	0x3a646e61
10017b8c:	0a632520 	.word	0x0a632520
10017b90:	00000000 	.word	0x00000000
10017b94:	203e2d20 	.word	0x203e2d20
10017b98:	65746e49 	.word	0x65746e49
10017b9c:	70757272 	.word	0x70757272
10017ba0:	28202174 	.word	0x28202174
10017ba4:	73616c46 	.word	0x73616c46
10017ba8:	63612068 	.word	0x63612068
10017bac:	73736563 	.word	0x73736563
10017bb0:	69616620 	.word	0x69616620
10017bb4:	6572756c 	.word	0x6572756c
10017bb8:	00000a29 	.word	0x00000a29
10017bbc:	6f727245 	.word	0x6f727245
10017bc0:	6e692072 	.word	0x6e692072
10017bc4:	61697469 	.word	0x61697469
10017bc8:	697a696c 	.word	0x697a696c
10017bcc:	5520676e 	.word	0x5520676e
10017bd0:	3a545241 	.word	0x3a545241
10017bd4:	0a642520 	.word	0x0a642520
10017bd8:	00000000 	.word	0x00000000
10017bdc:	00464e49 	.word	0x00464e49
10017be0:	00666e69 	.word	0x00666e69
10017be4:	004e414e 	.word	0x004e414e
10017be8:	006e616e 	.word	0x006e616e
10017bec:	33323130 	.word	0x33323130
10017bf0:	37363534 	.word	0x37363534
10017bf4:	42413938 	.word	0x42413938
10017bf8:	46454443 	.word	0x46454443
10017bfc:	00000000 	.word	0x00000000
10017c00:	33323130 	.word	0x33323130
10017c04:	37363534 	.word	0x37363534
10017c08:	62613938 	.word	0x62613938
10017c0c:	66656463 	.word	0x66656463
10017c10:	00000000 	.word	0x00000000
10017c14:	6c756e28 	.word	0x6c756e28
10017c18:	0000296c 	.word	0x0000296c
10017c1c:	00000030 	.word	0x00000030
10017c20:	69666e49 	.word	0x69666e49
10017c24:	7974696e 	.word	0x7974696e
10017c28:	00000000 	.word	0x00000000
10017c2c:	004e614e 	.word	0x004e614e
10017c30:	6c6c6142 	.word	0x6c6c6142
10017c34:	7320636f 	.word	0x7320636f
10017c38:	65636375 	.word	0x65636375
10017c3c:	64656465 	.word	0x64656465
10017c40:	00000000 	.word	0x00000000
10017c44:	2e2f2e2e 	.word	0x2e2f2e2e
10017c48:	2e2e2f2e 	.word	0x2e2e2f2e
10017c4c:	2f2e2e2f 	.word	0x2f2e2e2f
10017c50:	2e2f2e2e 	.word	0x2e2f2e2e
10017c54:	656e2f2e 	.word	0x656e2f2e
10017c58:	62696c77 	.word	0x62696c77
10017c5c:	62696c2f 	.word	0x62696c2f
10017c60:	74732f63 	.word	0x74732f63
10017c64:	62696c64 	.word	0x62696c64
10017c68:	6f74642f 	.word	0x6f74642f
10017c6c:	00632e61 	.word	0x00632e61
10017c70:	7566202c 	.word	0x7566202c
10017c74:	6974636e 	.word	0x6974636e
10017c78:	203a6e6f 	.word	0x203a6e6f
10017c7c:	00000000 	.word	0x00000000
10017c80:	65737361 	.word	0x65737361
10017c84:	6f697472 	.word	0x6f697472
10017c88:	2522206e 	.word	0x2522206e
10017c8c:	66202273 	.word	0x66202273
10017c90:	656c6961 	.word	0x656c6961
10017c94:	66203a64 	.word	0x66203a64
10017c98:	20656c69 	.word	0x20656c69
10017c9c:	22732522 	.word	0x22732522
10017ca0:	696c202c 	.word	0x696c202c
10017ca4:	2520656e 	.word	0x2520656e
10017ca8:	25732564 	.word	0x25732564
10017cac:	00000a73 	.word	0x00000a73
10017cb0:	2e2f2e2e 	.word	0x2e2f2e2e
10017cb4:	2e2e2f2e 	.word	0x2e2e2f2e
10017cb8:	2f2e2e2f 	.word	0x2f2e2e2f
10017cbc:	2e2f2e2e 	.word	0x2e2f2e2e
10017cc0:	656e2f2e 	.word	0x656e2f2e
10017cc4:	62696c77 	.word	0x62696c77
10017cc8:	62696c2f 	.word	0x62696c2f
10017ccc:	74732f63 	.word	0x74732f63
10017cd0:	62696c64 	.word	0x62696c64
10017cd4:	72706d2f 	.word	0x72706d2f
10017cd8:	632e6365 	.word	0x632e6365
10017cdc:	00000000 	.word	0x00000000
10017ce0:	00000043 	.word	0x00000043
10017ce4:	49534f50 	.word	0x49534f50
10017ce8:	00000058 	.word	0x00000058
10017cec:	0000002e 	.word	0x0000002e

10017cf0 <djFIehjkklIH>:
10017cf0:	0138e798 02cdbb14 01f9f376 023bcfda     ..8.....v.....;.
10017d00:	01d90544 01cad2d2 00860e2c 00860e2c     D.......,...,...
10017d10:	01f9f376 025cbe0c 011c82b4 0035ff56     v.....\.....V.5.
10017d20:	03935040 00c7ea90 023bcfda 01ae6dee     @P........;..m..
10017d30:	0035ff56 0138e798 021f6af6 00c7ea90     V.5...8..j......
10017d40:	00c7ea90 0035ff56 01cad2d2 0035ff56     ....V.5.....V.5.
10017d50:	02b15630 03225338 004431c8 00000000     0V..8S"..1D.....

10017d60 <aseiFuengleR>:
10017d60:	01ffe4b6 003098ac 02f56101 011a38bb     ......0..a...8..
10017d70:	00485124 011644a7 003c74e8 003c74e8     $QH..D...t<..t<.
10017d80:	02f56101 002ca498 000127bc 02e590b1     .a....,..'......
10017d90:	01d467da 01fbf0a2 011a38bb 02b22bad     .g.......8...+..
10017da0:	02e590b1 01ffe4b6 02b61fc1 01fbf0a2     ................
10017db0:	01fbf0a2 02e590b1 011644a7 02e590b1     .........D......
10017dc0:	01cc7fb2 01d073c6 02179d2e 00000000     .....s..........

10017dd0 <num_leds>:
10017dd0:	00000003                                ....

10017dd4 <led_pin>:
10017dd4:	40080400 00000001 00010001 40080400     ...@...........@
10017de4:	00000002 00010001 40080400 00000004     ...........@....
10017df4:	00010001                                ....

10017df8 <num_pbs>:
10017df8:	00000002                                ....

10017dfc <pb_pin>:
10017dfc:	40008000 00000004 00010100 40009000     ...@...........@
10017e0c:	00000080 00010100                       ........

10017e14 <gpio_cfg_uart3>:
10017e14:	40080400 000000c0 00000003              ...@........

10017e20 <gpio_cfg_uart2>:
10017e20:	40009000 00000003 00000002              ...@........

10017e2c <gpio_cfg_uart1>:
10017e2c:	40008000 00003000 00000002              ...@.0......

10017e38 <gpio_cfg_uart0>:
10017e38:	40008000 00000003 00000002              ...@........

10017e44 <gpio_cfg_extclk>:
10017e44:	40008000 00000008 00000002              ...@........

10017e50 <CSWTCH.16>:
10017e50:	40008000 40009000 40080400 40080600     ...@...@...@...@

10017e60 <blanks.1>:
10017e60:	20202020 20202020 20202020 20202020                     

10017e70 <zeroes.0>:
10017e70:	30303030 30303030 30303030 30303030     0000000000000000

10017e80 <blanks.1>:
10017e80:	20202020 20202020 20202020 20202020                     

10017e90 <zeroes.0>:
10017e90:	30303030 30303030 30303030 30303030     0000000000000000

10017ea0 <p05.0>:
10017ea0:	00000005 00000019 0000007d 00000000     ........}.......

10017eb0 <__mprec_tens>:
10017eb0:	00000000 3ff00000 00000000 40240000     .......?......$@
10017ec0:	00000000 40590000 00000000 408f4000     ......Y@.....@.@
10017ed0:	00000000 40c38800 00000000 40f86a00     .......@.....j.@
10017ee0:	00000000 412e8480 00000000 416312d0     .......A......cA
10017ef0:	00000000 4197d784 00000000 41cdcd65     .......A....e..A
10017f00:	20000000 4202a05f e8000000 42374876     ... _..B....vH7B
10017f10:	a2000000 426d1a94 e5400000 42a2309c     ......mB..@..0.B
10017f20:	1e900000 42d6bcc4 26340000 430c6bf5     .......B..4&.k.C
10017f30:	37e08000 4341c379 85d8a000 43763457     ...7y.AC....W4vC
10017f40:	674ec800 43abc16d 60913d00 43e158e4     ..Ngm..C.=.`.X.C
10017f50:	78b58c40 4415af1d d6e2ef50 444b1ae4     @..x...DP.....KD
10017f60:	064dd592 4480f0cf c7e14af6 44b52d02     ..M....D.J...-.D
10017f70:	79d99db4 44ea7843                       ...yCx.D

10017f78 <__mprec_tinytens>:
10017f78:	97d889bc 3c9cd2b2 d5a8a733 3949f623     .......<3...#.I9
10017f88:	44f4a73d 32a50ffd cf8c979d 255bba08     =..D...2......[%
10017f98:	64ac6f43 0ac80628                       Co.d(...

10017fa0 <__mprec_bigtens>:
10017fa0:	37e08000 4341c379 b5056e17 4693b8b5     ...7y.AC.n.....F
10017fb0:	e93ff9f5 4d384f03 f9301d32 5a827748     ..?..O8M2.0.Hw.Z
10017fc0:	7f73bf3c 75154fdd                       <.s..O.u

10017fc8 <_ctype_>:
10017fc8:	20202000 20202020 28282020 20282828     .         ((((( 
10017fd8:	20202020 20202020 20202020 20202020                     
10017fe8:	10108820 10101010 10101010 10101010      ...............
10017ff8:	04040410 04040404 10040404 10101010     ................
10018008:	41411010 41414141 01010101 01010101     ..AAAAAA........
10018018:	01010101 01010101 01010101 10101010     ................
10018028:	42421010 42424242 02020202 02020202     ..BBBBBB........
10018038:	02020202 02020202 02020202 10101010     ................
10018048:	00000020 00000000 00000000 00000000      ...............
	...

100180cc <blanks.1>:
100180cc:	20202020 20202020 20202020 20202020                     

100180dc <zeroes.0>:
100180dc:	30303030 30303030 30303030 30303030     0000000000000000

100180ec <_init>:
100180ec:	b5f8      	push	{r3, r4, r5, r6, r7, lr}
100180ee:	bf00      	nop
100180f0:	bcf8      	pop	{r3, r4, r5, r6, r7}
100180f2:	bc08      	pop	{r3}
100180f4:	469e      	mov	lr, r3
100180f6:	4770      	bx	lr

100180f8 <_fini>:
100180f8:	b5f8      	push	{r3, r4, r5, r6, r7, lr}
100180fa:	bf00      	nop
100180fc:	bcf8      	pop	{r3, r4, r5, r6, r7}
100180fe:	bc08      	pop	{r3}
10018100:	469e      	mov	lr, r3
10018102:	4770      	bx	lr
10018104:	0000      	movs	r0, r0
	...

10018108 <__MXC_FLC_Com_Read_veneer>:
10018108:	f85f f000 	ldr.w	pc, [pc]	@ 1001810c <__MXC_FLC_Com_Read_veneer+0x4>
1001810c:	20000b9d 	.word	0x20000b9d

10018110 <__MXC_FLC_Com_Write_veneer>:
10018110:	f85f f000 	ldr.w	pc, [pc]	@ 10018114 <__MXC_FLC_Com_Write_veneer+0x4>
10018114:	20000ac9 	.word	0x20000ac9

10018118 <__MXC_FLC_PageErase_veneer>:
10018118:	f85f f000 	ldr.w	pc, [pc]	@ 1001811c <__MXC_FLC_PageErase_veneer+0x4>
1001811c:	200006c9 	.word	0x200006c9

10018120 <__MXC_FLC_RevA_Write32Using128_veneer>:
10018120:	f85f f000 	ldr.w	pc, [pc]	@ 10018124 <__MXC_FLC_RevA_Write32Using128_veneer+0x4>
10018124:	20000939 	.word	0x20000939

10018128 <__EH_FRAME_BEGIN__>:
10018128:	00000010 00000000 00527a01 010e7c02     .........zR..|..
10018138:	000d0c1b 0000001c 00000018 ffff7bfc     .............{..
10018148:	000000d8 080e4100 02840185 4a0a4902     .....A.......I.J
10018158:	0b41c4c5 00000010 00000000 00527a01     ..A..........zR.
10018168:	010e7c02 000d0c1b 00000014 00000018     .|..............
10018178:	ffff819c 00000134 0a710200 00000b43     ....4.....q.C...
10018188:	00000010 00000000 00527a01 010e7c02     .........zR..|..
10018198:	000d0c1b 00000038 00000018 ffff9ecc     ....8...........
100181a8:	0000009e 100e5100 03850484 01870286     .....Q..........
100181b8:	c5c6c75b 4c000ec4 0a0b420a 100e0b42     [......L.B..B...
100181c8:	03850484 01870286 c5c6c751 00000ec4     ........Q.......

100181d8 <__FRAME_END__>:
100181d8:	00000000                                ....

Disassembly of section .data:

20000000 <ConsoleUart>:
20000000:	40042000                                . .@

20000004 <overflows>:
20000004:	ffffffff                                ....

20000008 <flc_int>:
20000008:	40029000 00000000                       ...@....

20000010 <_impure_ptr>:
20000010:	20000018 00000000                       ... ....

20000018 <_impure_data>:
20000018:	00000000 20001434 2000149c 20001504     ....4.. ... ... 
	...
200000b0:	00000001 00000000 abcd330e e66d1234     .........3..4.m.
200000c0:	0005deec 0000000b 00000000 00000000     ................
	...

20000138 <__sglue>:
20000138:	00000000 00000003 20001434 00000000     ........4.. ....

20000148 <__malloc_av_>:
	...
20000150:	20000148 20000148 20000150 20000150     H.. H.. P.. P.. 
20000160:	20000158 20000158 20000160 20000160     X.. X.. `.. `.. 
20000170:	20000168 20000168 20000170 20000170     h.. h.. p.. p.. 
20000180:	20000178 20000178 20000180 20000180     x.. x.. ... ... 
20000190:	20000188 20000188 20000190 20000190     ... ... ... ... 
200001a0:	20000198 20000198 200001a0 200001a0     ... ... ... ... 
200001b0:	200001a8 200001a8 200001b0 200001b0     ... ... ... ... 
200001c0:	200001b8 200001b8 200001c0 200001c0     ... ... ... ... 
200001d0:	200001c8 200001c8 200001d0 200001d0     ... ... ... ... 
200001e0:	200001d8 200001d8 200001e0 200001e0     ... ... ... ... 
200001f0:	200001e8 200001e8 200001f0 200001f0     ... ... ... ... 
20000200:	200001f8 200001f8 20000200 20000200     ... ... ... ... 
20000210:	20000208 20000208 20000210 20000210     ... ... ... ... 
20000220:	20000218 20000218 20000220 20000220     ... ...  ..  .. 
20000230:	20000228 20000228 20000230 20000230     (.. (.. 0.. 0.. 
20000240:	20000238 20000238 20000240 20000240     8.. 8.. @.. @.. 
20000250:	20000248 20000248 20000250 20000250     H.. H.. P.. P.. 
20000260:	20000258 20000258 20000260 20000260     X.. X.. `.. `.. 
20000270:	20000268 20000268 20000270 20000270     h.. h.. p.. p.. 
20000280:	20000278 20000278 20000280 20000280     x.. x.. ... ... 
20000290:	20000288 20000288 20000290 20000290     ... ... ... ... 
200002a0:	20000298 20000298 200002a0 200002a0     ... ... ... ... 
200002b0:	200002a8 200002a8 200002b0 200002b0     ... ... ... ... 
200002c0:	200002b8 200002b8 200002c0 200002c0     ... ... ... ... 
200002d0:	200002c8 200002c8 200002d0 200002d0     ... ... ... ... 
200002e0:	200002d8 200002d8 200002e0 200002e0     ... ... ... ... 
200002f0:	200002e8 200002e8 200002f0 200002f0     ... ... ... ... 
20000300:	200002f8 200002f8 20000300 20000300     ... ... ... ... 
20000310:	20000308 20000308 20000310 20000310     ... ... ... ... 
20000320:	20000318 20000318 20000320 20000320     ... ...  ..  .. 
20000330:	20000328 20000328 20000330 20000330     (.. (.. 0.. 0.. 
20000340:	20000338 20000338 20000340 20000340     8.. 8.. @.. @.. 
20000350:	20000348 20000348 20000350 20000350     H.. H.. P.. P.. 
20000360:	20000358 20000358 20000360 20000360     X.. X.. `.. `.. 
20000370:	20000368 20000368 20000370 20000370     h.. h.. p.. p.. 
20000380:	20000378 20000378 20000380 20000380     x.. x.. ... ... 
20000390:	20000388 20000388 20000390 20000390     ... ... ... ... 
200003a0:	20000398 20000398 200003a0 200003a0     ... ... ... ... 
200003b0:	200003a8 200003a8 200003b0 200003b0     ... ... ... ... 
200003c0:	200003b8 200003b8 200003c0 200003c0     ... ... ... ... 
200003d0:	200003c8 200003c8 200003d0 200003d0     ... ... ... ... 
200003e0:	200003d8 200003d8 200003e0 200003e0     ... ... ... ... 
200003f0:	200003e8 200003e8 200003f0 200003f0     ... ... ... ... 
20000400:	200003f8 200003f8 20000400 20000400     ... ... ... ... 
20000410:	20000408 20000408 20000410 20000410     ... ... ... ... 
20000420:	20000418 20000418 20000420 20000420     ... ...  ..  .. 
20000430:	20000428 20000428 20000430 20000430     (.. (.. 0.. 0.. 
20000440:	20000438 20000438 20000440 20000440     8.. 8.. @.. @.. 
20000450:	20000448 20000448 20000450 20000450     H.. H.. P.. P.. 
20000460:	20000458 20000458 20000460 20000460     X.. X.. `.. `.. 
20000470:	20000468 20000468 20000470 20000470     h.. h.. p.. p.. 
20000480:	20000478 20000478 20000480 20000480     x.. x.. ... ... 
20000490:	20000488 20000488 20000490 20000490     ... ... ... ... 
200004a0:	20000498 20000498 200004a0 200004a0     ... ... ... ... 
200004b0:	200004a8 200004a8 200004b0 200004b0     ... ... ... ... 
200004c0:	200004b8 200004b8 200004c0 200004c0     ... ... ... ... 
200004d0:	200004c8 200004c8 200004d0 200004d0     ... ... ... ... 
200004e0:	200004d8 200004d8 200004e0 200004e0     ... ... ... ... 
200004f0:	200004e8 200004e8 200004f0 200004f0     ... ... ... ... 
20000500:	200004f8 200004f8 20000500 20000500     ... ... ... ... 
20000510:	20000508 20000508 20000510 20000510     ... ... ... ... 
20000520:	20000518 20000518 20000520 20000520     ... ...  ..  .. 
20000530:	20000528 20000528 20000530 20000530     (.. (.. 0.. 0.. 
20000540:	20000538 20000538 20000540 20000540     8.. 8.. @.. @.. 

20000550 <__malloc_sbrk_base>:
20000550:	ffffffff                                ....

20000554 <__malloc_trim_threshold>:
20000554:	00020000                                ....

20000558 <__global_locale>:
20000558:	00000043 00000000 00000000 00000000     C...............
	...
20000578:	00000043 00000000 00000000 00000000     C...............
	...
20000598:	00000043 00000000 00000000 00000000     C...............
	...
200005b8:	00000043 00000000 00000000 00000000     C...............
	...
200005d8:	00000043 00000000 00000000 00000000     C...............
	...
200005f8:	00000043 00000000 00000000 00000000     C...............
	...
20000618:	00000043 00000000 00000000 00000000     C...............
	...
20000638:	10015f7d 10015d91 00000000 10017fc8     }_...]..........
20000648:	10017cec 10017b4c 10017b4c 10017b4c     .|..L{..L{..L{..
20000658:	10017b4c 10017b4c 10017b4c 10017b4c     L{..L{..L{..L{..
20000668:	10017b4c 10017b4c ffffffff ffffffff     L{..L{..........
20000678:	ffffffff 0000ffff 53410001 00494943     ..........ASCII.
	...
200006a0:	53410000 00494943 00000000 00000000     ..ASCII.........
	...

200006c4 <MXC_FLC_Busy>:
    return MXC_FLC_RevA_Busy();
200006c4:	f000 b864 	b.w	20000790 <MXC_FLC_RevA_Busy>

200006c8 <MXC_FLC_PageErase>:
    if ((addr >= MXC_FLASH_MEM_BASE) && (addr < (MXC_FLASH_MEM_BASE + MXC_FLASH_MEM_SIZE))) {
200006c8:	f100 4370 	add.w	r3, r0, #4026531840	@ 0xf0000000
200006cc:	f5b3 2f00 	cmp.w	r3, #524288	@ 0x80000
200006d0:	d320      	bcc.n	20000714 <MXC_FLC_PageErase+0x4c>
    } else if ((addr >= MXC_INFO_MEM_BASE) && (addr < (MXC_INFO_MEM_BASE + MXC_INFO_MEM_SIZE))) {
200006d2:	f1a0 5384 	sub.w	r3, r0, #276824064	@ 0x10800000
200006d6:	f5b3 4f80 	cmp.w	r3, #16384	@ 0x4000
200006da:	d21e      	bcs.n	2000071a <MXC_FLC_PageErase+0x52>
        *result = (addr & (MXC_INFO_MEM_SIZE - 1)) + MXC_FLASH_MEM_SIZE;
200006dc:	f3c0 000d 	ubfx	r0, r0, #0, #14
200006e0:	f500 2100 	add.w	r1, r0, #524288	@ 0x80000
{
200006e4:	b500      	push	{lr}
    err = MXC_FLC_RevA_PageErase((mxc_flc_reva_regs_t *)flc, addr);
200006e6:	480e      	ldr	r0, [pc, #56]	@ (20000720 <MXC_FLC_PageErase+0x58>)
{
200006e8:	b083      	sub	sp, #12
    err = MXC_FLC_RevA_PageErase((mxc_flc_reva_regs_t *)flc, addr);
200006ea:	f000 f897 	bl	2000081c <MXC_FLC_RevA_PageErase>
    MXC_GCR->sysctrl |= MXC_F_GCR_SYSCTRL_ICC0_FLUSH;
200006ee:	f04f 4280 	mov.w	r2, #1073741824	@ 0x40000000
200006f2:	6813      	ldr	r3, [r2, #0]
200006f4:	f043 0340 	orr.w	r3, r3, #64	@ 0x40
200006f8:	6013      	str	r3, [r2, #0]
    while (MXC_GCR->sysctrl & MXC_F_GCR_SYSCTRL_ICC0_FLUSH) {}
200006fa:	6813      	ldr	r3, [r2, #0]
200006fc:	065b      	lsls	r3, r3, #25
200006fe:	d4fc      	bmi.n	200006fa <MXC_FLC_PageErase+0x32>
    line = *line_addr;
20000700:	f04f 5280 	mov.w	r2, #268435456	@ 0x10000000
    line = *line_addr;
20000704:	4b07      	ldr	r3, [pc, #28]	@ (20000724 <MXC_FLC_PageErase+0x5c>)
    line = *line_addr;
20000706:	6812      	ldr	r2, [r2, #0]
20000708:	9201      	str	r2, [sp, #4]
    line = *line_addr;
2000070a:	681b      	ldr	r3, [r3, #0]
2000070c:	9301      	str	r3, [sp, #4]
}
2000070e:	b003      	add	sp, #12
20000710:	f85d fb04 	ldr.w	pc, [sp], #4
        *result = addr & (MXC_FLASH_MEM_SIZE - 1);
20000714:	f3c0 0112 	ubfx	r1, r0, #0, #19
20000718:	e7e4      	b.n	200006e4 <MXC_FLC_PageErase+0x1c>
        return err;
2000071a:	f06f 0002 	mvn.w	r0, #2
}
2000071e:	4770      	bx	lr
20000720:	40029000 	.word	0x40029000
20000724:	10002000 	.word	0x10002000

20000728 <MXC_FLC_Write128>:
    if (address & 0xF) {
20000728:	0702      	lsls	r2, r0, #28
2000072a:	d129      	bne.n	20000780 <MXC_FLC_Write128+0x58>
    if ((addr >= MXC_FLASH_MEM_BASE) && (addr < (MXC_FLASH_MEM_BASE + MXC_FLASH_MEM_SIZE))) {
2000072c:	f100 4370 	add.w	r3, r0, #4026531840	@ 0xf0000000
20000730:	f5b3 2f00 	cmp.w	r3, #524288	@ 0x80000
20000734:	460a      	mov	r2, r1
20000736:	d320      	bcc.n	2000077a <MXC_FLC_Write128+0x52>
    } else if ((addr >= MXC_INFO_MEM_BASE) && (addr < (MXC_INFO_MEM_BASE + MXC_INFO_MEM_SIZE))) {
20000738:	f1a0 5384 	sub.w	r3, r0, #276824064	@ 0x10800000
2000073c:	f5b3 4f80 	cmp.w	r3, #16384	@ 0x4000
20000740:	d21e      	bcs.n	20000780 <MXC_FLC_Write128+0x58>
        *result = (addr & (MXC_INFO_MEM_SIZE - 1)) + MXC_FLASH_MEM_SIZE;
20000742:	f3c0 000d 	ubfx	r0, r0, #0, #14
20000746:	f500 2100 	add.w	r1, r0, #524288	@ 0x80000
{
2000074a:	b500      	push	{lr}
    err = MXC_FLC_RevA_Write128((mxc_flc_reva_regs_t *)flc, addr, data);
2000074c:	480e      	ldr	r0, [pc, #56]	@ (20000788 <MXC_FLC_Write128+0x60>)
{
2000074e:	b083      	sub	sp, #12
    err = MXC_FLC_RevA_Write128((mxc_flc_reva_regs_t *)flc, addr, data);
20000750:	f000 f958 	bl	20000a04 <MXC_FLC_RevA_Write128>
    MXC_GCR->sysctrl |= MXC_F_GCR_SYSCTRL_ICC0_FLUSH;
20000754:	f04f 4280 	mov.w	r2, #1073741824	@ 0x40000000
20000758:	6813      	ldr	r3, [r2, #0]
2000075a:	f043 0340 	orr.w	r3, r3, #64	@ 0x40
2000075e:	6013      	str	r3, [r2, #0]
    while (MXC_GCR->sysctrl & MXC_F_GCR_SYSCTRL_ICC0_FLUSH) {}
20000760:	6813      	ldr	r3, [r2, #0]
20000762:	065b      	lsls	r3, r3, #25
20000764:	d4fc      	bmi.n	20000760 <MXC_FLC_Write128+0x38>
    line = *line_addr;
20000766:	f04f 5280 	mov.w	r2, #268435456	@ 0x10000000
    line = *line_addr;
2000076a:	4b08      	ldr	r3, [pc, #32]	@ (2000078c <MXC_FLC_Write128+0x64>)
    line = *line_addr;
2000076c:	6812      	ldr	r2, [r2, #0]
2000076e:	9201      	str	r2, [sp, #4]
    line = *line_addr;
20000770:	681b      	ldr	r3, [r3, #0]
20000772:	9301      	str	r3, [sp, #4]
}
20000774:	b003      	add	sp, #12
20000776:	f85d fb04 	ldr.w	pc, [sp], #4
        *result = addr & (MXC_FLASH_MEM_SIZE - 1);
2000077a:	f3c0 0112 	ubfx	r1, r0, #0, #19
2000077e:	e7e4      	b.n	2000074a <MXC_FLC_Write128+0x22>
        return E_BAD_PARAM;
20000780:	f06f 0002 	mvn.w	r0, #2
}
20000784:	4770      	bx	lr
20000786:	bf00      	nop
20000788:	40029000 	.word	0x40029000
2000078c:	10002000 	.word	0x10002000

20000790 <MXC_FLC_RevA_Busy>:
    return (flc->ctrl &
20000790:	4b02      	ldr	r3, [pc, #8]	@ (2000079c <MXC_FLC_RevA_Busy+0xc>)
20000792:	6898      	ldr	r0, [r3, #8]
}
20000794:	f000 0007 	and.w	r0, r0, #7
20000798:	4770      	bx	lr
2000079a:	bf00      	nop
2000079c:	40029000 	.word	0x40029000

200007a0 <MXC_FLC_RevA_MassErase>:
    return (flc->ctrl &
200007a0:	6882      	ldr	r2, [r0, #8]
{
200007a2:	4603      	mov	r3, r0
    if (MXC_busy_flc(flc)) {
200007a4:	0750      	lsls	r0, r2, #29
200007a6:	d12a      	bne.n	200007fe <MXC_FLC_RevA_MassErase+0x5e>
    flc->clkdiv = SystemCoreClock / 1000000;
200007a8:	4a1a      	ldr	r2, [pc, #104]	@ (20000814 <MXC_FLC_RevA_MassErase+0x74>)
200007aa:	491b      	ldr	r1, [pc, #108]	@ (20000818 <MXC_FLC_RevA_MassErase+0x78>)
200007ac:	6812      	ldr	r2, [r2, #0]
200007ae:	fba1 1202 	umull	r1, r2, r1, r2
200007b2:	0c92      	lsrs	r2, r2, #18
200007b4:	605a      	str	r2, [r3, #4]
    if (flc->intr & MXC_F_FLC_REVA_INTR_AF) {
200007b6:	6a5a      	ldr	r2, [r3, #36]	@ 0x24
200007b8:	0791      	lsls	r1, r2, #30
200007ba:	d41b      	bmi.n	200007f4 <MXC_FLC_RevA_MassErase+0x54>
    flc->ctrl = (flc->ctrl & ~MXC_F_FLC_REVA_CTRL_UNLOCK) | MXC_S_FLC_REVA_CTRL_UNLOCK_UNLOCKED;
200007bc:	689a      	ldr	r2, [r3, #8]
200007be:	f022 4270 	bic.w	r2, r2, #4026531840	@ 0xf0000000
200007c2:	f042 5200 	orr.w	r2, r2, #536870912	@ 0x20000000
200007c6:	609a      	str	r2, [r3, #8]
    flc->ctrl = (flc->ctrl & ~MXC_F_FLC_REVA_CTRL_ERASE_CODE) |
200007c8:	689a      	ldr	r2, [r3, #8]
200007ca:	f422 427f 	bic.w	r2, r2, #65280	@ 0xff00
200007ce:	f442 422a 	orr.w	r2, r2, #43520	@ 0xaa00
200007d2:	609a      	str	r2, [r3, #8]
    flc->ctrl |= MXC_F_FLC_REVA_CTRL_ME;
200007d4:	689a      	ldr	r2, [r3, #8]
200007d6:	f042 0202 	orr.w	r2, r2, #2
200007da:	609a      	str	r2, [r3, #8]
    return (flc->ctrl &
200007dc:	689a      	ldr	r2, [r3, #8]
    while (MXC_busy_flc(flc)) {}
200007de:	0752      	lsls	r2, r2, #29
200007e0:	d1fc      	bne.n	200007dc <MXC_FLC_RevA_MassErase+0x3c>
    flc->ctrl &= ~MXC_F_FLC_REVA_CTRL_UNLOCK;
200007e2:	689a      	ldr	r2, [r3, #8]
200007e4:	f022 4270 	bic.w	r2, r2, #4026531840	@ 0xf0000000
200007e8:	609a      	str	r2, [r3, #8]
    if (flc->intr & MXC_F_FLC_REVA_INTR_AF) {
200007ea:	6a58      	ldr	r0, [r3, #36]	@ 0x24
200007ec:	f010 0002 	ands.w	r0, r0, #2
200007f0:	d108      	bne.n	20000804 <MXC_FLC_RevA_MassErase+0x64>
}
200007f2:	4770      	bx	lr
        flc->intr &= ~MXC_F_FLC_REVA_INTR_AF;
200007f4:	6a5a      	ldr	r2, [r3, #36]	@ 0x24
200007f6:	f022 0202 	bic.w	r2, r2, #2
200007fa:	625a      	str	r2, [r3, #36]	@ 0x24
200007fc:	e7de      	b.n	200007bc <MXC_FLC_RevA_MassErase+0x1c>
        return err;
200007fe:	f06f 0005 	mvn.w	r0, #5
20000802:	e7f6      	b.n	200007f2 <MXC_FLC_RevA_MassErase+0x52>
        flc->intr &= ~MXC_F_FLC_REVA_INTR_AF;
20000804:	6a5a      	ldr	r2, [r3, #36]	@ 0x24
20000806:	f022 0202 	bic.w	r2, r2, #2
        return E_BAD_STATE;
2000080a:	f06f 0006 	mvn.w	r0, #6
        flc->intr &= ~MXC_F_FLC_REVA_INTR_AF;
2000080e:	625a      	str	r2, [r3, #36]	@ 0x24
        return E_BAD_STATE;
20000810:	4770      	bx	lr
20000812:	bf00      	nop
20000814:	2000173c 	.word	0x2000173c
20000818:	431bde83 	.word	0x431bde83

2000081c <MXC_FLC_RevA_PageErase>:
    return (flc->ctrl &
2000081c:	6882      	ldr	r2, [r0, #8]
    if (MXC_busy_flc(flc)) {
2000081e:	0752      	lsls	r2, r2, #29
{
20000820:	4603      	mov	r3, r0
    if (MXC_busy_flc(flc)) {
20000822:	d12b      	bne.n	2000087c <MXC_FLC_RevA_PageErase+0x60>
    flc->clkdiv = SystemCoreClock / 1000000;
20000824:	4a1a      	ldr	r2, [pc, #104]	@ (20000890 <MXC_FLC_RevA_PageErase+0x74>)
20000826:	481b      	ldr	r0, [pc, #108]	@ (20000894 <MXC_FLC_RevA_PageErase+0x78>)
20000828:	6812      	ldr	r2, [r2, #0]
2000082a:	fba0 0202 	umull	r0, r2, r0, r2
2000082e:	0c92      	lsrs	r2, r2, #18
20000830:	605a      	str	r2, [r3, #4]
    if (flc->intr & MXC_F_FLC_REVA_INTR_AF) {
20000832:	6a5a      	ldr	r2, [r3, #36]	@ 0x24
20000834:	0790      	lsls	r0, r2, #30
20000836:	d41c      	bmi.n	20000872 <MXC_FLC_RevA_PageErase+0x56>
    flc->ctrl = (flc->ctrl & ~MXC_F_FLC_REVA_CTRL_UNLOCK) | MXC_S_FLC_REVA_CTRL_UNLOCK_UNLOCKED;
20000838:	689a      	ldr	r2, [r3, #8]
2000083a:	f022 4270 	bic.w	r2, r2, #4026531840	@ 0xf0000000
2000083e:	f042 5200 	orr.w	r2, r2, #536870912	@ 0x20000000
20000842:	609a      	str	r2, [r3, #8]
    flc->ctrl = (flc->ctrl & ~MXC_F_FLC_REVA_CTRL_ERASE_CODE) |
20000844:	689a      	ldr	r2, [r3, #8]
20000846:	f422 427f 	bic.w	r2, r2, #65280	@ 0xff00
2000084a:	f442 42aa 	orr.w	r2, r2, #21760	@ 0x5500
2000084e:	609a      	str	r2, [r3, #8]
    flc->addr = addr;
20000850:	6019      	str	r1, [r3, #0]
    flc->ctrl |= MXC_F_FLC_REVA_CTRL_PGE;
20000852:	689a      	ldr	r2, [r3, #8]
20000854:	f042 0204 	orr.w	r2, r2, #4
20000858:	609a      	str	r2, [r3, #8]
    return (flc->ctrl &
2000085a:	689a      	ldr	r2, [r3, #8]
    while (MXC_busy_flc(flc)) {}
2000085c:	0752      	lsls	r2, r2, #29
2000085e:	d1fc      	bne.n	2000085a <MXC_FLC_RevA_PageErase+0x3e>
    flc->ctrl &= ~MXC_F_FLC_REVA_CTRL_UNLOCK;
20000860:	689a      	ldr	r2, [r3, #8]
20000862:	f022 4270 	bic.w	r2, r2, #4026531840	@ 0xf0000000
20000866:	609a      	str	r2, [r3, #8]
    if (flc->intr & MXC_F_FLC_REVA_INTR_AF) {
20000868:	6a58      	ldr	r0, [r3, #36]	@ 0x24
2000086a:	f010 0002 	ands.w	r0, r0, #2
2000086e:	d108      	bne.n	20000882 <MXC_FLC_RevA_PageErase+0x66>
}
20000870:	4770      	bx	lr
        flc->intr &= ~MXC_F_FLC_REVA_INTR_AF;
20000872:	6a5a      	ldr	r2, [r3, #36]	@ 0x24
20000874:	f022 0202 	bic.w	r2, r2, #2
20000878:	625a      	str	r2, [r3, #36]	@ 0x24
2000087a:	e7dd      	b.n	20000838 <MXC_FLC_RevA_PageErase+0x1c>
        return err;
2000087c:	f06f 0005 	mvn.w	r0, #5
20000880:	e7f6      	b.n	20000870 <MXC_FLC_RevA_PageErase+0x54>
        flc->intr &= ~MXC_F_FLC_REVA_INTR_AF;
20000882:	6a5a      	ldr	r2, [r3, #36]	@ 0x24
20000884:	f022 0202 	bic.w	r2, r2, #2
        return E_BAD_STATE;
20000888:	f06f 0006 	mvn.w	r0, #6
        flc->intr &= ~MXC_F_FLC_REVA_INTR_AF;
2000088c:	625a      	str	r2, [r3, #36]	@ 0x24
        return E_BAD_STATE;
2000088e:	4770      	bx	lr
20000890:	2000173c 	.word	0x2000173c
20000894:	431bde83 	.word	0x431bde83

20000898 <MXC_FLC_RevA_Write32>:
    if (logicAddr & 0x3) {
20000898:	078b      	lsls	r3, r1, #30
2000089a:	d139      	bne.n	20000910 <MXC_FLC_RevA_Write32+0x78>
    if ((*(uint32_t *)logicAddr & data) != data) {
2000089c:	4603      	mov	r3, r0
2000089e:	6808      	ldr	r0, [r1, #0]
200008a0:	ea32 0000 	bics.w	r0, r2, r0
200008a4:	d141      	bne.n	2000092a <MXC_FLC_RevA_Write32+0x92>
    return (flc->ctrl &
200008a6:	6898      	ldr	r0, [r3, #8]
    if (MXC_busy_flc(flc)) {
200008a8:	0740      	lsls	r0, r0, #29
    logicAddr = logicAddr & 0xfffffffc;
200008aa:	f021 0103 	bic.w	r1, r1, #3
    if (MXC_busy_flc(flc)) {
200008ae:	d132      	bne.n	20000916 <MXC_FLC_RevA_Write32+0x7e>
    flc->clkdiv = SystemCoreClock / 1000000;
200008b0:	481f      	ldr	r0, [pc, #124]	@ (20000930 <MXC_FLC_RevA_Write32+0x98>)
{
200008b2:	b410      	push	{r4}
    flc->clkdiv = SystemCoreClock / 1000000;
200008b4:	6800      	ldr	r0, [r0, #0]
200008b6:	4c1f      	ldr	r4, [pc, #124]	@ (20000934 <MXC_FLC_RevA_Write32+0x9c>)
200008b8:	fba4 4000 	umull	r4, r0, r4, r0
200008bc:	0c80      	lsrs	r0, r0, #18
200008be:	6058      	str	r0, [r3, #4]
    if (flc->intr & MXC_F_FLC_REVA_INTR_AF) {
200008c0:	6a58      	ldr	r0, [r3, #36]	@ 0x24
200008c2:	0780      	lsls	r0, r0, #30
200008c4:	d41f      	bmi.n	20000906 <MXC_FLC_RevA_Write32+0x6e>
    flc->ctrl = (flc->ctrl & ~MXC_F_FLC_REVA_CTRL_UNLOCK) | MXC_S_FLC_REVA_CTRL_UNLOCK_UNLOCKED;
200008c6:	6898      	ldr	r0, [r3, #8]
200008c8:	f020 4070 	bic.w	r0, r0, #4026531840	@ 0xf0000000
200008cc:	f040 5000 	orr.w	r0, r0, #536870912	@ 0x20000000
200008d0:	6098      	str	r0, [r3, #8]
    flc->ctrl |= MXC_F_FLC_REVA_CTRL_WDTH;
200008d2:	6898      	ldr	r0, [r3, #8]
200008d4:	f040 0010 	orr.w	r0, r0, #16
200008d8:	6098      	str	r0, [r3, #8]
    flc->addr = logicAddr;
200008da:	6019      	str	r1, [r3, #0]
    flc->data[0] = data;
200008dc:	631a      	str	r2, [r3, #48]	@ 0x30
    flc->ctrl |= MXC_F_FLC_REVA_CTRL_WR;
200008de:	689a      	ldr	r2, [r3, #8]
200008e0:	f042 0201 	orr.w	r2, r2, #1
200008e4:	609a      	str	r2, [r3, #8]
    while ((flc->ctrl & MXC_F_FLC_REVA_CTRL_PEND) != 0) {}
200008e6:	689a      	ldr	r2, [r3, #8]
200008e8:	01d1      	lsls	r1, r2, #7
200008ea:	d4fc      	bmi.n	200008e6 <MXC_FLC_RevA_Write32+0x4e>
    return (flc->ctrl &
200008ec:	689a      	ldr	r2, [r3, #8]
    while (MXC_busy_flc(flc)) {}
200008ee:	0752      	lsls	r2, r2, #29
200008f0:	d1fc      	bne.n	200008ec <MXC_FLC_RevA_Write32+0x54>
    flc->ctrl &= ~MXC_F_FLC_REVA_CTRL_UNLOCK;
200008f2:	689a      	ldr	r2, [r3, #8]
200008f4:	f022 4270 	bic.w	r2, r2, #4026531840	@ 0xf0000000
200008f8:	609a      	str	r2, [r3, #8]
    if (flc->intr & MXC_F_FLC_REVA_INTR_AF) {
200008fa:	6a58      	ldr	r0, [r3, #36]	@ 0x24
200008fc:	f010 0002 	ands.w	r0, r0, #2
20000900:	d10c      	bne.n	2000091c <MXC_FLC_RevA_Write32+0x84>
}
20000902:	bc10      	pop	{r4}
20000904:	4770      	bx	lr
        flc->intr &= ~MXC_F_FLC_REVA_INTR_AF;
20000906:	6a58      	ldr	r0, [r3, #36]	@ 0x24
20000908:	f020 0002 	bic.w	r0, r0, #2
2000090c:	6258      	str	r0, [r3, #36]	@ 0x24
2000090e:	e7da      	b.n	200008c6 <MXC_FLC_RevA_Write32+0x2e>
        return E_BAD_PARAM;
20000910:	f06f 0002 	mvn.w	r0, #2
20000914:	4770      	bx	lr
        return err;
20000916:	f06f 0005 	mvn.w	r0, #5
2000091a:	4770      	bx	lr
        flc->intr &= ~MXC_F_FLC_REVA_INTR_AF;
2000091c:	6a5a      	ldr	r2, [r3, #36]	@ 0x24
2000091e:	f022 0202 	bic.w	r2, r2, #2
20000922:	625a      	str	r2, [r3, #36]	@ 0x24
        return E_BAD_STATE;
20000924:	f06f 0006 	mvn.w	r0, #6
20000928:	e7eb      	b.n	20000902 <MXC_FLC_RevA_Write32+0x6a>
2000092a:	f06f 0006 	mvn.w	r0, #6
}
2000092e:	4770      	bx	lr
20000930:	2000173c 	.word	0x2000173c
20000934:	431bde83 	.word	0x431bde83

20000938 <MXC_FLC_RevA_Write32Using128>:
{
20000938:	b570      	push	{r4, r5, r6, lr}
2000093a:	4684      	mov	ip, r0
2000093c:	b084      	sub	sp, #16
    uint32_t current_data[4] = { 0, 0, 0, 0 };
2000093e:	2000      	movs	r0, #0
    if (logicAddr & 0x3) {
20000940:	078e      	lsls	r6, r1, #30
    uint32_t current_data[4] = { 0, 0, 0, 0 };
20000942:	e9cd 0000 	strd	r0, r0, [sp]
20000946:	e9cd 0002 	strd	r0, r0, [sp, #8]
    if (logicAddr & 0x3) {
2000094a:	d150      	bne.n	200009ee <MXC_FLC_RevA_Write32Using128+0xb6>
    if ((*(uint32_t *)logicAddr & data) != data) {
2000094c:	6808      	ldr	r0, [r1, #0]
2000094e:	ea32 0000 	bics.w	r0, r2, r0
20000952:	d149      	bne.n	200009e8 <MXC_FLC_RevA_Write32Using128+0xb0>
    return (flc->ctrl &
20000954:	f8dc 4008 	ldr.w	r4, [ip, #8]
    if (MXC_busy_flc(flc)) {
20000958:	0765      	lsls	r5, r4, #29
    logicAddr = logicAddr & 0xfffffff0;
2000095a:	f021 000f 	bic.w	r0, r1, #15
    if (MXC_busy_flc(flc)) {
2000095e:	d149      	bne.n	200009f4 <MXC_FLC_RevA_Write32Using128+0xbc>
    flc->clkdiv = SystemCoreClock / 1000000;
20000960:	4c26      	ldr	r4, [pc, #152]	@ (200009fc <MXC_FLC_RevA_Write32Using128+0xc4>)
20000962:	4d27      	ldr	r5, [pc, #156]	@ (20000a00 <MXC_FLC_RevA_Write32Using128+0xc8>)
20000964:	6824      	ldr	r4, [r4, #0]
20000966:	fba5 5404 	umull	r5, r4, r5, r4
2000096a:	0ca4      	lsrs	r4, r4, #18
2000096c:	f8cc 4004 	str.w	r4, [ip, #4]
    if (flc->intr & MXC_F_FLC_REVA_INTR_AF) {
20000970:	f8dc 4024 	ldr.w	r4, [ip, #36]	@ 0x24
20000974:	07a4      	lsls	r4, r4, #30
20000976:	d425      	bmi.n	200009c4 <MXC_FLC_RevA_Write32Using128+0x8c>
    flc->ctrl = (flc->ctrl & ~MXC_F_FLC_REVA_CTRL_UNLOCK) | MXC_S_FLC_REVA_CTRL_UNLOCK_UNLOCKED;
20000978:	f8dc 4008 	ldr.w	r4, [ip, #8]
2000097c:	f024 4470 	bic.w	r4, r4, #4026531840	@ 0xf0000000
20000980:	f044 5400 	orr.w	r4, r4, #536870912	@ 0x20000000
20000984:	f8cc 4008 	str.w	r4, [ip, #8]
    for (ptr = (uint32_t *)logicAddr; ptr < (uint32_t *)(logicAddr + 16); ptr++, i++) {
20000988:	f100 0410 	add.w	r4, r0, #16
2000098c:	42a0      	cmp	r0, r4
2000098e:	4686      	mov	lr, r0
20000990:	d20d      	bcs.n	200009ae <MXC_FLC_RevA_Write32Using128+0x76>
20000992:	1d05      	adds	r5, r0, #4
20000994:	42ac      	cmp	r4, r5
20000996:	bf34      	ite	cc
20000998:	2401      	movcc	r4, #1
2000099a:	2404      	movcs	r4, #4
2000099c:	eb00 0484 	add.w	r4, r0, r4, lsl #2
200009a0:	466d      	mov	r5, sp
        current_data[i] = *ptr;
200009a2:	f85e 6b04 	ldr.w	r6, [lr], #4
200009a6:	f845 6b04 	str.w	r6, [r5], #4
    for (ptr = (uint32_t *)logicAddr; ptr < (uint32_t *)(logicAddr + 16); ptr++, i++) {
200009aa:	45a6      	cmp	lr, r4
200009ac:	d1f9      	bne.n	200009a2 <MXC_FLC_RevA_Write32Using128+0x6a>
    if (byte < 4) {
200009ae:	f011 0f0c 	tst.w	r1, #12
    flc->addr = physicalAddr;
200009b2:	f8cc 3000 	str.w	r3, [ip]
    if (byte < 4) {
200009b6:	d10c      	bne.n	200009d2 <MXC_FLC_RevA_Write32Using128+0x9a>
        current_data[0] = data;
200009b8:	9200      	str	r2, [sp, #0]
    return MXC_FLC_Write128(logicAddr, current_data);
200009ba:	4669      	mov	r1, sp
200009bc:	f7ff feb4 	bl	20000728 <MXC_FLC_Write128>
}
200009c0:	b004      	add	sp, #16
200009c2:	bd70      	pop	{r4, r5, r6, pc}
        flc->intr &= ~MXC_F_FLC_REVA_INTR_AF;
200009c4:	f8dc 4024 	ldr.w	r4, [ip, #36]	@ 0x24
200009c8:	f024 0402 	bic.w	r4, r4, #2
200009cc:	f8cc 4024 	str.w	r4, [ip, #36]	@ 0x24
200009d0:	e7d2      	b.n	20000978 <MXC_FLC_RevA_Write32Using128+0x40>
    } else if (byte < 8) {
200009d2:	070b      	lsls	r3, r1, #28
200009d4:	d401      	bmi.n	200009da <MXC_FLC_RevA_Write32Using128+0xa2>
        current_data[1] = data;
200009d6:	9201      	str	r2, [sp, #4]
200009d8:	e7ef      	b.n	200009ba <MXC_FLC_RevA_Write32Using128+0x82>
    byte = (logicAddr & 0xf);
200009da:	f001 010f 	and.w	r1, r1, #15
    } else if (byte < 12) {
200009de:	290b      	cmp	r1, #11
        current_data[2] = data;
200009e0:	bf94      	ite	ls
200009e2:	9202      	strls	r2, [sp, #8]
        current_data[3] = data;
200009e4:	9203      	strhi	r2, [sp, #12]
200009e6:	e7e8      	b.n	200009ba <MXC_FLC_RevA_Write32Using128+0x82>
        return E_BAD_STATE;
200009e8:	f06f 0006 	mvn.w	r0, #6
200009ec:	e7e8      	b.n	200009c0 <MXC_FLC_RevA_Write32Using128+0x88>
        return E_BAD_PARAM;
200009ee:	f06f 0002 	mvn.w	r0, #2
200009f2:	e7e5      	b.n	200009c0 <MXC_FLC_RevA_Write32Using128+0x88>
        return err;
200009f4:	f06f 0005 	mvn.w	r0, #5
200009f8:	e7e2      	b.n	200009c0 <MXC_FLC_RevA_Write32Using128+0x88>
200009fa:	bf00      	nop
200009fc:	2000173c 	.word	0x2000173c
20000a00:	431bde83 	.word	0x431bde83

20000a04 <MXC_FLC_RevA_Write128>:
    if (addr & 0xF) {
20000a04:	070b      	lsls	r3, r1, #28
20000a06:	d13a      	bne.n	20000a7e <MXC_FLC_RevA_Write128+0x7a>
    return (flc->ctrl &
20000a08:	4603      	mov	r3, r0
20000a0a:	6880      	ldr	r0, [r0, #8]
    if (MXC_busy_flc(flc)) {
20000a0c:	0740      	lsls	r0, r0, #29
20000a0e:	d139      	bne.n	20000a84 <MXC_FLC_RevA_Write128+0x80>
    flc->clkdiv = SystemCoreClock / 1000000;
20000a10:	4821      	ldr	r0, [pc, #132]	@ (20000a98 <MXC_FLC_RevA_Write128+0x94>)
{
20000a12:	b410      	push	{r4}
    flc->clkdiv = SystemCoreClock / 1000000;
20000a14:	6800      	ldr	r0, [r0, #0]
20000a16:	4c21      	ldr	r4, [pc, #132]	@ (20000a9c <MXC_FLC_RevA_Write128+0x98>)
20000a18:	fba4 4000 	umull	r4, r0, r4, r0
20000a1c:	0c80      	lsrs	r0, r0, #18
20000a1e:	6058      	str	r0, [r3, #4]
    if (flc->intr & MXC_F_FLC_REVA_INTR_AF) {
20000a20:	6a58      	ldr	r0, [r3, #36]	@ 0x24
20000a22:	0780      	lsls	r0, r0, #30
20000a24:	d426      	bmi.n	20000a74 <MXC_FLC_RevA_Write128+0x70>
    flc->ctrl = (flc->ctrl & ~MXC_F_FLC_REVA_CTRL_UNLOCK) | MXC_S_FLC_REVA_CTRL_UNLOCK_UNLOCKED;
20000a26:	6898      	ldr	r0, [r3, #8]
20000a28:	f020 4070 	bic.w	r0, r0, #4026531840	@ 0xf0000000
20000a2c:	f040 5000 	orr.w	r0, r0, #536870912	@ 0x20000000
20000a30:	6098      	str	r0, [r3, #8]
    flc->ctrl &= ~MXC_F_FLC_REVA_CTRL_WDTH;
20000a32:	6898      	ldr	r0, [r3, #8]
20000a34:	f020 0010 	bic.w	r0, r0, #16
20000a38:	6098      	str	r0, [r3, #8]
    flc->addr = addr;
20000a3a:	6019      	str	r1, [r3, #0]
    flc->data[0] = data[0];
20000a3c:	6811      	ldr	r1, [r2, #0]
20000a3e:	6319      	str	r1, [r3, #48]	@ 0x30
    flc->data[1] = data[1];
20000a40:	6851      	ldr	r1, [r2, #4]
20000a42:	6359      	str	r1, [r3, #52]	@ 0x34
    flc->data[2] = data[2];
20000a44:	6891      	ldr	r1, [r2, #8]
20000a46:	6399      	str	r1, [r3, #56]	@ 0x38
    flc->data[3] = data[3];
20000a48:	68d2      	ldr	r2, [r2, #12]
20000a4a:	63da      	str	r2, [r3, #60]	@ 0x3c
    flc->ctrl |= MXC_F_FLC_REVA_CTRL_WR;
20000a4c:	689a      	ldr	r2, [r3, #8]
20000a4e:	f042 0201 	orr.w	r2, r2, #1
20000a52:	609a      	str	r2, [r3, #8]
    while ((flc->ctrl & MXC_F_FLC_REVA_CTRL_PEND) != 0) {}
20000a54:	689a      	ldr	r2, [r3, #8]
20000a56:	01d1      	lsls	r1, r2, #7
20000a58:	d4fc      	bmi.n	20000a54 <MXC_FLC_RevA_Write128+0x50>
    return (flc->ctrl &
20000a5a:	689a      	ldr	r2, [r3, #8]
    while (MXC_busy_flc(flc)) {}
20000a5c:	0752      	lsls	r2, r2, #29
20000a5e:	d1fc      	bne.n	20000a5a <MXC_FLC_RevA_Write128+0x56>
    flc->ctrl &= ~MXC_F_FLC_REVA_CTRL_UNLOCK;
20000a60:	689a      	ldr	r2, [r3, #8]
20000a62:	f022 4270 	bic.w	r2, r2, #4026531840	@ 0xf0000000
20000a66:	609a      	str	r2, [r3, #8]
    if (flc->intr & MXC_F_FLC_REVA_INTR_AF) {
20000a68:	6a58      	ldr	r0, [r3, #36]	@ 0x24
20000a6a:	f010 0002 	ands.w	r0, r0, #2
20000a6e:	d10c      	bne.n	20000a8a <MXC_FLC_RevA_Write128+0x86>
}
20000a70:	bc10      	pop	{r4}
20000a72:	4770      	bx	lr
        flc->intr &= ~MXC_F_FLC_REVA_INTR_AF;
20000a74:	6a58      	ldr	r0, [r3, #36]	@ 0x24
20000a76:	f020 0002 	bic.w	r0, r0, #2
20000a7a:	6258      	str	r0, [r3, #36]	@ 0x24
20000a7c:	e7d3      	b.n	20000a26 <MXC_FLC_RevA_Write128+0x22>
        return E_BAD_PARAM;
20000a7e:	f06f 0002 	mvn.w	r0, #2
20000a82:	4770      	bx	lr
        return err;
20000a84:	f06f 0005 	mvn.w	r0, #5
}
20000a88:	4770      	bx	lr
        flc->intr &= ~MXC_F_FLC_REVA_INTR_AF;
20000a8a:	6a5a      	ldr	r2, [r3, #36]	@ 0x24
20000a8c:	f022 0202 	bic.w	r2, r2, #2
        return E_BAD_STATE;
20000a90:	f06f 0006 	mvn.w	r0, #6
        flc->intr &= ~MXC_F_FLC_REVA_INTR_AF;
20000a94:	625a      	str	r2, [r3, #36]	@ 0x24
        return E_BAD_STATE;
20000a96:	e7eb      	b.n	20000a70 <MXC_FLC_RevA_Write128+0x6c>
20000a98:	2000173c 	.word	0x2000173c
20000a9c:	431bde83 	.word	0x431bde83

20000aa0 <MXC_FLC_Com_VerifyData>:
// Length is number of 32-bit words
int MXC_FLC_Com_VerifyData(uint32_t address, uint32_t length, uint32_t *data)
{
    volatile uint32_t *ptr;

    for (ptr = (uint32_t *)address; ptr < (((uint32_t *)(address)) + length); ptr++, data++) {
20000aa0:	eb00 0c81 	add.w	ip, r0, r1, lsl #2
20000aa4:	4560      	cmp	r0, ip
20000aa6:	d20d      	bcs.n	20000ac4 <MXC_FLC_Com_VerifyData+0x24>
20000aa8:	3a04      	subs	r2, #4
20000aaa:	e001      	b.n	20000ab0 <MXC_FLC_Com_VerifyData+0x10>
20000aac:	4560      	cmp	r0, ip
20000aae:	d209      	bcs.n	20000ac4 <MXC_FLC_Com_VerifyData+0x24>
        if (*ptr != *data) {
20000ab0:	6801      	ldr	r1, [r0, #0]
20000ab2:	f852 3f04 	ldr.w	r3, [r2, #4]!
20000ab6:	4299      	cmp	r1, r3
    for (ptr = (uint32_t *)address; ptr < (((uint32_t *)(address)) + length); ptr++, data++) {
20000ab8:	f100 0004 	add.w	r0, r0, #4
        if (*ptr != *data) {
20000abc:	d0f6      	beq.n	20000aac <MXC_FLC_Com_VerifyData+0xc>
            return E_BAD_STATE;
20000abe:	f06f 0006 	mvn.w	r0, #6
        }
    }

    return E_NO_ERROR;
}
20000ac2:	4770      	bx	lr
    return E_NO_ERROR;
20000ac4:	2000      	movs	r0, #0
20000ac6:	4770      	bx	lr

20000ac8 <MXC_FLC_Com_Write>:
#else
__attribute__((section(".flashprog")))
#endif
// make sure to disable ICC with ICC_Disable(); before Running this function
int MXC_FLC_Com_Write(uint32_t address, uint32_t length, uint32_t *buffer)
{
20000ac8:	e92d 43f0 	stmdb	sp!, {r4, r5, r6, r7, r8, r9, lr}
    uint32_t current_data_32;
    uint8_t *current_data = (uint8_t *)&current_data_32;
    uint8_t *buffer8 = (uint8_t *)buffer;

    // Align the address to a word boundary and read/write if we have to
    if (address & 0x3) {
20000acc:	f010 0703 	ands.w	r7, r0, #3
{
20000ad0:	b087      	sub	sp, #28
20000ad2:	4604      	mov	r4, r0
20000ad4:	460e      	mov	r6, r1
20000ad6:	4615      	mov	r5, r2
    if (address & 0x3) {
20000ad8:	d00b      	beq.n	20000af2 <MXC_FLC_Com_Write+0x2a>
20000ada:	e012      	b.n	20000b02 <MXC_FLC_Com_Write+0x3a>
        length -= bytes_written;
        buffer8 += bytes_written;
    }

    // Align the address to a 4-word (128bit) boundary
    while ((length >= 4) && ((address & 0xF) != 0)) {
20000adc:	0723      	lsls	r3, r4, #28
20000ade:	d028      	beq.n	20000b32 <MXC_FLC_Com_Write+0x6a>
        memcpy(current_data, buffer8, 4);
20000ae0:	6829      	ldr	r1, [r5, #0]
20000ae2:	9101      	str	r1, [sp, #4]
        if ((err = MXC_FLC_Write32(address, current_data_32)) != E_NO_ERROR) {
20000ae4:	4620      	mov	r0, r4
20000ae6:	f000 f863 	bl	20000bb0 <__MXC_FLC_Write32_veneer>
            return err;
        }

        address += 4;
        length -= 4;
20000aea:	3e04      	subs	r6, #4
        address += 4;
20000aec:	3404      	adds	r4, #4
        buffer8 += 4;
20000aee:	3504      	adds	r5, #4
        if ((err = MXC_FLC_Write32(address, current_data_32)) != E_NO_ERROR) {
20000af0:	b920      	cbnz	r0, 20000afc <MXC_FLC_Com_Write+0x34>
    while ((length >= 4) && ((address & 0xF) != 0)) {
20000af2:	2e03      	cmp	r6, #3
20000af4:	d8f2      	bhi.n	20000adc <MXC_FLC_Com_Write+0x14>
        address += 4;
        length -= 4;
        buffer8 += 4;
    }

    if (length > 0) {
20000af6:	2e00      	cmp	r6, #0
20000af8:	d141      	bne.n	20000b7e <MXC_FLC_Com_Write+0xb6>
        if ((err = MXC_FLC_Write32(address, current_data_32)) != E_NO_ERROR) {
            return err;
        }
    }

    return E_NO_ERROR;
20000afa:	4630      	mov	r0, r6
}
20000afc:	b007      	add	sp, #28
20000afe:	e8bd 83f0 	ldmia.w	sp!, {r4, r5, r6, r7, r8, r9, pc}
        memcpy(current_data, (void *)(address & (~0x3)), 4);
20000b02:	f020 0903 	bic.w	r9, r0, #3
        memcpy(&current_data[4 - bytes_written], buffer8, bytes_written);
20000b06:	ab01      	add	r3, sp, #4
        bytes_written = 4 - (address & 0x3);
20000b08:	f1c7 0804 	rsb	r8, r7, #4
        memcpy(&current_data[4 - bytes_written], buffer8, bytes_written);
20000b0c:	19d8      	adds	r0, r3, r7
20000b0e:	4629      	mov	r1, r5
        memcpy(current_data, (void *)(address & (~0x3)), 4);
20000b10:	f8d9 3000 	ldr.w	r3, [r9]
20000b14:	9301      	str	r3, [sp, #4]
        memcpy(&current_data[4 - bytes_written], buffer8, bytes_written);
20000b16:	4642      	mov	r2, r8
20000b18:	f000 f846 	bl	20000ba8 <__memcpy_veneer>
        if ((err = MXC_FLC_Write32(address - (address % 4), current_data_32)) != E_NO_ERROR) {
20000b1c:	9901      	ldr	r1, [sp, #4]
20000b1e:	4648      	mov	r0, r9
20000b20:	f000 f846 	bl	20000bb0 <__MXC_FLC_Write32_veneer>
20000b24:	2800      	cmp	r0, #0
20000b26:	d1e9      	bne.n	20000afc <MXC_FLC_Com_Write+0x34>
        address += bytes_written;
20000b28:	3e04      	subs	r6, #4
20000b2a:	4444      	add	r4, r8
        length -= bytes_written;
20000b2c:	443e      	add	r6, r7
        buffer8 += bytes_written;
20000b2e:	4445      	add	r5, r8
20000b30:	e7df      	b.n	20000af2 <MXC_FLC_Com_Write+0x2a>
    if (length >= 16) {
20000b32:	2e0f      	cmp	r6, #15
20000b34:	d802      	bhi.n	20000b3c <MXC_FLC_Com_Write+0x74>
20000b36:	e015      	b.n	20000b64 <MXC_FLC_Com_Write+0x9c>
        while (length >= 16) {
20000b38:	2e0f      	cmp	r6, #15
20000b3a:	d911      	bls.n	20000b60 <MXC_FLC_Com_Write+0x98>
            memcpy(buff128, buffer8, 16);
20000b3c:	6828      	ldr	r0, [r5, #0]
20000b3e:	6869      	ldr	r1, [r5, #4]
20000b40:	68aa      	ldr	r2, [r5, #8]
20000b42:	68eb      	ldr	r3, [r5, #12]
20000b44:	f10d 0c08 	add.w	ip, sp, #8
20000b48:	e8ac 000f 	stmia.w	ip!, {r0, r1, r2, r3}
            if ((err = MXC_FLC_Write128(address, buff128)) != E_NO_ERROR) {
20000b4c:	4620      	mov	r0, r4
20000b4e:	a902      	add	r1, sp, #8
20000b50:	f7ff fdea 	bl	20000728 <MXC_FLC_Write128>
            length -= 16;
20000b54:	3e10      	subs	r6, #16
            address += 16;
20000b56:	3410      	adds	r4, #16
            buffer8 += 16;
20000b58:	3510      	adds	r5, #16
            if ((err = MXC_FLC_Write128(address, buff128)) != E_NO_ERROR) {
20000b5a:	2800      	cmp	r0, #0
20000b5c:	d0ec      	beq.n	20000b38 <MXC_FLC_Com_Write+0x70>
20000b5e:	e7cd      	b.n	20000afc <MXC_FLC_Com_Write+0x34>
    while (length >= 4) {
20000b60:	2e03      	cmp	r6, #3
20000b62:	d9c8      	bls.n	20000af6 <MXC_FLC_Com_Write+0x2e>
        memcpy(current_data, buffer8, 4);
20000b64:	6829      	ldr	r1, [r5, #0]
20000b66:	9101      	str	r1, [sp, #4]
        if ((err = MXC_FLC_Write32(address, current_data_32)) != E_NO_ERROR) {
20000b68:	4620      	mov	r0, r4
20000b6a:	f000 f821 	bl	20000bb0 <__MXC_FLC_Write32_veneer>
        length -= 4;
20000b6e:	3e04      	subs	r6, #4
        address += 4;
20000b70:	3404      	adds	r4, #4
        buffer8 += 4;
20000b72:	3504      	adds	r5, #4
        if ((err = MXC_FLC_Write32(address, current_data_32)) != E_NO_ERROR) {
20000b74:	2800      	cmp	r0, #0
20000b76:	d0f3      	beq.n	20000b60 <MXC_FLC_Com_Write+0x98>
}
20000b78:	b007      	add	sp, #28
20000b7a:	e8bd 83f0 	ldmia.w	sp!, {r4, r5, r6, r7, r8, r9, pc}
        memcpy(current_data, (void *)(address), 4);
20000b7e:	6823      	ldr	r3, [r4, #0]
20000b80:	9301      	str	r3, [sp, #4]
        memcpy(current_data, buffer8, length);
20000b82:	4629      	mov	r1, r5
20000b84:	4632      	mov	r2, r6
20000b86:	a801      	add	r0, sp, #4
20000b88:	f000 f80e 	bl	20000ba8 <__memcpy_veneer>
        if ((err = MXC_FLC_Write32(address, current_data_32)) != E_NO_ERROR) {
20000b8c:	9901      	ldr	r1, [sp, #4]
20000b8e:	4620      	mov	r0, r4
}
20000b90:	b007      	add	sp, #28
20000b92:	e8bd 43f0 	ldmia.w	sp!, {r4, r5, r6, r7, r8, r9, lr}
        if ((err = MXC_FLC_Write32(address, current_data_32)) != E_NO_ERROR) {
20000b96:	f000 b80b 	b.w	20000bb0 <__MXC_FLC_Write32_veneer>
20000b9a:	bf00      	nop

20000b9c <MXC_FLC_Com_Read>:
#pragma section = ".flashprog"
#else
__attribute__((section(".flashprog")))
#endif
void MXC_FLC_Com_Read(int address, void *buffer, int len)
{
20000b9c:	4603      	mov	r3, r0
    memcpy(buffer, (void *)address, len);
20000b9e:	4608      	mov	r0, r1
20000ba0:	4619      	mov	r1, r3
20000ba2:	f000 b801 	b.w	20000ba8 <__memcpy_veneer>
20000ba6:	bf00      	nop

20000ba8 <__memcpy_veneer>:
20000ba8:	f85f f000 	ldr.w	pc, [pc]	@ 20000bac <__memcpy_veneer+0x4>
20000bac:	10010315 	.word	0x10010315

20000bb0 <__MXC_FLC_Write32_veneer>:
20000bb0:	f85f f000 	ldr.w	pc, [pc]	@ 20000bb4 <__MXC_FLC_Write32_veneer+0x4>
20000bb4:	1000f249 	.word	0x1000f249

20000bb8 <__init_array_start>:
20000bb8:	10014c3d 	.word	0x10014c3d

20000bbc <__frame_dummy_init_array_entry>:
20000bbc:	1000e271                                q...

20000bc0 <__do_global_dtors_aux_fini_array_entry>:
20000bc0:	1000e249                                I...
